# Additional valgrind suppression file for ROOT.
#
# To use, run valgrind with:
#   valgrind --suppressions=$ROOTSYS/etc/valgrind-root.supp ...
#
# This file suppresses known and expected / inevitable valgrind
# reports, e.g. due to ROOT's runtime type information that must
# survive until the end of the process and thus leaks.
# It only suppresses leaks, and a few errors generated by X11.

######### ROOT's RTTI
{
   TClass::AddClass()'s std::string
   Memcheck:Leak
   fun:_Znw?
   fun:_ZNSs4_Rep9_S_createE??RKSaIcE
   ...
   fun:_ZNSsC1EPKcRKSaIcE
   fun:_ZN6TClass8AddClassEPS_
}

{
   TCint::CreateListOfBaseClasses(TClass*)
   Memcheck:Leak
   fun:_Znw?
   fun:_ZN8TStorage11ObjectAllocE?
   fun:_ZN5TCint23CreateListOfBaseClassesEP6TClass
}

{
   <insert_a_suppression_name_here>
   Memcheck:Leak
   fun:_Znw?
   fun:_ZN5TList7NewLinkEP7TObjectP8TObjLink
   fun:_ZN5TList7AddLastEP7TObject
   fun:_ZN5TCint23CreateListOfBaseClassesEP6TClass
}

{
   TGenericClassInfo's fClass generated by ROOT::TQObjectInitBehavior::CreateClass()
   Memcheck:Leak
   fun:_Znw?
   fun:_ZN8TStorage11ObjectAllocE?
   fun:_ZN7TObjectnwE?
   fun:_ZNK4ROOT20TQObjectInitBehavior11CreateClassEPKcsRKSt9type_info*
}

{
   TClass long name
   Memcheck:Leak
   fun:_Zna?
   fun:_ZN7TString4InitEii
   fun:_ZN7TStringC1EPKc
   fun:_ZN6TClassC2EPKc*
}

{
   TDictionary long name
   Memcheck:Leak
   fun:_Zna?
   fun:_ZN7TString4InitEii
   fun:_ZN7TStringC1EPKc
   fun:_ZN6TNamedC1EPKcS1_
   fun:_ZN11TDictionaryC1EPKc
}

{
   TBaseClass long name
   Memcheck:Leak
   fun:_Zna?
   fun:_ZN7TString7ReplaceEiiPKci
   fun:_ZN7TStringaSEPKc
   fun:_ZN6TNamed7SetNameEPKc
   fun:_ZN10TBaseClassC1EPvP6TClass
}

{
   TDataType long name
   Memcheck:Leak
   fun:_Zna?
   fun:_ZN7TString7ReplaceEiiPKci
   fun:_ZN7TStringaSEPKc
   ...
   fun:_ZN9TDataTypeC1EPv
}

{
   Anything allocated by TClass::Init: new[]()
   Memcheck:Leak
   fun:_Zna?
   ...
   fun:_ZN6TClass4InitEPKcs*
}   

{
   Anything allocated by TClass::Init: new()
   Memcheck:Leak
   fun:_Znw?
   ...
   fun:_ZN6TClass4InitEPKcs*
}

{
   TClass thread local storage
   Memcheck:Leak
   fun:_Znw?
   fun:_ZN8TStorage11ObjectAllocE?
   fun:_ZN7TObjectnwE?
   fun:_ZN12_GLOBAL__N_118TClassLocalStorage10GetStorageEPK6TClass
}

{
   TThread global mutex
   Memcheck:Leak
   fun:_Znw?
   fun:_ZN8TStorage11ObjectAllocE?
   fun:_ZN7TObjectnwE?
   fun:_ZN7TThread4InitEv
   fun:_ZN7TThread11ConstructorEv
   fun:_ZN7TThreadC1EPKcPFPvS2_ES2_NS_9EPriorityE
}

{
   TClass's list of base classes (TDataMember elements)
   Memcheck:Leak
   fun:_Znw?
   fun:_ZN5TList7NewLinkEP7TObjectP8TObjLink
   fun:_ZN5TList7AddLastEP7TObject
   fun:_ZN5TList3AddEP7TObject
   fun:_ZN5TCint23CreateListOfBaseClassesEP6TClass
}

{
   TClass's list of base classes (G__DataMemberInfo elements)
   Memcheck:Leak
   fun:_Znw?
   fun:_ZN5TCint23CreateListOfBaseClassesEP6TClass
}

{
   TClass's list of base classes (TList container)
   Memcheck:Leak
   fun:_Znw?
   fun:_ZN8TStorage11ObjectAllocE?
   fun:_ZN7TObjectnwE?
   fun:_ZN5TCint23CreateListOfBaseClassesEP6TClass
}

{
   Unloaded TClass and its fClassInfo
   Memcheck:Leak
   fun:_Znw?
   fun:_ZN5TCint12SetClassInfoEP6TClassb
   fun:_ZN6TClass11SetUnloadedEv
}
 
{
   TClass::Init calling TCint::SetClassInfo
   Memcheck:Leak
   fun:_Znw?
   fun:_ZN5TCint12SetClassInfoEP6TClassb
   fun:_ZN6TClass4InitEPKcsPKSt9type_infoP16TVirtualIsAProxyPFvPvR16TMemberInspectorES1_S1_iib
}

{
   std::string uses in various place.
   Memcheck:Leak
   fun:_Znw?
   fun:_ZNSs4_Rep9_S_createE??RKSaIcE
   fun:_ZNSs9_M_mutateE???
   fun:_ZNSs15_M_replace_safeE??PKc?
}

{
   Array of objects allocated in TStreamerInfo::Compile
   Memcheck:Leak
   fun:_Zna?
   fun:_ZN13TStreamerInfo7CompileEv
}

{
   Strings allocated in TStreamerInfo::Compile
   Memcheck:Leak
   fun:_Zna?
   fun:_ZN7TString7ReplaceEiiPKci
   fun:_ZN7TStringaSERK10TSubString
   fun:_ZN13TStreamerInfo7CompileEv
}

{
   String reallocated in TStreamerInfo::Compile
   Memcheck:Leak
   fun:_Zna?
   fun:_ZN7TString7ReplaceEiiPKci
   fun:_ZN13TStreamerInfo7CompileEv

}

{
   StreamerInfo virtual table mechanism
   Memcheck:Leak
   fun:_Zna?
   fun:_ZN13TStreamerInfo8BuildOldEv
   fun:_ZNK6TClass15GetStreamerInfoEi
}

{
   StreamerInfo parts
   Memcheck:Leak
   fun:_Znw?
   fun:_ZN8TStorage11ObjectAllocE?
   fun:_ZN7TObjectnwE?
   fun:_ZN4ROOTL13new_TObjArrayEPv
   fun:_ZNK6TClass3NewENS_8ENewTypeE
   fun:_ZN11TBufferFile13ReadObjectAnyEPK6TClass
   fun:_ZrsI9TObjArrayER7TBufferS2_RPT_
   fun:_ZN13TStreamerInfo8StreamerER7TBuffer
}

{
   StreamerInfo parts
   Memcheck:Leak
   fun:_Zna?
   fun:_ZN8TStorage5AllocE?
   fun:_ZN9TObjArray4InitEii
   fun:_ZN9TObjArrayC1Eii
   fun:_ZN4ROOTL13new_TObjArrayEPv
   fun:_ZNK6TClass3NewENS_8ENewTypeE
   fun:_ZN11TBufferFile13ReadObjectAnyEPK6TClass
   fun:_ZrsI9TObjArrayER7TBufferS2_RPT_
   fun:_ZN13TStreamerInfo8StreamerER7TBuffer
}

{
   CollectionProxy objects
   Memcheck:Leak
   fun:_Znw?
   fun:_ZN23TCollectionProxyFactory24GenEmulatedClassStreamerEPKc
}

{
   CollectionProxy objects
   Memcheck:Leak
   fun:_Znw?
   fun:_ZNK19TGenCollectionProxy8GenerateEv
   fun:_ZNK6TClass18GetCollectionProxyEv
}

{
   CollectionProxy objects
   Memcheck:Leak
   fun:_Znw?
   fun:_ZNK19TGenCollectionProxy8GenerateEv
   fun:_ZN14TBranchElement4InitEP5TTreeP7TBranchPKcP23TVirtualCollectionProxyiii
}

{
   Part of CollectionProxy objects
   Memcheck:Leak
   fun:_Znw?
   ...
   fun:_ZN19TGenCollectionProxyC1ERKS_
}

{
   Part of CollectionProxy objects
   Memcheck:Leak
   fun:_Zna?
   ...
   fun:_ZN19TGenCollectionProxyC1ERKS_
}

{
   TClass's list of RealData.
   Memcheck:Leak
   fun:_Znw?
   fun:_ZN5TList7NewLinkEP7TObjectP8TObjLink
   fun:_ZN5TList7AddLastEP7TObject
   fun:_ZN5TList3AddEP7TObject
   fun:_ZN6TClass21BuildEmulatedRealDataEPKclPS_
}

{
   TClass's RealData objects.
   Memcheck:Leak
   fun:_Znw?
   fun:_ZN8TStorage11ObjectAllocE?
   fun:_ZN7TObjectnwE?
   fun:_ZN6TClass21BuildEmulatedRealDataEPKclPS_
}

{
   TClass's RealData objects.
   Memcheck:Leak
   fun:_Znw?
   fun:_ZN8TStorage11ObjectAllocE?
   fun:_ZN7TObjectnwE?
   fun:_ZN6TClass13BuildRealDataEPvb
}

{
   TEmulatedCollectionProxy configuration item
   Memcheck:Leak
   fun:_Znw?
   fun:_ZN24TEmulatedCollectionProxy12InitializeExEv
}

{
   ROOT's list of types objects
   Memcheck:Leak
   fun:_Znw?
   fun:_ZN8TStorage11ObjectAllocE?
   fun:_ZN7TObjectnwE?
   fun:_ZN5TCint17UpdateListOfTypesEv
}

{
   ROOT's list of types
   Memcheck:Leak
   fun:_Znw?
   fun:_ZN5TCint17UpdateListOfTypesEv
}

{
   ROOT's list of types internals
   Memcheck:Leak
   fun:_Znw?
   fun:_ZN5TList7NewLinkEP7TObjectP8TObjLink
   fun:_ZN5TList7AddLastEP7TObject
   fun:_ZN5TList3AddEP7TObject
   fun:_ZN10THashTable3AddEP7TObject
   fun:_ZN10THashTable6RehashEib
   fun:_ZN10THashTable3AddEP7TObject
   fun:_ZN5TCint17UpdateListOfTypesEv
} 

######### ROOT I/O

{
   zlib fill_window issue, see zlib.net FAQ #36 and comment "If n is not on any hash chain, prev[n] is garbage but" in zlib deflate.c.  See http://www.zlib.net/zlib_faq.html#faq36.  Even though the code was correct, versions 1.2.4 and later was changed to not stimulate these checkers.
   Memcheck:Cond
   fun:fill_window
   fun:deflate_fast
   fun:deflate
}

{
   zlib deflate issue, see zlib.net FAQ #36: http://www.zlib.net/zlib_faq.html#faq36 which says that it was due to changing from calloc to malloc.  And notes, that even though the code was correct, versions 1.2.4 and later was changed to not stimulate these checkers.
   Memcheck:Cond
   fun:longest_match
   ... 
   fun:deflate
}

######### CINT

{
   CINT's G__rate_parameter_match bogus report
   Memcheck:Cond
   fun:G__rate_parameter_match
   fun:G__overload_match
}

{
   CINT's function parameter info
   Memcheck:Leak
   fun:malloc
   fun:G__memfunc_para_setup
}

{
   CINT's function parameter info part 2
   Memcheck:Leak
   fun:malloc
   fun:_ZN9G__paramsixEi
   fun:G__memfunc_para_setup
}

{
   CINT's function info
   Memcheck:Leak
   fun:malloc
   fun:G__memfunc_next
}

{
   CINT's function info (name)
   Memcheck:Leak
   fun:malloc
   fun:G__savestring
   fun:G__memfunc_setup_imp
}
{
   CINT's function info (parameter)
   Memcheck:Leak
   fun:malloc
   fun:_ZN9G__paramsixEi
   fun:G__memfunc_setup_imp
}

{
   CINT's compiled function prototype
   Memcheck:Leak
   fun:malloc
   fun:G__make_ifunctable
}

{  
   CINT's function prototype
   Memcheck:Leak
   fun:malloc
   fun:G__readansiproto
}

{
   CINT's NameMap part1
   Memcheck:Leak
   fun:_Znw?
   fun:_ZN9__gnu_cxx13new_allocatorISt13_Rb_tree_nodeIiEE8allocateE?PKv
   fun:_ZNSt8_Rb_treeIiiSt9_IdentityIiESt4lessIiESaIiEE11_M_get_nodeEv
   fun:_ZNSt8_Rb_treeIiiSt9_IdentityIiESt4lessIiESaIiEE14_M_create_nodeERKi
   fun:_ZNSt8_Rb_treeIiiSt9_IdentityIiESt4lessIiESaIiEE10_M_insert_EPKSt18_Rb_tree_node_baseS8_RKi
   fun:_ZNSt8_Rb_treeIiiSt9_IdentityIiESt4lessIiESaIiEE16_M_insert_uniqueERKi
   fun:_ZNSt3setIiSt4lessIiESaIiEE6insertERKi
   fun:_ZN7NameMap6InsertEPKci
} 

{
   CINT's NameMap part2
   Memcheck:Leak
   fun:_Znw?
   fun:_ZN9__gnu_cxx13new_allocatorISt13_Rb_tree_nodeISt4pairIKPKcSt3setIiSt4lessIiESaIiEEEEE8allocateE?PKv
   fun:_ZNSt8_Rb_treeIPKcSt4pairIKS1_St3setIiSt4lessIiESaIiEEESt10_Select1stIS9_EN7NameMap15G__charptr_lessESaIS9_EE11_M_get_nodeEv
   fun:_ZNSt8_Rb_treeIPKcSt4pairIKS1_St3setIiSt4lessIiESaIiEEESt10_Select1stIS9_EN7NameMap15G__charptr_lessESaIS9_EE14_M_create_nodeERKS9_
   fun:_ZNSt8_Rb_treeIPKcSt4pairIKS1_St3setIiSt4lessIiESaIiEEESt10_Select1stIS9_EN7NameMap15G__charptr_lessESaIS9_EE10_M_insert_EPKSt18_Rb_tree_node_baseSI_RKS9_
   fun:_ZNSt8_Rb_treeIPKcSt4pairIKS1_St3setIiSt4lessIiESaIiEEESt10_Select1stIS9_EN7NameMap15G__charptr_lessESaIS9_EE16_M_insert_uniqueERKS9_
   fun:_ZNSt8_Rb_treeIPKcSt4pairIKS1_St3setIiSt4lessIiESaIiEEESt10_Select1stIS9_EN7NameMap15G__charptr_lessESaIS9_EE17_M_insert_unique_ESt23_Rb_tree_const_iteratorIS9_ERKS9_
   fun:_ZNSt3mapIPKcSt3setIiSt4lessIiESaIiEEN7NameMap15G__charptr_lessESaISt4pairIKS1_S6_EEE6insertESt17_Rb_tree_iteratorISB_ERKSB_
   fun:_ZNSt3mapIPKcSt3setIiSt4lessIiESaIiEEN7NameMap15G__charptr_lessESaISt4pairIKS1_S6_EEEixERSA_
   fun:_ZN7NameMap6InsertEPKci
}

{
   CINT's NameMap part3
   Memcheck:Leak
   fun:_Znw?
   fun:_ZN9__gnu_cxx13new_allocatorISt13_Rb_tree_nodeISt4pairIKPKcSt3setIiSt4lessIiESaIiEEEEE8allocateE?PKv
   fun:_ZNSt8_Rb_treeIPKcSt4pairIKS1_St3setIiSt4lessIiESaIiEEESt10_Select1stIS9_EN7NameMap15G__charptr_lessESaIS9_EE11_M_get_nodeEv
   fun:_ZNSt8_Rb_treeIPKcSt4pairIKS1_St3setIiSt4lessIiESaIiEEESt10_Select1stIS9_EN7NameMap15G__charptr_lessESaIS9_EE14_M_create_nodeERKS9_
   fun:*
   fun:*
   fun:_ZNSt3mapIPKcSt3setIiSt4lessIiESaIiEEN7NameMap15G__charptr_lessESaISt4pairIKS1_S6_EEE6insertESt17_Rb_tree_iteratorISB_ERKSB_
   fun:_ZNSt3mapIPKcSt3setIiSt4lessIiESaIiEEN7NameMap15G__charptr_lessESaISt4pairIKS1_S6_EEEixERSA_
   fun:_ZN7NameMap6InsertEPKci
}

{
   CINT's variable name
   Memcheck:Leak
   fun:malloc
   fun:G__savestring
   fun:_ZL16G__allocvariable8G__valuePS_P12G__var_arrayS2_iiPcS3_iRN4Cint19G__DataMemberHandleE
}

{
   CINT inheritance
   Memcheck:Leak
   fun:malloc
   fun:_ZN9G__heritsixEi
   fun:G__inheritance_setup
}

{
   CINT compiled global variable info
   Memcheck:Leak
   fun:calloc
   fun:G__malloc
   fun:*
   fun:*
   fun:*
   fun:*
   fun:G__getexpr
   fun:G__memvar_setup
   fun:_ZL20G__cpp_setup_global0v
}

######### Misc

{
   TUnixSystem::Setenv, see its doc
   Memcheck:Leak
   fun:_Zna?
   fun:_ZN11TUnixSystem6SetenvEPKcS1_
}

{
   getpwuid() does a __nss_database_lookup which leaks
   Memcheck:Leak
   fun:malloc
   fun:nss_parse_service_list
   fun:__nss_database_lookup
   ...
   fun:getpwuid_r@@GLIBC_*
}

{
   getgrgid() does a __nss_database_lookup which leaks
   Memcheck:Leak
   fun:malloc
   fun:nss_parse_service_list
   fun:__nss_database_lookup
   obj:*
   obj:*
   fun:getgrgid_r@@GLIBC_*
}

######### X11 errors triggered by ROOT

{
   ROOT:X11 - GetWindowSize
   Memcheck:Param
   write(buf)
   fun:__write_nocancel
   obj:*/libX11.*
   obj:*/libX11.*
   fun:_XReply
   fun:XGetGeometry
   fun:_ZN5TGX1113GetWindowSizeEmRiS0_RjS1_
}
{
   ROOT:X11 - XFlush
   Memcheck:Param
   write(buf)
   fun:__write_nocancel
   obj:*/libX11.*
   obj:*/libX11.*
   fun:XFlush
   fun:_ZN7TCanvas5BuildEv
}
{
   ROOT:X11 - XDrawString
   Memcheck:Param
   write(buf)
   fun:__write_nocancel
   obj:*/libX11.*
   obj:*/libX11.*
   fun:XDrawString
   fun:_ZN8TGX11TTF10DrawStringEmmiiPKci
}
{
   ROOT:X11 - XPending
   Memcheck:Param
   write(buf)
   fun:__write_nocancel
   obj:*/libX11.*
   obj:*/libX11.*
   fun:_XEventsQueued
   fun:XPending
   fun:_ZN8TGClient15ProcessOneEventEv
}
{
   ROOT:X11 - XCheckTypedWindowEvent
   Memcheck:Param
   write(buf)
   fun:__write_nocancel
   obj:*/libX11.*
   obj:*/libX11.*
   fun:XCheckTypedWindowEvent
   fun:_ZN5TGX1110CheckEventEm11EGEventTypeR7Event_t
}
{
   ROOT:X11 - XPutImage
   Memcheck:Param
   writev(vector[...])
   fun:writev
   obj:*/libX11.*
   fun:_XSend
   obj:*/libX11.*
   fun:XPutImage
   fun:_ZN8TGX11TTF12RenderStringEiiN9TVirtualX9ETextModeE
}
{
   ROOT:X11 - XMoveResizeWindow
   Memcheck:Param
   write(buf)
   fun:__write_nocancel
   obj:*/libX11.*
   obj:*/libX11.*
   fun:XMoveResizeWindow
   fun:_ZN7TGFrame10MoveResizeEiijj
}
{
   ROOT:X11 - XSetTextProperty
   Memcheck:Param
   write(buf)
   fun:__write_nocancel
   obj:*/libX11.*
   obj:*/libX11.*
   fun:XChangeProperty
   fun:XSetTextProperty
   fun:_ZN5TGX1113SetWindowNameEmPc
}
{
   ROOT:X11 - XDrawLines
   Memcheck:Param
   write(buf)
   fun:__write_nocancel
   obj:*/libX11.*
   obj:*/libX11.*
   fun:XDrawLines
   fun:_ZN4TPad13PaintPolyLineEiPdS0_PKc
}
{
   ROOT:X11 - XDrawLines / _XFlushGCCache
   Memcheck:Param
   write(buf)
   fun:__write_nocancel
   obj:*/libX11.*
   obj:*/libX11.*
   fun:_XFlushGCCache
   fun:XDrawLines
   fun:_ZN4TPad13PaintFillAreaEiPdS0_PKc
}
{
   ROOT:X11 - XDrawLines / _XSend
   Memcheck:Param
   writev(vector[...])
   fun:writev
   obj:*/libX11.*
   fun:_XSend
   fun:XDrawLines
   fun:_ZN4TPad13PaintFillAreaEiPdS0_PKc
}

{
   ROOT:X11 - XQueryExtension 
   Memcheck:Param
   writev(vector[...])
   fun:writev
   obj:*/libxcb.*
   obj:*/libxcb.*
   fun:xcb_writev
   fun:_XSend
   fun:XQueryExtension
}

{
   alien ssl library
   Memcheck:Cond
   fun:BN_*
}
{
   alien ssl library
   Memcheck:Cond
   fun:RSA_*
}
{
   alien ssl library
   Memcheck:Cond
   fun:bn_*
}
{
   alien ssl library
   Memcheck:Cond
   fun:ssl3_*
}
{
   alien ssl library
   Memcheck:Cond
   fun:MOD_*
}
{
   alien ssl library
   Memcheck:Cond
   fun:tls1_*
}
{
   alien ssl library
   Memcheck:Cond
   fun:memcpy
   fun:ssl3_*
}
{
   alien ssl library
   Memcheck:Cond
   fun:SHA1_*
}
{
   alien ssl library
   Memcheck:Cond
   fun:memcpy
   fun:SHA1_Update
}
{
   alien ssl library
   Memcheck:Value8
   fun:memset
   fun:SHA1_Update
}
{
   alien ssl library
   Memcheck:Value8
   fun:memcpy
   fun:SHA1_Update
}
{
   alien ssl library
   Memcheck:Cond
   fun:memset
   fun:SHA1_Final
}
{
   alien ssl library
   Memcheck:Value8
   fun:memset
   fun:SHA1_Final
}
{
   alien ssl library
   Memcheck:Value8
   fun:memset
   fun:BUF_MEM_grow_clean
}
{
   alien ssl library
   Memcheck:Value8
   fun:memcpy
   fun:ssl3_read_bytes
}
{
   alien ssl library
   Memcheck:Value8
   fun:memcpy
   fun:MD5_Update
}
{
   alien ssl library
   Memcheck:Value8
   fun:SHA1_Final
}
{
   alien ssl library
   Memcheck:Value8
   fun:ssl3_read_bytes
}
{
   alien ssl library
   Memcheck:Cond
   fun:memset
   fun:BUF_MEM_grow_clean
}
{
   alien ssl library
   Memcheck:Cond
   fun:BUF_MEM_grow_clean
}
{
   alien ssl library
   Memcheck:Cond
   fun:MD5_Update
}
{
   alien ssl library
   Memcheck:Cond
   fun:memcpy
   fun:MD5_Update
}
{
   alien ssl library
   Memcheck:Value8
   fun:BN_from_montgomery
}
{
   alien ssl library
   Memcheck:Value8
   fun:BN_num_bits_word
}
{
   alien ssl library
   Memcheck:Value8
   fun:AES_set_encrypt_key
}
{
   alien ssl library
   Memcheck:Value8
   fun:AES_set_decrypt_key
}
{
   alien ssl library
   Memcheck:Value8
   fun:AES_set_encrypt
}
{
   alien ssl library
   Memcheck:Value8
   fun:AES_encrypt
}
{
   alien ssl library
   Memcheck:Value8
   fun:AES_decrypt
}
{
   alien ssl library
   Memcheck:Value8
   fun:tls1_enc
}


{
root_jets_1
Memcheck:Leak
match-leak-kinds: possible
fun:_Znam
fun:_ZN7TString4InitEii
fun:_ZN7TStringC1EPKc
fun:_ZN6TClassC1EPKcsRKSt9type_infoP16TVirtualIsAProxyPFvPvR16TMemberInspectorES1_S1_iib
fun:_ZN7TQClassC1EPKcsRKSt9type_infoP16TVirtualIsAProxyPFvPvR16TMemberInspectorES1_S1_ii
fun:_ZNK4ROOT20TQObjectInitBehavior11CreateClassEPKcsRKSt9type_infoP16TVirtualIsAProxyPFvPvR16TMemberInspectorES2_S2_ii
fun:_ZN4ROOT17TGenericClassInfo8GetClassEv
fun:_ZN15TMessageHandler5ClassEv
fun:_ZN8TQObject4EmitEPKc
fun:_ZN15TMessageHandler6NotifyEv
fun:_ZN15TMessageHandler13HandleMessageEiPK7TObject
fun:_ZN5TROOT7MessageEiPK7TObject
}
{
root_jets_2
Memcheck:Leak
match-leak-kinds: possible
fun:_Znwm
fun:_ZN5TCint12SetClassInfoEP6TClassb
fun:_ZN6TClass4InitEPKcsPKSt9type_infoP16TVirtualIsAProxyPFvPvR16TMemberInspectorES1_S1_iib
fun:_ZN6TClassC1EPKcsRKSt9type_infoP16TVirtualIsAProxyPFvPvR16TMemberInspectorES1_S1_iib
fun:_ZN7TQClassC1EPKcsRKSt9type_infoP16TVirtualIsAProxyPFvPvR16TMemberInspectorES1_S1_ii
fun:_ZNK4ROOT20TQObjectInitBehavior11CreateClassEPKcsRKSt9type_infoP16TVirtualIsAProxyPFvPvR16TMemberInspectorES2_S2_ii
fun:_ZN4ROOT17TGenericClassInfo8GetClassEv
fun:_ZN8TQObject10DictionaryEv
fun:_ZNK5TROOT9LoadClassEPKcb
fun:_ZN6TClass8GetClassEPKcbb
fun:_ZN10TBaseClass15GetClassPointerEb
fun:_ZN8TQObject23CollectClassSignalListsER5TListP6TClass
}
{
root_jets_3
Memcheck:Leak
match-leak-kinds: possible
fun:_Znwm
fun:_ZN5TCint12SetClassInfoEP6TClassb
fun:_ZN6TClass4InitEPKcsPKSt9type_infoP16TVirtualIsAProxyPFvPvR16TMemberInspectorES1_S1_iib
fun:_ZN6TClassC1EPKcsRKSt9type_infoP16TVirtualIsAProxyPFvPvR16TMemberInspectorES1_S1_iib
fun:_ZN7TQClassC1EPKcsRKSt9type_infoP16TVirtualIsAProxyPFvPvR16TMemberInspectorES1_S1_ii
fun:_ZNK4ROOT20TQObjectInitBehavior11CreateClassEPKcsRKSt9type_infoP16TVirtualIsAProxyPFvPvR16TMemberInspectorES2_S2_ii
fun:_ZN4ROOT17TGenericClassInfo8GetClassEv
fun:_ZN15TMessageHandler5ClassEv
fun:_ZN8TQObject4EmitEPKc
fun:_ZN15TMessageHandler6NotifyEv
fun:_ZN15TMessageHandler13HandleMessageEiPK7TObject
fun:_ZN5TROOT7MessageEiPK7TObject
}
{
root_jets_4
Memcheck:Leak
match-leak-kinds: possible
fun:_Znwm
fun:_ZN5TCint12SetClassInfoEP6TClassb
fun:_ZN6TClass4InitEPKcsPKSt9type_infoP16TVirtualIsAProxyPFvPvR16TMemberInspectorES1_S1_iib
fun:_ZN6TClassC1EPKcsRKSt9type_infoP16TVirtualIsAProxyPFvPvR16TMemberInspectorES1_S1_iib
fun:_ZN7TQClassC1EPKcsRKSt9type_infoP16TVirtualIsAProxyPFvPvR16TMemberInspectorES1_S1_ii
fun:_ZNK4ROOT20TQObjectInitBehavior11CreateClassEPKcsRKSt9type_infoP16TVirtualIsAProxyPFvPvR16TMemberInspectorES2_S2_ii
fun:_ZN4ROOT17TGenericClassInfo8GetClassEv
fun:_ZN12TApplication10DictionaryEv
fun:_ZNK5TROOT9LoadClassEPKcb
fun:_ZN6TClass8GetClassEPKcbb
fun:_ZN10TBaseClass15GetClassPointerEb
fun:_ZN8TQObject23CollectClassSignalListsER5TListP6TClass
}
{
root_jets_5
Memcheck:Leak
match-leak-kinds: definite
fun:_Znwm
fun:_ZL19G__G__Base2_15_0_33P8G__valuePKcP8G__parami
fun:_ZN4Cint19G__ExceptionWrapperEPFiP8G__valuePKcP8G__paramiES1_PcS5_i
fun:G__exec_asm
fun:_ZL12G__exec_loopPKcPcRKSt4listI18G__FastAllocStringSaIS3_EE.constprop.42
fun:G__exec_statement
fun:G__interpret_func
fun:G__getfunction
fun:G__getitem
fun:G__getexpr
fun:G__calc_internal
fun:G__process_cmd
}
{
root_jets_6
Memcheck:Leak
match-leak-kinds: possible
fun:_Znwm
fun:_ZNSs4_Rep9_S_createEmmRKSaIcE
fun:_ZNSs12_S_constructIPKcEEPcT_S3_RKSaIcESt20forward_iterator_tag
fun:_ZNSsC1EPKcRKSaIcE
fun:_ZN6TClass8AddClassEPS_
fun:_ZN6TClass4InitEPKcsPKSt9type_infoP16TVirtualIsAProxyPFvPvR16TMemberInspectorES1_S1_iib
fun:_ZN6TClassC1EPKcsRKSt9type_infoP16TVirtualIsAProxyPFvPvR16TMemberInspectorES1_S1_iib
fun:_ZN4ROOT11CreateClassEPKcsRKSt9type_infoP16TVirtualIsAProxyPFvPvR16TMemberInspectorES1_S1_ii
fun:_ZN4ROOT17TGenericClassInfo8GetClassEv
fun:_ZNK5TROOT9LoadClassEPKcb
fun:_ZN6TClass8GetClassEPKcbb
fun:_ZN5TROOT13IgnoreIncludeEPKcS1_
}
{
root_jets_7
Memcheck:Leak
match-leak-kinds: possible
fun:_Znwm
fun:_ZNSs4_Rep9_S_createEmmRKSaIcE
fun:_ZNSs12_S_constructIPKcEEPcT_S3_RKSaIcESt20forward_iterator_tag
fun:_ZNSsC1EPKcRKSaIcE
fun:_ZN6TClass8AddClassEPS_
fun:_ZN6TClass4InitEPKcsPKSt9type_infoP16TVirtualIsAProxyPFvPvR16TMemberInspectorES1_S1_iib
fun:_ZN6TClassC1EPKcsRKSt9type_infoP16TVirtualIsAProxyPFvPvR16TMemberInspectorES1_S1_iib
fun:_ZN4ROOT11CreateClassEPKcsRKSt9type_infoP16TVirtualIsAProxyPFvPvR16TMemberInspectorES1_S1_ii
fun:_ZN4ROOT17TGenericClassInfo8GetClassEv
fun:_ZN3TH110DictionaryEv
fun:_ZNK5TROOT9LoadClassEPKcb
fun:_ZN6TClass8GetClassEPKcbb
}
{
root_jets_8
Memcheck:Leak
match-leak-kinds: possible
fun:_Znwm
fun:_ZNSs4_Rep9_S_createEmmRKSaIcE
fun:_ZNSs12_S_constructIPKcEEPcT_S3_RKSaIcESt20forward_iterator_tag
fun:_ZNSsC1EPKcRKSaIcE
fun:_ZN6TClass8AddClassEPS_
fun:_ZN6TClass4InitEPKcsPKSt9type_infoP16TVirtualIsAProxyPFvPvR16TMemberInspectorES1_S1_iib
fun:_ZN6TClassC1EPKcsRKSt9type_infoP16TVirtualIsAProxyPFvPvR16TMemberInspectorES1_S1_iib
fun:_ZN4ROOT11CreateClassEPKcsRKSt9type_infoP16TVirtualIsAProxyPFvPvR16TMemberInspectorES1_S1_ii
fun:_ZN4ROOT17TGenericClassInfo8GetClassEv
fun:_ZN3TH210DictionaryEv
fun:_ZNK5TROOT9LoadClassEPKcb
fun:_ZN6TClass8GetClassEPKcbb
}
{
root_jets_9
Memcheck:Leak
match-leak-kinds: possible
fun:_Znwm
fun:_ZNSs4_Rep9_S_createEmmRKSaIcE
fun:_ZNSs12_S_constructIPKcEEPcT_S3_RKSaIcESt20forward_iterator_tag
fun:_ZNSsC1EPKcRKSaIcE
fun:_ZN6TClass8AddClassEPS_
fun:_ZN6TClass4InitEPKcsPKSt9type_infoP16TVirtualIsAProxyPFvPvR16TMemberInspectorES1_S1_iib
fun:_ZN6TClassC1EPKcsRKSt9type_infoP16TVirtualIsAProxyPFvPvR16TMemberInspectorES1_S1_iib
fun:_ZN4ROOT11CreateClassEPKcsRKSt9type_infoP16TVirtualIsAProxyPFvPvR16TMemberInspectorES1_S1_ii
fun:_ZN4ROOT17TGenericClassInfo8GetClassEv
fun:_ZN3TF110DictionaryEv
fun:_ZNK5TROOT9LoadClassEPKcb
fun:_ZN6TClass8GetClassEPKcbb
}
{
root_jets_10
Memcheck:Leak
match-leak-kinds: possible
fun:_Znwm
fun:_ZNSs4_Rep9_S_createEmmRKSaIcE
fun:_ZNSs12_S_constructIPKcEEPcT_S3_RKSaIcESt20forward_iterator_tag
fun:_ZNSsC1EPKcRKSaIcE
fun:_ZN9TClassRefC1EPKc
fun:_ZN11TTreePlayerC1Ev
fun:_ZN4ROOTL15new_TTreePlayerEPv
fun:_ZNK6TClass3NewENS_8ENewTypeE
fun:_ZN18TVirtualTreePlayer10TreePlayerEP5TTree
fun:_ZN5TTree9GetPlayerEv
fun:_ZN5TTree7ProcessEP9TSelectorPKcxx
fun:_ZN18AliAnalysisManager13StartAnalysisEPKcP5TTreexx
}
{
root_jets_11
Memcheck:Leak
match-leak-kinds: possible
fun:_Znwm
fun:_ZNSs4_Rep9_S_createEmmRKSaIcE
fun:_ZNSs12_S_constructIPKcEEPcT_S3_RKSaIcESt20forward_iterator_tag
fun:_ZNSsC1EPKcRKSaIcE
fun:_ZN6TClass8AddClassEPS_
fun:_ZN6TClass4InitEPKcsPKSt9type_infoP16TVirtualIsAProxyPFvPvR16TMemberInspectorES1_S1_iib
fun:_ZN6TClassC1EPKcsRKSt9type_infoP16TVirtualIsAProxyPFvPvR16TMemberInspectorES1_S1_iib
fun:_ZN4ROOT11CreateClassEPKcsRKSt9type_infoP16TVirtualIsAProxyPFvPvR16TMemberInspectorES1_S1_ii
fun:_ZN4ROOT17TGenericClassInfo8GetClassEv
fun:_ZN4TH1D10DictionaryEv
fun:_ZNK5TROOT9LoadClassEPKcb
fun:_ZN6TClass8GetClassEPKcbb
}
{
root_jets_12
Memcheck:Leak
match-leak-kinds: possible
fun:_Znwm
fun:_ZNSs4_Rep9_S_createEmmRKSaIcE
fun:_ZNSs12_S_constructIPKcEEPcT_S3_RKSaIcESt20forward_iterator_tag
fun:_ZNSsC1EPKcRKSaIcE
fun:_ZN6TClass8AddClassEPS_
fun:_ZN6TClass4InitEPKcsPKSt9type_infoP16TVirtualIsAProxyPFvPvR16TMemberInspectorES1_S1_iib
fun:_ZN6TClassC1EPKcsRKSt9type_infoP16TVirtualIsAProxyPFvPvR16TMemberInspectorES1_S1_iib
fun:_ZN4ROOT11CreateClassEPKcsRKSt9type_infoP16TVirtualIsAProxyPFvPvR16TMemberInspectorES1_S1_ii
fun:_ZN4ROOT17TGenericClassInfo8GetClassEv
fun:_ZN4TH2D10DictionaryEv
fun:_ZNK5TROOT9LoadClassEPKcb
fun:_ZN6TClass8GetClassEPKcbb
}
{
root_jets_13
Memcheck:Leak
match-leak-kinds: possible
fun:_Znwm
fun:_ZNSs4_Rep9_S_createEmmRKSaIcE
fun:_ZNSs12_S_constructIPKcEEPcT_S3_RKSaIcESt20forward_iterator_tag
fun:_ZNSsC1EPKcRKSaIcE
fun:_ZN6TClass8AddClassEPS_
fun:_ZN6TClass4InitEPKcsPKSt9type_infoP16TVirtualIsAProxyPFvPvR16TMemberInspectorES1_S1_iib
fun:_ZN6TClassC1EPKcsRKSt9type_infoP16TVirtualIsAProxyPFvPvR16TMemberInspectorES1_S1_iib
fun:_ZN4ROOT11CreateClassEPKcsRKSt9type_infoP16TVirtualIsAProxyPFvPvR16TMemberInspectorES1_S1_ii
fun:_ZN4ROOT17TGenericClassInfo8GetClassEv
fun:_ZN4TRef10DictionaryEv
fun:_ZNK5TROOT9LoadClassEPKcb
fun:_ZN6TClass8GetClassEPKcbb
}
{
root_jets_14
Memcheck:Leak
match-leak-kinds: possible
fun:_Znwm
fun:_ZNSs4_Rep9_S_createEmmRKSaIcE
fun:_ZNSs12_S_constructIPKcEEPcT_S3_RKSaIcESt20forward_iterator_tag
fun:_ZNSsC1EPKcRKSaIcE
fun:_ZN6TClass8AddClassEPS_
fun:_ZN6TClass4InitEPKcsPKSt9type_infoP16TVirtualIsAProxyPFvPvR16TMemberInspectorES1_S1_iib
fun:_ZN6TClassC1EPKcsRKSt9type_infoP16TVirtualIsAProxyPFvPvR16TMemberInspectorES1_S1_iib
fun:_ZN4ROOT11CreateClassEPKcsRKSt9type_infoP16TVirtualIsAProxyPFvPvR16TMemberInspectorES1_S1_ii
fun:_ZN4ROOT17TGenericClassInfo8GetClassEv
fun:_ZN4TH2F10DictionaryEv
fun:_ZNK5TROOT9LoadClassEPKcb
fun:_ZN6TClass8GetClassEPKcbb
}
{
root_jets_15
Memcheck:Leak
match-leak-kinds: possible
fun:_Znwm
fun:_ZNSs4_Rep9_S_createEmmRKSaIcE
fun:_ZNSs9_M_mutateEmmm
fun:_ZNSs15_M_replace_safeEmmPKcm
fun:_ZN9TClassRef6AssignEP6TClass
fun:_ZN4ROOT14TSchemaRuleSet8SetClassEP6TClass
fun:_ZN6TClass14GetSchemaRulesEb
fun:_ZN4ROOT17TGenericClassInfo13CreateRuleSetERSt6vectorINS_13TSchemaHelperESaIS2_EEb
fun:_ZN4ROOT17TGenericClassInfo8GetClassEv
fun:_ZN5TTree10DictionaryEv
fun:_ZNK5TROOT9LoadClassEPKcb
fun:_ZN6TClass8GetClassEPKcbb
}
{
root_jets_16
Memcheck:Leak
match-leak-kinds: possible
fun:_Znwm
fun:_ZNSs4_Rep9_S_createEmmRKSaIcE
fun:_ZNSs12_S_constructIPKcEEPcT_S3_RKSaIcESt20forward_iterator_tag
fun:_ZNSsC1EPKcRKSaIcE
fun:_ZN6TClass8AddClassEPS_
fun:_ZN6TClass4InitEPKcsPKSt9type_infoP16TVirtualIsAProxyPFvPvR16TMemberInspectorES1_S1_iib
fun:_ZN6TClassC1EPKcsRKSt9type_infoP16TVirtualIsAProxyPFvPvR16TMemberInspectorES1_S1_iib
fun:_ZN4ROOT11CreateClassEPKcsRKSt9type_infoP16TVirtualIsAProxyPFvPvR16TMemberInspectorES1_S1_ii
fun:_ZN4ROOT17TGenericClassInfo8GetClassEv
fun:_ZN4TH1F10DictionaryEv
fun:_ZNK5TROOT9LoadClassEPKcb
fun:_ZN6TClass8GetClassEPKcbb
}
{
root_jets_17
Memcheck:Leak
match-leak-kinds: possible
fun:_Znwm
fun:_ZNSs4_Rep9_S_createEmmRKSaIcE
fun:_ZNSs12_S_constructIPKcEEPcT_S3_RKSaIcESt20forward_iterator_tag
fun:_ZNSsC1EPKcRKSaIcE
fun:_ZN6TClass8AddClassEPS_
fun:_ZN6TClass4InitEPKcsPKSt9type_infoP16TVirtualIsAProxyPFvPvR16TMemberInspectorES1_S1_iib
fun:_ZN6TClassC1EPKcsRKSt9type_infoP16TVirtualIsAProxyPFvPvR16TMemberInspectorES1_S1_iib
fun:_ZN4ROOT11CreateClassEPKcsRKSt9type_infoP16TVirtualIsAProxyPFvPvR16TMemberInspectorES1_S1_ii
fun:_ZN4ROOT17TGenericClassInfo8GetClassEv
fun:_ZN4TH1I10DictionaryEv
fun:_ZNK5TROOT9LoadClassEPKcb
fun:_ZN6TClass8GetClassEPKcbb
}
{
root_jets_18
Memcheck:Leak
match-leak-kinds: possible
fun:_Znwm
fun:_ZNSs4_Rep9_S_createEmmRKSaIcE
fun:_ZNSs12_S_constructIPKcEEPcT_S3_RKSaIcESt20forward_iterator_tag
fun:_ZNSsC1EPKcRKSaIcE
fun:_ZN6TClass8AddClassEPS_
fun:_ZN6TClass4InitEPKcsPKSt9type_infoP16TVirtualIsAProxyPFvPvR16TMemberInspectorES1_S1_iib
fun:_ZN6TClassC1EPKcsRKSt9type_infoP16TVirtualIsAProxyPFvPvR16TMemberInspectorES1_S1_iib
fun:_ZN4ROOT11CreateClassEPKcsRKSt9type_infoP16TVirtualIsAProxyPFvPvR16TMemberInspectorES1_S1_ii
fun:_ZN4ROOT17TGenericClassInfo8GetClassEv
fun:_ZN4TH2I10DictionaryEv
fun:_ZNK5TROOT9LoadClassEPKcb
fun:_ZN6TClass8GetClassEPKcbb
}
{
root_jets_19
Memcheck:Leak
match-leak-kinds: possible
fun:_Znwm
fun:_ZNSs4_Rep9_S_createEmmRKSaIcE
fun:_ZNSs12_S_constructIPKcEEPcT_S3_RKSaIcESt20forward_iterator_tag
fun:_ZNSsC1EPKcRKSaIcE
fun:_ZN6TClass8AddClassEPS_
fun:_ZN6TClass4InitEPKcsPKSt9type_infoP16TVirtualIsAProxyPFvPvR16TMemberInspectorES1_S1_iib
fun:_ZN6TClassC1EPKcsRKSt9type_infoP16TVirtualIsAProxyPFvPvR16TMemberInspectorES1_S1_iib
fun:_ZN4ROOT11CreateClassEPKcsRKSt9type_infoP16TVirtualIsAProxyPFvPvR16TMemberInspectorES1_S1_ii
fun:_ZN4ROOT17TGenericClassInfo8GetClassEv
fun:_ZN4TKey10DictionaryEv
fun:_ZNK5TROOT9LoadClassEPKcb
fun:_ZN6TClass8GetClassEPKcbb
}
{
root_jets_20
Memcheck:Leak
match-leak-kinds: possible
fun:_Znwm
fun:_ZNSs4_Rep9_S_createEmmRKSaIcE
fun:_ZNSs12_S_constructIPKcEEPcT_S3_RKSaIcESt20forward_iterator_tag
fun:_ZNSsC1EPKcRKSaIcE
fun:_ZN6TClass8AddClassEPS_
fun:_ZN6TClass4InitEPKcsPKSt9type_infoP16TVirtualIsAProxyPFvPvR16TMemberInspectorES1_S1_iib
fun:_ZN6TClassC1EPKcsRKSt9type_infoP16TVirtualIsAProxyPFvPvR16TMemberInspectorES1_S1_iib
fun:_ZN4ROOT11CreateClassEPKcsRKSt9type_infoP16TVirtualIsAProxyPFvPvR16TMemberInspectorES1_S1_ii
fun:_ZN4ROOT17TGenericClassInfo8GetClassEv
fun:_ZN5TList10DictionaryEv
fun:_ZNK5TROOT9LoadClassEPKcb
fun:_ZN6TClass8GetClassEPKcbb
}
{
root_jets_21
Memcheck:Leak
match-leak-kinds: possible
fun:_Znwm
fun:_ZNSs4_Rep9_S_createEmmRKSaIcE
fun:_ZNSs9_M_mutateEmmm
fun:_ZNSs15_M_replace_safeEmmPKcm
fun:_ZN9TClassRef6AssignEP6TClass
fun:_ZN10TBaseClass15GetClassPointerEb
fun:_ZN6TClass12GetBaseClassEPKS_
fun:_ZN6TClass12GetBaseClassEPKS_
fun:_ZNK6TClass12InheritsFromEPKS_
fun:_ZNK6TClass8PropertyEv
fun:_ZNK6TClass9IsForeignEv
fun:_ZN6TClass13PostLoadCheckEv
}
{
root_jets_22
Memcheck:Leak
match-leak-kinds: possible
fun:_Znwm
fun:_ZNSs4_Rep9_S_createEmmRKSaIcE
fun:_ZNSs12_S_constructIPKcEEPcT_S3_RKSaIcESt20forward_iterator_tag
fun:_ZNSsC1EPKcRKSaIcE
fun:_ZN6TClass8AddClassEPS_
fun:_ZN6TClass4InitEPKcsPKSt9type_infoP16TVirtualIsAProxyPFvPvR16TMemberInspectorES1_S1_iib
fun:_ZN6TClassC1EPKcsRKSt9type_infoP16TVirtualIsAProxyPFvPvR16TMemberInspectorES1_S1_iib
fun:_ZN4ROOT11CreateClassEPKcsRKSt9type_infoP16TVirtualIsAProxyPFvPvR16TMemberInspectorES1_S1_ii
fun:_ZN4ROOT17TGenericClassInfo8GetClassEv
fun:_ZN5TAxis10DictionaryEv
fun:_ZNK5TROOT9LoadClassEPKcb
fun:_ZN6TClass8GetClassEPKcbb
}
{
root_jets_23
Memcheck:Leak
match-leak-kinds: possible
fun:_Znwm
fun:_ZNSs4_Rep9_S_createEmmRKSaIcE
fun:_ZNSs12_S_constructIPKcEEPcT_S3_RKSaIcESt20forward_iterator_tag
fun:_ZNSsC1EPKcRKSaIcE
fun:_ZN6TClass8AddClassEPS_
fun:_ZN6TClass4InitEPKcsPKSt9type_infoP16TVirtualIsAProxyPFvPvR16TMemberInspectorES1_S1_iib
fun:_ZN6TClassC1EPKcsRKSt9type_infoP16TVirtualIsAProxyPFvPvR16TMemberInspectorES1_S1_iib
fun:_ZN4ROOT11CreateClassEPKcsRKSt9type_infoP16TVirtualIsAProxyPFvPvR16TMemberInspectorES1_S1_ii
fun:_ZN4ROOT17TGenericClassInfo8GetClassEv
fun:_ZN5TBits10DictionaryEv
fun:_ZNK5TROOT9LoadClassEPKcb
fun:_ZN6TClass8GetClassEPKcbb
}
{
root_jets_24
Memcheck:Leak
match-leak-kinds: possible
fun:_Znwm
fun:_ZNSs4_Rep9_S_createEmmRKSaIcE
fun:_ZNSs12_S_constructIPKcEEPcT_S3_RKSaIcESt20forward_iterator_tag
fun:_ZNSsC1EPKcRKSaIcE
fun:_ZN6TClass8AddClassEPS_
fun:_ZN6TClass4InitEPKcsPKSt9type_infoP16TVirtualIsAProxyPFvPvR16TMemberInspectorES1_S1_iib
fun:_ZN6TClassC1EPKcsRKSt9type_infoP16TVirtualIsAProxyPFvPvR16TMemberInspectorES1_S1_iib
fun:_ZN4ROOT11CreateClassEPKcsRKSt9type_infoP16TVirtualIsAProxyPFvPvR16TMemberInspectorES1_S1_ii
fun:_ZN4ROOT17TGenericClassInfo8GetClassEv
fun:_ZN5TTree10DictionaryEv
fun:_ZNK5TROOT9LoadClassEPKcb
fun:_ZN6TClass8GetClassEPKcbb
}
{
root_jets_25
Memcheck:Leak
match-leak-kinds: possible
fun:_Znwm
fun:_ZNSs4_Rep9_S_createEmmRKSaIcE
fun:_ZNSs12_S_constructIPKcEEPcT_S3_RKSaIcESt20forward_iterator_tag
fun:_ZNSsC1EPKcRKSaIcE
fun:_ZN6TClass8AddClassEPS_
fun:_ZN6TClass4InitEPKcsPKSt9type_infoP16TVirtualIsAProxyPFvPvR16TMemberInspectorES1_S1_iib
fun:_ZN6TClassC1EPKcsRKSt9type_infoP16TVirtualIsAProxyPFvPvR16TMemberInspectorES1_S1_iib
fun:_ZN4ROOT11CreateClassEPKcsRKSt9type_infoP16TVirtualIsAProxyPFvPvR16TMemberInspectorES1_S1_ii
fun:_ZN4ROOT17TGenericClassInfo8GetClassEv
fun:_ZN5TLeaf10DictionaryEv
fun:_ZNK5TROOT9LoadClassEPKcb
fun:_ZN6TClass8GetClassEPKcbb
}
{
root_jets_26
Memcheck:Leak
match-leak-kinds: possible
fun:_Znwm
fun:_ZNSs4_Rep9_S_createEmmRKSaIcE
fun:_ZNSs9_M_mutateEmmm
fun:_ZNSs15_M_replace_safeEmmPKcm
fun:_ZN9TClassRef6AssignEP6TClass
fun:_ZN19TGenCollectionProxy5ValueC1ERKSsb
fun:_ZL14R__CreateValueRKSsb
fun:_ZN19TGenCollectionProxy12InitializeExEb
fun:_ZNK19TGenCollectionProxy13GetValueClassEv
fun:_ZN14TBuildRealData7InspectEP6TClassPKcS3_PKv
fun:_ZN9TRefTable11ShowMembersER16TMemberInspector
fun:_ZNK6TClass15CallShowMembersEPvR16TMemberInspectori
}
{
root_jets_27
Memcheck:Leak
match-leak-kinds: possible
fun:_Znwm
fun:_ZNSs4_Rep9_S_createEmmRKSaIcE
fun:_ZNSs9_M_mutateEmmm
fun:_ZNSs15_M_replace_safeEmmPKcm
fun:_ZN9TClassRef6AssignEP6TClass
fun:_ZN19TGenCollectionProxy5ValueC1ERKSsb
fun:_ZL14R__CreateValueRKSsb
fun:_ZN19TGenCollectionProxy12InitializeExEb
fun:_ZN22TGenCollectionStreamer17ReadBufferDefaultER7TBufferPvPK6TClass
fun:_ZN11TBufferFile13ReadFastArrayEPvPK6TClassiP15TMemberStreamerS3_
fun:_ZN20TStreamerInfoActions7ReadSTLIXadL_ZNS_26ReadSTLMemberWiseSameClassER7TBufferPvPKNS_14TConfigurationEsEEXadL_ZNS_26ReadSTLObjectWiseFastArrayES2_S3_S6_sjEEEEiS2_S3_S6_
fun:_ZN11TBufferFile13ApplySequenceERKN20TStreamerInfoActions15TActionSequenceEPv
}
{
root_jets_28
Memcheck:Leak
match-leak-kinds: possible
fun:_Znwm
fun:_ZNSs4_Rep9_S_createEmmRKSaIcE
fun:_ZNSs12_S_constructIPKcEEPcT_S3_RKSaIcESt20forward_iterator_tag
fun:_ZNSsC1EPKcRKSaIcE
fun:_ZN6TClass8AddClassEPS_
fun:_ZN6TClass4InitEPKcsPKSt9type_infoP16TVirtualIsAProxyPFvPvR16TMemberInspectorES1_S1_iib
fun:_ZN6TClassC1EPKcsRKSt9type_infoP16TVirtualIsAProxyPFvPvR16TMemberInspectorES1_S1_iib
fun:_ZN7TQClassC1EPKcsRKSt9type_infoP16TVirtualIsAProxyPFvPvR16TMemberInspectorES1_S1_ii
fun:_ZNK4ROOT20TQObjectInitBehavior11CreateClassEPKcsRKSt9type_infoP16TVirtualIsAProxyPFvPvR16TMemberInspectorES2_S2_ii
fun:_ZN4ROOT17TGenericClassInfo8GetClassEv
fun:_ZN5TRint5ClassEv
fun:_ZN8TQObject4EmitEPKcl
}
{
root_jets_29
Memcheck:Leak
match-leak-kinds: possible
fun:_Znam
fun:_ZN7TString7ReplaceEiiPKci
fun:_ZN6TNamed8SetTitleEPKc
fun:_ZN6TClass4InitEPKcsPKSt9type_infoP16TVirtualIsAProxyPFvPvR16TMemberInspectorES1_S1_iib
fun:_ZN6TClassC1EPKcsRKSt9type_infoP16TVirtualIsAProxyPFvPvR16TMemberInspectorES1_S1_iib
fun:_ZN7TQClassC1EPKcsRKSt9type_infoP16TVirtualIsAProxyPFvPvR16TMemberInspectorES1_S1_ii
fun:_ZNK4ROOT20TQObjectInitBehavior11CreateClassEPKcsRKSt9type_infoP16TVirtualIsAProxyPFvPvR16TMemberInspectorES2_S2_ii
fun:_ZN4ROOT17TGenericClassInfo8GetClassEv
fun:_ZN14TSignalHandler5ClassEv
fun:_ZN8TQObject4EmitEPKc
fun:_ZN5TRintC1EPKcPiPPcPvib
fun:main
}
{
root_jets_30
Memcheck:Leak
match-leak-kinds: possible
fun:_Znwm
fun:_ZN5TList7NewLinkEP7TObjectP8TObjLink
fun:_ZN5TList7AddLastEP7TObject
fun:_ZN5TCint23CreateListOfBaseClassesEP6TClass
fun:_ZN6TClass14GetListOfBasesEv
fun:_ZN8TQObject23CollectClassSignalListsER5TListP6TClass
fun:_ZN8TQObject4EmitEPKc
fun:_ZN5TRintC1EPKcPiPPcPvib
fun:main
}
{
root_jets_31
Memcheck:Leak
match-leak-kinds: possible
fun:_Znam
fun:_ZN7TString7ReplaceEiiPKci
fun:_ZN6TNamed8SetTitleEPKc
fun:_ZN6TClass4InitEPKcsPKSt9type_infoP16TVirtualIsAProxyPFvPvR16TMemberInspectorES1_S1_iib
fun:_ZN6TClassC1EPKcsRKSt9type_infoP16TVirtualIsAProxyPFvPvR16TMemberInspectorES1_S1_iib
fun:_ZN7TQClassC1EPKcsRKSt9type_infoP16TVirtualIsAProxyPFvPvR16TMemberInspectorES1_S1_ii
fun:_ZNK4ROOT20TQObjectInitBehavior11CreateClassEPKcsRKSt9type_infoP16TVirtualIsAProxyPFvPvR16TMemberInspectorES2_S2_ii
fun:_ZN4ROOT17TGenericClassInfo8GetClassEv
fun:_ZN14TSysEvtHandler10DictionaryEv
fun:_ZNK5TROOT9LoadClassEPKcb
fun:_ZN6TClass8GetClassEPKcbb
fun:_ZN10TBaseClass15GetClassPointerEb
}
{
root_jets_32
Memcheck:Leak
match-leak-kinds: possible
fun:_Znwm
fun:_ZN5TList7NewLinkEP7TObjectP8TObjLink
fun:_ZN5TList7AddLastEP7TObject
fun:_ZN5TCint23CreateListOfBaseClassesEP6TClass
fun:_ZN6TClass14GetListOfBasesEv
fun:_ZN8TQObject23CollectClassSignalListsER5TListP6TClass
fun:_ZN8TQObject4EmitEPKc
fun:_ZN5TRintC1EPKcPiPPcPvib
fun:main
}
{
root_jets_33
Memcheck:Leak
match-leak-kinds: possible
fun:_Znwm
fun:_ZNSs4_Rep9_S_createEmmRKSaIcE
fun:_ZNSs12_S_constructIPKcEEPcT_S3_RKSaIcESt20forward_iterator_tag
fun:_ZNSsC1EPKcRKSaIcE
fun:_ZN6TClass8AddClassEPS_
fun:_ZN6TClass4InitEPKcsPKSt9type_infoP16TVirtualIsAProxyPFvPvR16TMemberInspectorES1_S1_iib
fun:_ZN6TClassC1EPKcsRKSt9type_infoP16TVirtualIsAProxyPFvPvR16TMemberInspectorES1_S1_iib
fun:_ZN4ROOT11CreateClassEPKcsRKSt9type_infoP16TVirtualIsAProxyPFvPvR16TMemberInspectorES1_S1_ii
fun:_ZN4ROOT17TGenericClassInfo8GetClassEv
fun:_ZN6TNamed10DictionaryEv
fun:_ZNK5TROOT9LoadClassEPKcb
fun:_ZN6TClass8GetClassEPKcbb
}
{
root_jets_34
Memcheck:Leak
match-leak-kinds: possible
fun:_Znwm
fun:_ZNSs4_Rep9_S_createEmmRKSaIcE
fun:_ZNSs12_S_constructIPKcEEPcT_S3_RKSaIcESt20forward_iterator_tag
fun:_ZNSsC1EPKcRKSaIcE
fun:_ZN6TClass8AddClassEPS_
fun:_ZN6TClass4InitEPKcsPKSt9type_infoP16TVirtualIsAProxyPFvPvR16TMemberInspectorES1_S1_iib
fun:_ZN6TClassC1EPKcsRKSt9type_infoP16TVirtualIsAProxyPFvPvR16TMemberInspectorES1_S1_iib
fun:_ZN4ROOT11CreateClassEPKcsRKSt9type_infoP16TVirtualIsAProxyPFvPvR16TMemberInspectorES1_S1_ii
fun:_ZN4ROOT17TGenericClassInfo8GetClassEv
fun:_ZN6TClass5ClassEv
fun:_ZN11TBufferFile9MapObjectEPK7TObjectj
fun:_ZN11TBufferFile9ReadClassEPK6TClassPj
}
{
root_jets_35
Memcheck:Leak
match-leak-kinds: possible
fun:_Znwm
fun:_ZNSs4_Rep9_S_createEmmRKSaIcE
fun:_ZNSs9_M_mutateEmmm
fun:_ZNSs15_M_replace_safeEmmPKcm
fun:_ZN9TClassRef6AssignEP6TClass
fun:_ZN10TBaseClass15GetClassPointerEb
fun:_ZN6TClass12GetBaseClassEPKS_
fun:_ZNK6TClass12InheritsFromEPKS_
fun:_ZN11TBufferFile9ReadClassEPK6TClassPj
fun:_ZN11TBufferFile13ReadObjectAnyEPK6TClass
fun:_ZrsI7TObjectER7TBufferS2_RPT_
fun:_ZN5TList8StreamerER7TBuffer
}
{
root_jets_36
Memcheck:Leak
match-leak-kinds: possible
fun:_Znwm
fun:_ZNSs4_Rep9_S_createEmmRKSaIcE
fun:_ZNSs12_S_constructIPKcEEPcT_S3_RKSaIcESt20forward_iterator_tag
fun:_ZNSsC1EPKcRKSaIcE
fun:_ZN6TClass8AddClassEPS_
fun:_ZN6TClass4InitEPKcsPKSt9type_infoP16TVirtualIsAProxyPFvPvR16TMemberInspectorES1_S1_iib
fun:_ZN6TClassC1EPKcsRKSt9type_infoP16TVirtualIsAProxyPFvPvR16TMemberInspectorES1_S1_iib
fun:_ZN4ROOT11CreateClassEPKcsRKSt9type_infoP16TVirtualIsAProxyPFvPvR16TMemberInspectorES1_S1_ii
fun:_ZN4ROOT17TGenericClassInfo8GetClassEv
fun:_ZN6TArray10DictionaryEv
fun:_ZNK5TROOT9LoadClassEPKcb
fun:_ZN6TClass8GetClassEPKcbb
}
{
root_jets_37
Memcheck:Leak
match-leak-kinds: possible
fun:_Znwm
fun:_ZNSs4_Rep9_S_createEmmRKSaIcE
fun:_ZNSs9_M_mutateEmmm
fun:_ZNSs15_M_replace_safeEmmPKcm
fun:_ZN9TClassRef6AssignEP6TClass
fun:_ZN10TBaseClass15GetClassPointerEb
fun:_ZN6TClass12GetBaseClassEPKS_
fun:_ZNK6TClass12InheritsFromEPKS_
fun:_ZN14TBuildRealData7InspectEP6TClassPKcS3_PKv
fun:_ZN5TAxis11ShowMembersER16TMemberInspector
fun:_ZN3TH111ShowMembersER16TMemberInspector
fun:_ZN4TH1F11ShowMembersER16TMemberInspector
}
{
root_jets_38
Memcheck:Leak
match-leak-kinds: possible
fun:_Znam
fun:_ZN7TString7ReplaceEiiPKci
fun:_ZN13TStreamerInfo7CompileEv
fun:_ZN13TStreamerInfo8BuildOldEv
fun:_ZNK6TClass15GetStreamerInfoEi
fun:_ZN13TStreamerInfo8BuildOldEv
fun:_ZN11TBufferFile15ReadClassBufferEPK6TClassPvS2_
fun:_ZN11TBufferFile13ReadFastArrayEPPvPK6TClassibP15TMemberStreamerS4_
fun:_ZN13TStreamerInfo10ReadBufferIPPcEEiR7TBufferRKT_iiii
fun:_ZN20TStreamerInfoActions17GenericReadActionER7TBufferPvPKNS_14TConfigurationE
fun:_ZN11TBufferFile13ApplySequenceERKN20TStreamerInfoActions15TActionSequenceEPv
fun:_ZN11TBufferFile15ReadClassBufferEPK6TClassPvS2_
}
{
root_jets_39
Memcheck:Leak
match-leak-kinds: possible
fun:_Znwm
fun:_ZNSs4_Rep9_S_createEmmRKSaIcE
fun:_ZNSs9_M_mutateEmmm
fun:_ZNSs15_M_replace_safeEmmPKcm
fun:_ZN9TClassRef6AssignEP6TClass
fun:_ZN10TBaseClass15GetClassPointerEb
fun:_ZN6TClass12GetBaseClassEPKS_
fun:_ZNK6TClass12InheritsFromEPKS_
fun:_ZN14TBuildRealData7InspectEP6TClassPKcS3_PKv
fun:_ZN5TAxis11ShowMembersER16TMemberInspector
fun:_ZN3TH111ShowMembersER16TMemberInspector
fun:_ZN4TH2F11ShowMembersER16TMemberInspector
}
{
root_jets_40
Memcheck:Leak
match-leak-kinds: possible
fun:_Znam
fun:_ZN7TString7ReplaceEiiPKci
fun:_ZN13TStreamerInfo7CompileEv
fun:_ZN13TStreamerInfo8BuildOldEv
fun:_ZN11TBufferFile15ReadClassBufferEPK6TClassPvS2_
fun:_ZN12AliTOFHeader8StreamerER7TBuffer
fun:_ZN11TBufferFile13ReadObjectAnyEPK6TClass
fun:_ZrsI7TObjectER7TBufferS2_RPT_
fun:_ZN5TList8StreamerER7TBuffer
fun:_ZN11TBufferFile13ReadObjectAnyEPK6TClass
fun:_ZN11TBufferFile13ReadFastArrayEPPvPK6TClassibP15TMemberStreamerS4_
fun:_ZN13TStreamerInfo10ReadBufferIPPcEEiR7TBufferRKT_iiii
}
{
root_jets_41
Memcheck:Leak
match-leak-kinds: possible
fun:_Znam
fun:_ZN7TString7ReplaceEiiPKci
fun:_ZN6TNamed8SetTitleEPKc
fun:_ZN6TClass4InitEPKcsPKSt9type_infoP16TVirtualIsAProxyPFvPvR16TMemberInspectorES1_S1_iib
fun:_ZN6TClassC1EPKcsRKSt9type_infoP16TVirtualIsAProxyPFvPvR16TMemberInspectorES1_S1_iib
fun:_ZN7TQClassC1EPKcsRKSt9type_infoP16TVirtualIsAProxyPFvPvR16TMemberInspectorES1_S1_ii
fun:_ZNK4ROOT20TQObjectInitBehavior11CreateClassEPKcsRKSt9type_infoP16TVirtualIsAProxyPFvPvR16TMemberInspectorES2_S2_ii
fun:_ZN4ROOT17TGenericClassInfo8GetClassEv
fun:_ZN15TMessageHandler5ClassEv
fun:_ZN8TQObject4EmitEPKc
fun:_ZN15TMessageHandler6NotifyEv
fun:_ZN15TMessageHandler13HandleMessageEiPK7TObject
}
{
root_jets_42
Memcheck:Leak
match-leak-kinds: possible
fun:_Znwm
fun:_ZN5TList7NewLinkEP7TObjectP8TObjLink
fun:_ZN5TList7AddLastEP7TObject
fun:_ZN5TCint23CreateListOfBaseClassesEP6TClass
fun:_ZN6TClass14GetListOfBasesEv
fun:_ZN8TQObject23CollectClassSignalListsER5TListP6TClass
fun:_ZN8TQObject4EmitEPKc
fun:_ZN15TMessageHandler6NotifyEv
fun:_ZN15TMessageHandler13HandleMessageEiPK7TObject
fun:_ZN5TROOT7MessageEiPK7TObject
fun:_ZNK7TObject5ErrorEPKcS1_z
fun:_ZN11TBufferFile13ReadObjectAnyEPK6TClass
}
{
root_jets_43
Memcheck:Leak
match-leak-kinds: possible
fun:_Znwm
fun:_ZN5TList7NewLinkEP7TObjectP8TObjLink
fun:_ZN5TList7AddLastEP7TObject
fun:_ZN5TCint23CreateListOfBaseClassesEP6TClass
fun:_ZN6TClass14GetListOfBasesEv
fun:_ZN8TQObject23CollectClassSignalListsER5TListP6TClass
fun:_ZN8TQObject4EmitEPKc
fun:_ZN15TMessageHandler6NotifyEv
fun:_ZN15TMessageHandler13HandleMessageEiPK7TObject
fun:_ZN5TROOT7MessageEiPK7TObject
fun:_ZNK7TObject5ErrorEPKcS1_z
fun:_ZN11TBufferFile13ReadObjectAnyEPK6TClass
}
{
root_jets_44
Memcheck:Leak
match-leak-kinds: possible
fun:_Znwm
fun:_ZNSs4_Rep9_S_createEmmRKSaIcE
fun:_ZNSs9_M_mutateEmmm
fun:_ZNSs15_M_replace_safeEmmPKcm
fun:_ZN9TClassRef6AssignEP6TClass
fun:_ZN10TBaseClass15GetClassPointerEb
fun:_ZN6TClass12GetBaseClassEPKS_
fun:_ZNK6TClass12InheritsFromEPKS_
fun:_ZN14TBuildRealData7InspectEP6TClassPKcS3_PKv
fun:_ZN5TAxis11ShowMembersER16TMemberInspector
fun:_ZN3TH111ShowMembersER16TMemberInspector
fun:_ZN4TH2D11ShowMembersER16TMemberInspector
}
{
root_jets_45
Memcheck:Leak
match-leak-kinds: possible
fun:_Znwm
fun:_ZNSs4_Rep9_S_createEmmRKSaIcE
fun:_ZNSs12_S_constructIPKcEEPcT_S3_RKSaIcESt20forward_iterator_tag
fun:_ZNSsC1EPKcRKSaIcE
fun:_ZN6TClass8AddClassEPS_
fun:_ZN6TClass4InitEPKcsPKSt9type_infoP16TVirtualIsAProxyPFvPvR16TMemberInspectorES1_S1_iib
fun:_ZN6TClassC1EPKcsRKSt9type_infoP16TVirtualIsAProxyPFvPvR16TMemberInspectorES1_S1_iib
fun:_ZN4ROOT11CreateClassEPKcsRKSt9type_infoP16TVirtualIsAProxyPFvPvR16TMemberInspectorES1_S1_ii
fun:_ZN4ROOT17TGenericClassInfo8GetClassEv
fun:_ZN6TChain5ClassEv
fun:_ZN18AliAnalysisManager20SetInputEventHandlerEP16AliVEventHandler
fun:_ZL23G__G__ANALYSIS_208_0_80P8G__valuePKcP8G__parami
}
{
root_jets_46
Memcheck:Leak
match-leak-kinds: possible
fun:_Znwm
fun:_ZNSs4_Rep9_S_createEmmRKSaIcE
fun:_ZNSs9_M_mutateEmmm
fun:_ZNSs15_M_replace_safeEmmPKcm
fun:_ZN9TClassRef6AssignEP6TClass
fun:_ZN10TBaseClass15GetClassPointerEb
fun:_ZN6TClass12GetBaseClassEPKS_
fun:_ZNK6TClass12InheritsFromEPKS_
fun:_ZN14TBuildRealData7InspectEP6TClassPKcS3_PKv
fun:_ZN5TAxis11ShowMembersER16TMemberInspector
fun:_ZN3TH111ShowMembersER16TMemberInspector
fun:_ZN4TH1D11ShowMembersER16TMemberInspector
}
{
root_jets_47
Memcheck:Leak
match-leak-kinds: possible
fun:_Znwm
fun:_ZN5TList7NewLinkEP7TObjectP8TObjLink
fun:_ZN5TList7AddLastEP7TObject
fun:_ZN5TCint23CreateListOfBaseClassesEP6TClass
fun:_ZN6TClass14GetListOfBasesEv
fun:_ZN8TQObject23CollectClassSignalListsER5TListP6TClass
fun:_ZN8TQObject4EmitEPKcl
fun:_ZN12TApplication9TerminateEi
fun:_ZN5TRint3RunEb
fun:main
}
{
root_jets_48
Memcheck:Leak
match-leak-kinds: possible
fun:_Znam
fun:_ZN7TString7ReplaceEiiPKci
fun:_ZN6TNamed8SetTitleEPKc
fun:_ZN6TClass4InitEPKcsPKSt9type_infoP16TVirtualIsAProxyPFvPvR16TMemberInspectorES1_S1_iib
fun:_ZN6TClassC1EPKcsRKSt9type_infoP16TVirtualIsAProxyPFvPvR16TMemberInspectorES1_S1_iib
fun:_ZN7TQClassC1EPKcsRKSt9type_infoP16TVirtualIsAProxyPFvPvR16TMemberInspectorES1_S1_ii
fun:_ZNK4ROOT20TQObjectInitBehavior11CreateClassEPKcsRKSt9type_infoP16TVirtualIsAProxyPFvPvR16TMemberInspectorES2_S2_ii
fun:_ZN4ROOT17TGenericClassInfo8GetClassEv
fun:_ZN12TApplication10DictionaryEv
fun:_ZNK5TROOT9LoadClassEPKcb
fun:_ZN6TClass8GetClassEPKcbb
fun:_ZN10TBaseClass15GetClassPointerEb
}
{
root_jets_49
Memcheck:Leak
match-leak-kinds: definite
fun:_Znwm
fun:_ZN8TStorage11ObjectAllocEm
fun:_ZN4TMap3AddEP7TObjectS1_
fun:_ZN5TFile12SetCacheReadEP14TFileCacheReadP7TObjectNS_12ECacheActionE
fun:_ZN14TFileCacheReadC1EP5TFileiP7TObject
fun:_ZN10TTreeCacheC1EP5TTreei
fun:_ZN5TTree12SetCacheSizeEx
fun:_ZN6TChain12SetCacheSizeEx
fun:_ZN18AliAnalysisManager15CreateReadCacheEv
fun:_ZN18AliAnalysisManager4InitEP5TTree
fun:_ZN19AliAnalysisSelector4InitEP5TTree
fun:_ZN11TTreePlayer7ProcessEP9TSelectorPKcxx
}
{
root_jets_50
Memcheck:Leak
match-leak-kinds: possible
fun:_Znwm
fun:_ZNSs4_Rep9_S_createEmmRKSaIcE
fun:_ZNSs12_S_constructIPKcEEPcT_S3_RKSaIcESt20forward_iterator_tag
fun:_ZNSsC1EPKcRKSaIcE
fun:_ZN6TClass8AddClassEPS_
fun:_ZN6TClass4InitEPKcsPKSt9type_infoP16TVirtualIsAProxyPFvPvR16TMemberInspectorES1_S1_iib
fun:_ZN6TClassC1EPKcsRKSt9type_infoP16TVirtualIsAProxyPFvPvR16TMemberInspectorES1_S1_iib
fun:_ZN4ROOT11CreateClassEPKcsRKSt9type_infoP16TVirtualIsAProxyPFvPvR16TMemberInspectorES1_S1_ii
fun:_ZN4ROOT17TGenericClassInfo8GetClassEv
fun:_ZN7TObject5ClassEv
fun:_ZNK6TClass8PropertyEv
fun:_ZNK6TClass9IsForeignEv
}
{
root_jets_51
Memcheck:Leak
match-leak-kinds: possible
fun:_Znwm
fun:_ZNSs4_Rep9_S_createEmmRKSaIcE
fun:_ZNSs9_M_mutateEmmm
fun:_ZNSs15_M_replace_safeEmmPKcm
fun:_ZN9TClassRef6AssignEP6TClass
fun:_ZN10TBaseClass15GetClassPointerEb
fun:_ZN8TQObject23CollectClassSignalListsER5TListP6TClass
fun:_ZN8TQObject23CollectClassSignalListsER5TListP6TClass
fun:_ZN8TQObject4EmitEPKc
fun:_ZN5TRintC1EPKcPiPPcPvib
fun:main
}
{
root_jets_52
Memcheck:Leak
match-leak-kinds: possible
fun:_Znwm
fun:_ZNSs4_Rep9_S_createEmmRKSaIcE
fun:_ZNSs12_S_constructIPKcEEPcT_S3_RKSaIcESt20forward_iterator_tag
fun:_ZNSsC1EPKcRKSaIcE
fun:_ZN6TClass8AddClassEPS_
fun:_ZN6TClass4InitEPKcsPKSt9type_infoP16TVirtualIsAProxyPFvPvR16TMemberInspectorES1_S1_iib
fun:_ZN6TClassC1EPKcsRKSt9type_infoP16TVirtualIsAProxyPFvPvR16TMemberInspectorES1_S1_iib
fun:_ZN4ROOT11CreateClassEPKcsRKSt9type_infoP16TVirtualIsAProxyPFvPvR16TMemberInspectorES1_S1_ii
fun:_ZN4ROOT17TGenericClassInfo8GetClassEv
fun:_ZN7TString10DictionaryEv
fun:_ZNK5TROOT9LoadClassEPKcb
fun:_ZN6TClass8GetClassEPKcbb
}
{
root_jets_53
Memcheck:Leak
match-leak-kinds: possible
fun:_Znwm
fun:_ZNSs4_Rep9_S_createEmmRKSaIcE
fun:_ZNSs12_S_constructIPKcEEPcT_S3_RKSaIcESt20forward_iterator_tag
fun:_ZNSsC1EPKcRKSaIcE
fun:_ZN6TClass8AddClassEPS_
fun:_ZN6TClass4InitEPKcsPKSt9type_infoP16TVirtualIsAProxyPFvPvR16TMemberInspectorES1_S1_iib
fun:_ZN6TClassC1EPKcsRKSt9type_infoP16TVirtualIsAProxyPFvPvR16TMemberInspectorES1_S1_iib
fun:_ZN4ROOT11CreateClassEPKcsRKSt9type_infoP16TVirtualIsAProxyPFvPvR16TMemberInspectorES1_S1_ii
fun:_ZN4ROOT17TGenericClassInfo8GetClassEv
fun:_ZN7TArrayD10DictionaryEv
fun:_ZNK5TROOT9LoadClassEPKcb
fun:_ZN6TClass8GetClassEPKcbb
}
{
root_jets_54
Memcheck:Leak
match-leak-kinds: possible
fun:_Znwm
fun:_ZNSs4_Rep9_S_createEmmRKSaIcE
fun:_ZNSs12_S_constructIPKcEEPcT_S3_RKSaIcESt20forward_iterator_tag
fun:_ZNSsC1EPKcRKSaIcE
fun:_ZN6TClass8AddClassEPS_
fun:_ZN6TClass4InitEPKcsPKSt9type_infoP16TVirtualIsAProxyPFvPvR16TMemberInspectorES1_S1_iib
fun:_ZN6TClassC1EPKcsRKSt9type_infoP16TVirtualIsAProxyPFvPvR16TMemberInspectorES1_S1_iib
fun:_ZN4ROOT11CreateClassEPKcsRKSt9type_infoP16TVirtualIsAProxyPFvPvR16TMemberInspectorES1_S1_ii
fun:_ZN4ROOT17TGenericClassInfo8GetClassEv
fun:_ZN7TArrayF10DictionaryEv
fun:_ZNK5TROOT9LoadClassEPKcb
fun:_ZN6TClass8GetClassEPKcbb
}
{
root_jets_55
Memcheck:Leak
match-leak-kinds: possible
fun:_Znwm
fun:_ZNSs4_Rep9_S_createEmmRKSaIcE
fun:_ZNSs12_S_constructIPKcEEPcT_S3_RKSaIcESt20forward_iterator_tag
fun:_ZNSsC1EPKcRKSaIcE
fun:_ZN6TClass8AddClassEPS_
fun:_ZN6TClass4InitEPKcsPKSt9type_infoP16TVirtualIsAProxyPFvPvR16TMemberInspectorES1_S1_iib
fun:_ZN6TClassC1EPKcsRKSt9type_infoP16TVirtualIsAProxyPFvPvR16TMemberInspectorES1_S1_iib
fun:_ZN4ROOT11CreateClassEPKcsRKSt9type_infoP16TVirtualIsAProxyPFvPvR16TMemberInspectorES1_S1_ii
fun:_ZN4ROOT17TGenericClassInfo8GetClassEv
fun:_ZN7TArrayI10DictionaryEv
fun:_ZNK5TROOT9LoadClassEPKcb
fun:_ZN6TClass8GetClassEPKcbb
}
{
root_jets_56
Memcheck:Leak
match-leak-kinds: possible
fun:_Znwm
fun:_ZNSs4_Rep9_S_createEmmRKSaIcE
fun:_ZNSs12_S_constructIPKcEEPcT_S3_RKSaIcESt20forward_iterator_tag
fun:_ZNSsC1EPKcRKSaIcE
fun:_ZN6TClass8AddClassEPS_
fun:_ZN6TClass4InitEPKcsPKSt9type_infoP16TVirtualIsAProxyPFvPvR16TMemberInspectorES1_S1_iib
fun:_ZN6TClassC1EPKcsRKSt9type_infoP16TVirtualIsAProxyPFvPvR16TMemberInspectorES1_S1_iib
fun:_ZN4ROOT11CreateClassEPKcsRKSt9type_infoP16TVirtualIsAProxyPFvPvR16TMemberInspectorES1_S1_ii
fun:_ZN4ROOT17TGenericClassInfo8GetClassEv
fun:_ZN7AliVZDC10DictionaryEv
fun:_ZNK5TROOT9LoadClassEPKcb
fun:_ZN6TClass8GetClassEPKcbb
}
{
root_jets_57
Memcheck:Leak
match-leak-kinds: possible
fun:_Znwm
fun:_ZNSs4_Rep9_S_createEmmRKSaIcE
fun:_ZNSs12_S_constructIPKcEEPcT_S3_RKSaIcESt20forward_iterator_tag
fun:_ZNSsC1EPKcRKSaIcE
fun:_ZN6TClass8AddClassEPS_
fun:_ZN6TClass4InitEPKcsPKSt9type_infoP16TVirtualIsAProxyPFvPvR16TMemberInspectorES1_S1_iib
fun:_ZN6TClassC1EPKcsRKSt9type_infoP16TVirtualIsAProxyPFvPvR16TMemberInspectorES1_S1_iib
fun:_ZN4ROOT11CreateClassEPKcsRKSt9type_infoP16TVirtualIsAProxyPFvPvR16TMemberInspectorES1_S1_ii
fun:_ZN4ROOT17TGenericClassInfo8GetClassEv
fun:_ZN7TBranch10DictionaryEv
fun:_ZNK5TROOT9LoadClassEPKcb
fun:_ZN6TClass8GetClassEPKcbb
}
{
root_jets_58
Memcheck:Leak
match-leak-kinds: possible
fun:_Znwm
fun:_ZNSs4_Rep9_S_createEmmRKSaIcE
fun:_ZNSs12_S_constructIPKcEEPcT_S3_RKSaIcESt20forward_iterator_tag
fun:_ZNSsC1EPKcRKSaIcE
fun:_ZN6TClass8AddClassEPS_
fun:_ZN6TClass4InitEPKcsPKSt9type_infoP16TVirtualIsAProxyPFvPvR16TMemberInspectorES1_S1_iib
fun:_ZN6TClassC1EPKcsRKSt9type_infoP16TVirtualIsAProxyPFvPvR16TMemberInspectorES1_S1_iib
fun:_ZN4ROOT11CreateClassEPKcsRKSt9type_infoP16TVirtualIsAProxyPFvPvR16TMemberInspectorES1_S1_ii
fun:_ZN4ROOT17TGenericClassInfo8GetClassEv
fun:_ZN7TFolder10DictionaryEv
fun:_ZNK5TROOT9LoadClassEPKcb
fun:_ZN6TClass8GetClassEPKcbb
}
{
root_jets_59
Memcheck:Leak
match-leak-kinds: possible
fun:_Znwm
fun:_ZNSs4_Rep9_S_createEmmRKSaIcE
fun:_ZNSs9_M_mutateEmmm
fun:_ZNSs15_M_replace_safeEmmPKcm
fun:_ZN9TClassRef6AssignEP6TClass
fun:_ZN10TBaseClass15GetClassPointerEb
fun:_ZN6TClass12GetBaseClassEPKS_
fun:_ZN6TClass12GetBaseClassEPKS_
fun:_ZNK6TClass12InheritsFromEPKS_
fun:_ZN14TBuildRealData7InspectEP6TClassPKcS3_PKv
fun:_ZN4ROOT21TClassRef_ShowMembersEPvR16TMemberInspector
fun:_ZNK6TClass15CallShowMembersEPvR16TMemberInspectori
}
{
root_jets_60
Memcheck:Leak
match-leak-kinds: possible
fun:_Znwm
fun:_ZNSs4_Rep9_S_createEmmRKSaIcE
fun:_ZNSs9_M_mutateEmmm
fun:_ZNSs15_M_replace_safeEmmPKcm
fun:_ZN9TClassRef6AssignEP6TClass
fun:_ZN10TBaseClass15GetClassPointerEb
fun:_ZN6TClass12GetBaseClassEPKS_
fun:_ZNK6TClass12InheritsFromEPKS_
fun:_ZN14TBuildRealData7InspectEP6TClassPKcS3_PKv
fun:_ZN7TArrayD11ShowMembersER16TMemberInspector
fun:_ZN5TAxis11ShowMembersER16TMemberInspector
fun:_ZNK6TClass15CallShowMembersEPvR16TMemberInspectori
}
{
root_jets_61
Memcheck:Leak
match-leak-kinds: possible
fun:_Znwm
fun:_ZNSs4_Rep9_S_createEmmRKSaIcE
fun:_ZNSs12_S_constructIPKcEEPcT_S3_RKSaIcESt20forward_iterator_tag
fun:_ZNSsC1EPKcRKSaIcE
fun:_ZN6TClass8AddClassEPS_
fun:_ZN6TClass4InitEPKcsPKSt9type_infoP16TVirtualIsAProxyPFvPvR16TMemberInspectorES1_S1_iib
fun:_ZN6TClassC1EPKcsRKSt9type_infoP16TVirtualIsAProxyPFvPvR16TMemberInspectorES1_S1_iib
fun:_ZN4ROOT11CreateClassEPKcsRKSt9type_infoP16TVirtualIsAProxyPFvPvR16TMemberInspectorES1_S1_ii
fun:_ZN4ROOT17TGenericClassInfo8GetClassEv
fun:_ZN7TBasket10DictionaryEv
fun:_ZNK5TROOT9LoadClassEPKcb
fun:_ZN6TClass8GetClassEPKcbb
}
{
root_jets_62
Memcheck:Leak
match-leak-kinds: possible
fun:_Znwm
fun:_ZNSs4_Rep9_S_createEmmRKSaIcE
fun:_ZNSs9_M_mutateEmmm
fun:_ZNSs15_M_replace_safeEmmPKcm
fun:_ZN9TClassRef6AssignEP6TClass
fun:_ZN10TBaseClass15GetClassPointerEb
fun:_ZN8TQObject23CollectClassSignalListsER5TListP6TClass
fun:_ZN8TQObject23CollectClassSignalListsER5TListP6TClass
fun:_ZN8TQObject4EmitEPKcl
fun:_ZN12TApplication9TerminateEi
fun:_ZN5TRint3RunEb
fun:main
}
{
root_jets_63
Memcheck:Leak
match-leak-kinds: possible
fun:_Znwm
fun:_ZNSs4_Rep9_S_createEmmRKSaIcE
fun:_ZNSs12_S_constructIPKcEEPcT_S3_RKSaIcESt20forward_iterator_tag
fun:_ZNSsC1EPKcRKSaIcE
fun:_ZN6TClass8AddClassEPS_
fun:_ZN6TClass4InitEPKcsPKSt9type_infoP16TVirtualIsAProxyPFvPvR16TMemberInspectorES1_S1_iib
fun:_ZN6TClassC1EPKcsRKSt9type_infoP16TVirtualIsAProxyPFvPvR16TMemberInspectorES1_S1_iib
fun:_ZN7TQClassC1EPKcsRKSt9type_infoP16TVirtualIsAProxyPFvPvR16TMemberInspectorES1_S1_ii
fun:_ZNK4ROOT20TQObjectInitBehavior11CreateClassEPKcsRKSt9type_infoP16TVirtualIsAProxyPFvPvR16TMemberInspectorES2_S2_ii
fun:_ZN4ROOT17TGenericClassInfo8GetClassEv
fun:_ZN8TQObject10DictionaryEv
fun:_ZNK5TROOT9LoadClassEPKcb
}
{
root_jets_64
Memcheck:Leak
match-leak-kinds: possible
fun:_Znwm
fun:_ZNSs4_Rep9_S_createEmmRKSaIcE
fun:_ZNSs12_S_constructIPKcEEPcT_S3_RKSaIcESt20forward_iterator_tag
fun:_ZNSsC1EPKcRKSaIcE
fun:_ZN6TClass8AddClassEPS_
fun:_ZN6TClass4InitEPKcsPKSt9type_infoP16TVirtualIsAProxyPFvPvR16TMemberInspectorES1_S1_iib
fun:_ZN6TClassC1EPKcsRKSt9type_infoP16TVirtualIsAProxyPFvPvR16TMemberInspectorES1_S1_iib
fun:_ZN4ROOT11CreateClassEPKcsRKSt9type_infoP16TVirtualIsAProxyPFvPvR16TMemberInspectorES1_S1_ii
fun:_ZN4ROOT17TGenericClassInfo8GetClassEv
fun:_ZN8TAttLine10DictionaryEv
fun:_ZNK5TROOT9LoadClassEPKcb
fun:_ZN6TClass8GetClassEPKcbb
}
{
root_jets_65
Memcheck:Leak
match-leak-kinds: possible
fun:_Znwm
fun:_ZNSs4_Rep9_S_createEmmRKSaIcE
fun:_ZNSs12_S_constructIPKcEEPcT_S3_RKSaIcESt20forward_iterator_tag
fun:_ZNSsC1EPKcRKSaIcE
fun:_ZN6TClass8AddClassEPS_
fun:_ZN6TClass4InitEPKcsPKSt9type_infoP16TVirtualIsAProxyPFvPvR16TMemberInspectorES1_S1_iib
fun:_ZN6TClassC1EPKcsRKSt9type_infoP16TVirtualIsAProxyPFvPvR16TMemberInspectorES1_S1_iib
fun:_ZN4ROOT11CreateClassEPKcsRKSt9type_infoP16TVirtualIsAProxyPFvPvR16TMemberInspectorES1_S1_ii
fun:_ZN4ROOT17TGenericClassInfo8GetClassEv
fun:_ZN8TAttFill10DictionaryEv
fun:_ZNK5TROOT9LoadClassEPKcb
fun:_ZN6TClass8GetClassEPKcbb
}
{
root_jets_66
Memcheck:Leak
match-leak-kinds: possible
fun:_Znwm
fun:_ZNSs4_Rep9_S_createEmmRKSaIcE
fun:_ZNSs12_S_constructIPKcEEPcT_S3_RKSaIcESt20forward_iterator_tag
fun:_ZNSsC1EPKcRKSaIcE
fun:_ZN6TClass8AddClassEPS_
fun:_ZN6TClass4InitEPKcsPKSt9type_infoP16TVirtualIsAProxyPFvPvR16TMemberInspectorES1_S1_iib
fun:_ZN6TClassC1EPKcsRKSt9type_infoP16TVirtualIsAProxyPFvPvR16TMemberInspectorES1_S1_iib
fun:_ZN4ROOT11CreateClassEPKcsRKSt9type_infoP16TVirtualIsAProxyPFvPvR16TMemberInspectorES1_S1_ii
fun:_ZN4ROOT17TGenericClassInfo8GetClassEv
fun:_ZN8TAttAxis10DictionaryEv
fun:_ZNK5TROOT9LoadClassEPKcb
fun:_ZN6TClass8GetClassEPKcbb
}
{
root_jets_67
Memcheck:Leak
match-leak-kinds: possible
fun:_Znwm
fun:_ZNSs4_Rep9_S_createEmmRKSaIcE
fun:_ZNSs12_S_constructIPKcEEPcT_S3_RKSaIcESt20forward_iterator_tag
fun:_ZNSsC1EPKcRKSaIcE
fun:_ZN6TClass8AddClassEPS_
fun:_ZN6TClass4InitEPKcsPKSt9type_infoP16TVirtualIsAProxyPFvPvR16TMemberInspectorES1_S1_iib
fun:_ZN6TClassC1EPKcsRKSt9type_infoP16TVirtualIsAProxyPFvPvR16TMemberInspectorES1_S1_iib
fun:_ZN4ROOT11CreateClassEPKcsRKSt9type_infoP16TVirtualIsAProxyPFvPvR16TMemberInspectorES1_S1_ii
fun:_ZN4ROOT17TGenericClassInfo8GetClassEv
fun:_ZN8TVector210DictionaryEv
fun:_ZNK5TROOT9LoadClassEPKcb
fun:_ZN6TClass8GetClassEPKcbb
}
{
root_jets_68
Memcheck:Leak
match-leak-kinds: possible
fun:_Znwm
fun:_ZNSs4_Rep9_S_createEmmRKSaIcE
fun:_ZNSs9_M_mutateEmmm
fun:_ZNSs15_M_replace_safeEmmPKcm
fun:_ZN9TClassRef6AssignEP6TClass
fun:_ZN4ROOT14TSchemaRuleSet8SetClassEP6TClass
fun:_ZN6TClass14GetSchemaRulesEb
fun:_ZN4ROOT17TGenericClassInfo13CreateRuleSetERSt6vectorINS_13TSchemaHelperESaIS2_EEb
fun:_ZN4ROOT17TGenericClassInfo8GetClassEv
fun:_ZN9AliAODPid10DictionaryEv
fun:_ZNK5TROOT9LoadClassEPKcb
fun:_ZN6TClass8GetClassEPKcbb
}
{
root_jets_69
Memcheck:Leak
match-leak-kinds: possible
fun:_Znwm
fun:_ZNSs4_Rep9_S_createEmmRKSaIcE
fun:_ZNSs12_S_constructIPKcEEPcT_S3_RKSaIcESt20forward_iterator_tag
fun:_ZNSsC1EPKcRKSaIcE
fun:_ZN6TClass8AddClassEPS_
fun:_ZN6TClass4InitEPKcsPKSt9type_infoP16TVirtualIsAProxyPFvPvR16TMemberInspectorES1_S1_iib
fun:_ZN6TClassC1EPKcsRKSt9type_infoP16TVirtualIsAProxyPFvPvR16TMemberInspectorES1_S1_iib
fun:_ZN4ROOT11CreateClassEPKcsRKSt9type_infoP16TVirtualIsAProxyPFvPvR16TMemberInspectorES1_S1_ii
fun:_ZN4ROOT17TGenericClassInfo8GetClassEv
fun:_ZN8AliAODv010DictionaryEv
fun:_ZNK5TROOT9LoadClassEPKcb
fun:_ZN6TClass8GetClassEPKcbb
}
{
root_jets_70
Memcheck:Leak
match-leak-kinds: possible
fun:_Znwm
fun:_ZNSs4_Rep9_S_createEmmRKSaIcE
fun:_ZNSs12_S_constructIPKcEEPcT_S3_RKSaIcESt20forward_iterator_tag
fun:_ZNSsC1EPKcRKSaIcE
fun:_ZN6TClass8AddClassEPS_
fun:_ZN6TClass4InitEPKcsPKSt9type_infoP16TVirtualIsAProxyPFvPvR16TMemberInspectorES1_S1_iib
fun:_ZN6TClassC1EPKcsRKSt9type_infoP16TVirtualIsAProxyPFvPvR16TMemberInspectorES1_S1_iib
fun:_ZN4ROOT11CreateClassEPKcsRKSt9type_infoP16TVirtualIsAProxyPFvPvR16TMemberInspectorES1_S1_ii
fun:_ZN4ROOT17TGenericClassInfo8GetClassEv
fun:_ZN8TVector310DictionaryEv
fun:_ZNK5TROOT9LoadClassEPKcb
fun:_ZN6TClass8GetClassEPKcbb
}
{
root_jets_71
Memcheck:Leak
match-leak-kinds: possible
fun:_Znwm
fun:_ZNSs4_Rep9_S_createEmmRKSaIcE
fun:_ZNSs12_S_constructIPKcEEPcT_S3_RKSaIcESt20forward_iterator_tag
fun:_ZNSsC1EPKcRKSaIcE
fun:_ZN6TClass8AddClassEPS_
fun:_ZN6TClass4InitEPKcsPKSt9type_infoP16TVirtualIsAProxyPFvPvR16TMemberInspectorES1_S1_iib
fun:_ZN6TClassC1EPKcsRKSt9type_infoP16TVirtualIsAProxyPFvPvR16TMemberInspectorES1_S1_iib
fun:_ZN4ROOT11CreateClassEPKcsRKSt9type_infoP16TVirtualIsAProxyPFvPvR16TMemberInspectorES1_S1_ii
fun:_ZN4ROOT17TGenericClassInfo8GetClassEv
fun:_ZN8TFormula10DictionaryEv
fun:_ZNK5TROOT9LoadClassEPKcb
fun:_ZN6TClass8GetClassEPKcbb
}
{
root_jets_72
Memcheck:Leak
match-leak-kinds: possible
fun:_Znwm
fun:_ZNSs4_Rep9_S_createEmmRKSaIcE
fun:_ZNSs12_S_constructIPKcEEPcT_S3_RKSaIcESt20forward_iterator_tag
fun:_ZNSsC1EPKcRKSaIcE
fun:_ZN6TClass8AddClassEPS_
fun:_ZN6TClass4InitEPKcsPKSt9type_infoP16TVirtualIsAProxyPFvPvR16TMemberInspectorES1_S1_iib
fun:_ZN6TClassC1EPKcsRKSt9type_infoP16TVirtualIsAProxyPFvPvR16TMemberInspectorES1_S1_iib
fun:_ZN4ROOT11CreateClassEPKcsRKSt9type_infoP16TVirtualIsAProxyPFvPvR16TMemberInspectorES1_S1_ii
fun:_ZN4ROOT17TGenericClassInfo8GetClassEv
fun:_ZN8AliVCuts10DictionaryEv
fun:_ZNK5TROOT9LoadClassEPKcb
fun:_ZN6TClass8GetClassEPKcbb
}
{
root_jets_73
Memcheck:Leak
match-leak-kinds: possible
fun:_Znwm
fun:_ZNSs4_Rep9_S_createEmmRKSaIcE
fun:_ZNSs9_M_mutateEmmm
fun:_ZNSs15_M_replace_safeEmmPKcm
fun:_ZN9TClassRef6AssignEP6TClass
fun:_ZN6TClass19AdoptReferenceProxyEP16TVirtualRefProxy
fun:_ZN11TTreePlayerC1Ev
fun:_ZN4ROOTL15new_TTreePlayerEPv
fun:_ZNK6TClass3NewENS_8ENewTypeE
fun:_ZN18TVirtualTreePlayer10TreePlayerEP5TTree
fun:_ZN5TTree9GetPlayerEv
fun:_ZN5TTree7ProcessEP9TSelectorPKcxx
}
{
root_jets_74
Memcheck:Leak
match-leak-kinds: possible
fun:_Znwm
fun:_ZNSs4_Rep9_S_createEmmRKSaIcE
fun:_ZNSs12_S_constructIPKcEEPcT_S3_RKSaIcESt20forward_iterator_tag
fun:_ZNSsC1EPKcRKSaIcE
fun:_ZN6TClass8AddClassEPS_
fun:_ZN6TClass4InitEPKcsPKSt9type_infoP16TVirtualIsAProxyPFvPvR16TMemberInspectorES1_S1_iib
fun:_ZN6TClassC1EPKcsRKSt9type_infoP16TVirtualIsAProxyPFvPvR16TMemberInspectorES1_S1_iib
fun:_ZN4ROOT11CreateClassEPKcsRKSt9type_infoP16TVirtualIsAProxyPFvPvR16TMemberInspectorES1_S1_ii
fun:_ZN4ROOT17TGenericClassInfo8GetClassEv
fun:_ZN9TObjArray10DictionaryEv
fun:_ZN6TClass8GetClassERKSt9type_infobb
fun:_ZrsI9TObjArrayER7TBufferS2_RPT_
}
{
root_jets_75
Memcheck:Leak
match-leak-kinds: possible
fun:_Znwm
fun:_ZNSs4_Rep9_S_createEmmRKSaIcE
fun:_ZNSs12_S_constructIPKcEEPcT_S3_RKSaIcESt20forward_iterator_tag
fun:_ZNSsC1EPKcRKSaIcE
fun:_ZN6TClass8AddClassEPS_
fun:_ZN6TClass4InitEPKcsPKSt9type_infoP16TVirtualIsAProxyPFvPvR16TMemberInspectorES1_S1_iib
fun:_ZN6TClassC1EPKcsRKSt9type_infoP16TVirtualIsAProxyPFvPvR16TMemberInspectorES1_S1_iib
fun:_ZN4ROOT11CreateClassEPKcsRKSt9type_infoP16TVirtualIsAProxyPFvPvR16TMemberInspectorES1_S1_ii
fun:_ZN4ROOT17TGenericClassInfo8GetClassEv
fun:_ZN9THashList10DictionaryEv
fun:_ZNK5TROOT9LoadClassEPKcb
fun:_ZN6TClass8GetClassEPKcbb
}
{
root_jets_76
Memcheck:Leak
match-leak-kinds: possible
fun:_Znwm
fun:_ZNSs4_Rep9_S_createEmmRKSaIcE
fun:_ZNSs12_S_constructIPKcEEPcT_S3_RKSaIcESt20forward_iterator_tag
fun:_ZNSsC1EPKcRKSaIcE
fun:_ZN6TClass8AddClassEPS_
fun:_ZN6TClass4InitEPKcsPKSt9type_infoP16TVirtualIsAProxyPFvPvR16TMemberInspectorES1_S1_iib
fun:_ZN6TClassC1EPKcsRKSt9type_infoP16TVirtualIsAProxyPFvPvR16TMemberInspectorES1_S1_iib
fun:_ZN4ROOT11CreateClassEPKcsRKSt9type_infoP16TVirtualIsAProxyPFvPvR16TMemberInspectorES1_S1_ii
fun:_ZN4ROOT17TGenericClassInfo8GetClassEv
fun:_ZN9AliVTrack10DictionaryEv
fun:_ZNK5TROOT9LoadClassEPKcb
fun:_ZN6TClass8GetClassEPKcbb
}
{
root_jets_77
Memcheck:Leak
match-leak-kinds: possible
fun:_Znwm
fun:_ZNSs4_Rep9_S_createEmmRKSaIcE
fun:_ZNSs12_S_constructIPKcEEPcT_S3_RKSaIcESt20forward_iterator_tag
fun:_ZNSsC1EPKcRKSaIcE
fun:_ZN6TClass8AddClassEPS_
fun:_ZN6TClass4InitEPKcsPKSt9type_infoP16TVirtualIsAProxyPFvPvR16TMemberInspectorES1_S1_iib
fun:_ZN6TClassC1EPKcsRKSt9type_infoP16TVirtualIsAProxyPFvPvR16TMemberInspectorES1_S1_iib
fun:_ZN4ROOT11CreateClassEPKcsRKSt9type_infoP16TVirtualIsAProxyPFvPvR16TMemberInspectorES1_S1_ii
fun:_ZN4ROOT17TGenericClassInfo8GetClassEv
fun:_ZN9AliAODPid10DictionaryEv
fun:_ZNK5TROOT9LoadClassEPKcb
fun:_ZN6TClass8GetClassEPKcbb
}
{
root_jets_78
Memcheck:Leak
match-leak-kinds: possible
fun:_Znwm
fun:_ZNSs4_Rep9_S_createEmmRKSaIcE
fun:_ZNSs12_S_constructIPKcEEPcT_S3_RKSaIcESt20forward_iterator_tag
fun:_ZNSsC1EPKcRKSaIcE
fun:_ZN6TClass8AddClassEPS_
fun:_ZN6TClass4InitEPKcsPKSt9type_infoP16TVirtualIsAProxyPFvPvR16TMemberInspectorES1_S1_iib
fun:_ZN6TClassC1EPKcsRKSt9type_infoP16TVirtualIsAProxyPFvPvR16TMemberInspectorES1_S1_iib
fun:_ZN4ROOT11CreateClassEPKcsRKSt9type_infoP16TVirtualIsAProxyPFvPvR16TMemberInspectorES1_S1_ii
fun:_ZN4ROOT17TGenericClassInfo8GetClassEv
fun:_ZN9TRefArray10DictionaryEv
fun:_ZNK5TROOT9LoadClassEPKcb
fun:_ZN6TClass8GetClassEPKcbb
}
{
root_jets_79
Memcheck:Leak
match-leak-kinds: possible
fun:_Znwm
fun:_ZNSs4_Rep9_S_createEmmRKSaIcE
fun:_ZNSs12_S_constructIPKcEEPcT_S3_RKSaIcESt20forward_iterator_tag
fun:_ZNSsC1EPKcRKSaIcE
fun:_ZN6TClass8AddClassEPS_
fun:_ZN6TClass4InitEPKcsPKSt9type_infoP16TVirtualIsAProxyPFvPvR16TMemberInspectorES1_S1_iib
fun:_ZN6TClassC1EPKcsRKSt9type_infoP16TVirtualIsAProxyPFvPvR16TMemberInspectorES1_S1_iib
fun:_ZN4ROOT11CreateClassEPKcsRKSt9type_infoP16TVirtualIsAProxyPFvPvR16TMemberInspectorES1_S1_ii
fun:_ZN4ROOT17TGenericClassInfo8GetClassEv
fun:_ZN9AliAODJet10DictionaryEv
fun:_ZNK5TROOT9LoadClassEPKcb
fun:_ZN6TClass8GetClassEPKcbb
}
{
root_jets_80
Memcheck:Leak
match-leak-kinds: possible
fun:_Znwm
fun:_ZNSs4_Rep9_S_createEmmRKSaIcE
fun:_ZNSs12_S_constructIPKcEEPcT_S3_RKSaIcESt20forward_iterator_tag
fun:_ZNSsC1EPKcRKSaIcE
fun:_ZN6TClass8AddClassEPS_
fun:_ZN6TClass4InitEPKcsPKSt9type_infoP16TVirtualIsAProxyPFvPvR16TMemberInspectorES1_S1_iib
fun:_ZN6TClassC1EPKcsRKSt9type_infoP16TVirtualIsAProxyPFvPvR16TMemberInspectorES1_S1_iib
fun:_ZN4ROOT11CreateClassEPKcsRKSt9type_infoP16TVirtualIsAProxyPFvPvR16TMemberInspectorES1_S1_ii
fun:_ZN4ROOT17TGenericClassInfo8GetClassEv
fun:_ZN9AliVVZERO10DictionaryEv
fun:_ZNK5TROOT9LoadClassEPKcb
fun:_ZN6TClass8GetClassEPKcbb
}
{
root_jets_81
Memcheck:Leak
match-leak-kinds: possible
fun:_Znwm
fun:_ZNSs4_Rep9_S_createEmmRKSaIcE
fun:_ZNSs12_S_constructIPKcEEPcT_S3_RKSaIcESt20forward_iterator_tag
fun:_ZNSsC1EPKcRKSaIcE
fun:_ZN6TClass8AddClassEPS_
fun:_ZN6TClass4InitEPKcsPKSt9type_infoP16TVirtualIsAProxyPFvPvR16TMemberInspectorES1_S1_iib
fun:_ZN6TClassC1EPKcsRKSt9type_infoP16TVirtualIsAProxyPFvPvR16TMemberInspectorES1_S1_iib
fun:_ZN4ROOT11CreateClassEPKcsRKSt9type_infoP16TVirtualIsAProxyPFvPvR16TMemberInspectorES1_S1_ii
fun:_ZN4ROOT17TGenericClassInfo8GetClassEv
fun:_ZN9AliAODZDC10DictionaryEv
fun:_ZNK5TROOT9LoadClassEPKcb
fun:_ZN6TClass8GetClassEPKcbb
}
{
root_jets_82
Memcheck:Leak
match-leak-kinds: possible
fun:_Znwm
fun:_ZNSs4_Rep9_S_createEmmRKSaIcE
fun:_ZNSs12_S_constructIPKcEEPcT_S3_RKSaIcESt20forward_iterator_tag
fun:_ZNSsC1EPKcRKSaIcE
fun:_ZN6TClass8AddClassEPS_
fun:_ZN6TClass4InitEPKcsPKSt9type_infoP16TVirtualIsAProxyPFvPvR16TMemberInspectorES1_S1_iib
fun:_ZN6TClassC1EPKcsRKSt9type_infoP16TVirtualIsAProxyPFvPvR16TMemberInspectorES1_S1_iib
fun:_ZN4ROOT11CreateClassEPKcsRKSt9type_infoP16TVirtualIsAProxyPFvPvR16TMemberInspectorES1_S1_ii
fun:_ZN4ROOT17TGenericClassInfo8GetClassEv
fun:_ZN9TRefTable10DictionaryEv
fun:_ZNK5TROOT9LoadClassEPKcb
fun:_ZN6TClass8GetClassEPKcbb
}
{
root_jets_83
Memcheck:Leak
match-leak-kinds: possible
fun:_Znwm
fun:_ZNSs4_Rep9_S_createEmmRKSaIcE
fun:_ZNSs12_S_constructIPKcEEPcT_S3_RKSaIcESt20forward_iterator_tag
fun:_ZNSsC1EPKcRKSaIcE
fun:_ZN6TClass8AddClassEPS_
fun:_ZN6TClass4InitEPKcsPKSt9type_infoP16TVirtualIsAProxyPFvPvR16TMemberInspectorES1_S1_iib
fun:_ZN6TClassC1EPKcsRKSt9type_infoP16TVirtualIsAProxyPFvPvR16TMemberInspectorES1_S1_iib
fun:_ZN4ROOT11CreateClassEPKcsRKSt9type_infoP16TVirtualIsAProxyPFvPvR16TMemberInspectorES1_S1_ii
fun:_ZN4ROOT17TGenericClassInfo8GetClassEv
fun:_ZN9AliVEvent10DictionaryEv
fun:_ZNK5TROOT9LoadClassEPKcb
fun:_ZN6TClass8GetClassEPKcbb
}
{
root_jets_84
Memcheck:Leak
match-leak-kinds: possible
fun:_Znwm
fun:_ZNSs4_Rep9_S_createEmmRKSaIcE
fun:_ZNSs9_M_mutateEmmm
fun:_ZNSs15_M_replace_safeEmmPKcm
fun:_ZN19TGenCollectionProxyC1ERKN4ROOT20TCollectionProxyInfoEP6TClass
fun:_ZN23TCollectionProxyFactory16GenExplicitProxyERKN4ROOT20TCollectionProxyInfoEP6TClass
fun:_ZN6TClass18SetCollectionProxyERKN4ROOT20TCollectionProxyInfoE
fun:_ZN4ROOT17TGenericClassInfo8GetClassEv
fun:_ZNK5TROOT9LoadClassEPKcb
fun:_ZN6TClass8GetClassEPKcbb
fun:_ZN14TBuildRealData7InspectEP6TClassPKcS3_PKv
fun:_ZN14TBranchElement11ShowMembersER16TMemberInspector
}
{
root_jets_85
Memcheck:Leak
match-leak-kinds: possible
fun:_Znwm
fun:_ZNSs4_Rep9_S_createEmmRKSaIcE
fun:_ZNSs12_S_constructIPKcEEPcT_S3_RKSaIcESt20forward_iterator_tag
fun:_ZNSsC1EPKcRKSaIcE
fun:_ZN6TClass8AddClassEPS_
fun:_ZN6TClass4InitEPKcsPKSt9type_infoP16TVirtualIsAProxyPFvPvR16TMemberInspectorES1_S1_iib
fun:_ZN6TClassC1EPKcsRKSt9type_infoP16TVirtualIsAProxyPFvPvR16TMemberInspectorES1_S1_iib
fun:_ZN4ROOT11CreateClassEPKcsRKSt9type_infoP16TVirtualIsAProxyPFvPvR16TMemberInspectorES1_S1_ii
fun:_ZN4ROOT17TGenericClassInfo8GetClassEv
fun:_ZN10TObjString5ClassEv
fun:_ZNK10TObjString7CompareEPK7TObject
fun:_ZN11TSortedList3AddEP7TObject
}
{
root_jets_86
Memcheck:Leak
match-leak-kinds: possible
fun:_Znwm
fun:_ZNSs4_Rep9_S_createEmmRKSaIcE
fun:_ZNSs12_S_constructIPKcEEPcT_S3_RKSaIcESt20forward_iterator_tag
fun:_ZNSsC1EPKcRKSaIcE
fun:_ZN6TClass8AddClassEPS_
fun:_ZN6TClass4InitEPKcsPKSt9type_infoP16TVirtualIsAProxyPFvPvR16TMemberInspectorES1_S1_iib
fun:_ZN6TClassC1EPKcsRKSt9type_infoP16TVirtualIsAProxyPFvPvR16TMemberInspectorES1_S1_iib
fun:_ZN4ROOT11CreateClassEPKcsRKSt9type_infoP16TVirtualIsAProxyPFvPvR16TMemberInspectorES1_S1_ii
fun:_ZN4ROOT17TGenericClassInfo8GetClassEv
fun:_ZN10TAttMarker10DictionaryEv
fun:_ZNK5TROOT9LoadClassEPKcb
fun:_ZN6TClass8GetClassEPKcbb
}
{
root_jets_87
Memcheck:Leak
match-leak-kinds: possible
fun:_Znwm
fun:_ZNSs4_Rep9_S_createEmmRKSaIcE
fun:_ZNSs12_S_constructIPKcEEPcT_S3_RKSaIcESt20forward_iterator_tag
fun:_ZNSsC1EPKcRKSaIcE
fun:_ZN6TClass8AddClassEPS_
fun:_ZN6TClass4InitEPKcsPKSt9type_infoP16TVirtualIsAProxyPFvPvR16TMemberInspectorES1_S1_iib
fun:_ZN6TClassC1EPKcsRKSt9type_infoP16TVirtualIsAProxyPFvPvR16TMemberInspectorES1_S1_iib
fun:_ZN4ROOT11CreateClassEPKcsRKSt9type_infoP16TVirtualIsAProxyPFvPvR16TMemberInspectorES1_S1_ii
fun:_ZN4ROOT17TGenericClassInfo8GetClassEv
fun:_ZN10AliVHeader10DictionaryEv
fun:_ZNK5TROOT9LoadClassEPKcb
fun:_ZN6TClass8GetClassEPKcbb
}
{
root_jets_88
Memcheck:Leak
match-leak-kinds: possible
fun:_Znwm
fun:_ZNSs4_Rep9_S_createEmmRKSaIcE
fun:_ZNSs12_S_constructIPKcEEPcT_S3_RKSaIcESt20forward_iterator_tag
fun:_ZNSsC1EPKcRKSaIcE
fun:_ZN6TClass8AddClassEPS_
fun:_ZN6TClass4InitEPKcsPKSt9type_infoP16TVirtualIsAProxyPFvPvR16TMemberInspectorES1_S1_iib
fun:_ZN6TClassC1EPKcsRKSt9type_infoP16TVirtualIsAProxyPFvPvR16TMemberInspectorES1_S1_iib
fun:_ZN4ROOT11CreateClassEPKcsRKSt9type_infoP16TVirtualIsAProxyPFvPvR16TMemberInspectorES1_S1_ii
fun:_ZN4ROOT17TGenericClassInfo8GetClassEv
fun:_ZN10TGeoMatrix10DictionaryEv
fun:_ZNK5TROOT9LoadClassEPKcb
fun:_ZN6TClass8GetClassEPKcbb
}
{
root_jets_89
Memcheck:Leak
match-leak-kinds: possible
fun:_Znwm
fun:_ZNSs4_Rep9_S_createEmmRKSaIcE
fun:_ZNSs12_S_constructIPKcEEPcT_S3_RKSaIcESt20forward_iterator_tag
fun:_ZNSsC1EPKcRKSaIcE
fun:_ZN6TClass8AddClassEPS_
fun:_ZN6TClass4InitEPKcsPKSt9type_infoP16TVirtualIsAProxyPFvPvR16TMemberInspectorES1_S1_iib
fun:_ZN6TClassC1EPKcsRKSt9type_infoP16TVirtualIsAProxyPFvPvR16TMemberInspectorES1_S1_iib
fun:_ZN4ROOT11CreateClassEPKcsRKSt9type_infoP16TVirtualIsAProxyPFvPvR16TMemberInspectorES1_S1_ii
fun:_ZN4ROOT17TGenericClassInfo8GetClassEv
fun:_ZN10AliVVertex10DictionaryEv
fun:_ZNK5TROOT9LoadClassEPKcb
fun:_ZN6TClass8GetClassEPKcbb
}
{
root_jets_90
Memcheck:Leak
match-leak-kinds: possible
fun:_Znwm
fun:_ZNSs4_Rep9_S_createEmmRKSaIcE
fun:_ZNSs12_S_constructIPKcEEPcT_S3_RKSaIcESt20forward_iterator_tag
fun:_ZNSsC1EPKcRKSaIcE
fun:_ZN6TClass8AddClassEPS_
fun:_ZN6TClass4InitEPKcsPKSt9type_infoP16TVirtualIsAProxyPFvPvR16TMemberInspectorES1_S1_iib
fun:_ZN6TClassC1EPKcsRKSt9type_infoP16TVirtualIsAProxyPFvPvR16TMemberInspectorES1_S1_iib
fun:_ZN4ROOT11CreateClassEPKcsRKSt9type_infoP16TVirtualIsAProxyPFvPvR16TMemberInspectorES1_S1_ii
fun:_ZN4ROOT17TGenericClassInfo8GetClassEv
fun:_ZN10TProcessID10DictionaryEv
fun:_ZNK5TROOT9LoadClassEPKcb
fun:_ZN6TClass8GetClassEPKcbb
}
{
root_jets_91
Memcheck:Leak
match-leak-kinds: possible
fun:_Znwm
fun:_ZNSs4_Rep9_S_createEmmRKSaIcE
fun:_ZNSs12_S_constructIPKcEEPcT_S3_RKSaIcESt20forward_iterator_tag
fun:_ZNSsC1EPKcRKSaIcE
fun:_ZN6TClass8AddClassEPS_
fun:_ZN6TClass4InitEPKcsPKSt9type_infoP16TVirtualIsAProxyPFvPvR16TMemberInspectorES1_S1_iib
fun:_ZN6TClassC1EPKcsRKSt9type_infoP16TVirtualIsAProxyPFvPvR16TMemberInspectorES1_S1_iib
fun:_ZN4ROOT11CreateClassEPKcsRKSt9type_infoP16TVirtualIsAProxyPFvPvR16TMemberInspectorES1_S1_ii
fun:_ZN4ROOT17TGenericClassInfo8GetClassEv
fun:_ZN10TBranchRef10DictionaryEv
fun:_ZNK5TROOT9LoadClassEPKcb
fun:_ZN6TClass8GetClassEPKcbb
}
{
root_jets_92
Memcheck:Leak
match-leak-kinds: possible
fun:_Znwm
fun:_ZNSs4_Rep9_S_createEmmRKSaIcE
fun:_ZNSs9_M_mutateEmmm
fun:_ZNSs15_M_replace_safeEmmPKcm
fun:_ZN9TClassRef6AssignEP6TClass
fun:_ZN10TBaseClass15GetClassPointerEb
fun:_ZN8TQObject23CollectClassSignalListsER5TListP6TClass
fun:_ZN8TQObject4EmitEPKcl
fun:_ZN12TApplication9TerminateEi
fun:_ZN5TRint3RunEb
fun:main
}
{
root_jets_93
Memcheck:Leak
match-leak-kinds: possible
fun:_Znwm
fun:_ZNSs4_Rep9_S_createEmmRKSaIcE
fun:_ZNSs12_S_constructIPKcEEPcT_S3_RKSaIcESt20forward_iterator_tag
fun:_ZNSsC1EPKcRKSaIcE
fun:_ZN6TClass8AddClassEPS_
fun:_ZN6TClass4InitEPKcsPKSt9type_infoP16TVirtualIsAProxyPFvPvR16TMemberInspectorES1_S1_iib
fun:_ZN6TClassC1EPKcsRKSt9type_infoP16TVirtualIsAProxyPFvPvR16TMemberInspectorES1_S1_iib
fun:_ZN4ROOT11CreateClassEPKcsRKSt9type_infoP16TVirtualIsAProxyPFvPvR16TMemberInspectorES1_S1_ii
fun:_ZN4ROOT17TGenericClassInfo8GetClassEv
fun:_ZN11TCollection10DictionaryEv
fun:_ZNK5TROOT9LoadClassEPKcb
fun:_ZN6TClass8GetClassEPKcbb
}
{
root_jets_94
Memcheck:Leak
match-leak-kinds: possible
fun:_Znwm
fun:_ZNSs4_Rep9_S_createEmmRKSaIcE
fun:_ZNSs12_S_constructIPKcEEPcT_S3_RKSaIcESt20forward_iterator_tag
fun:_ZNSsC1EPKcRKSaIcE
fun:_ZN6TClass8AddClassEPS_
fun:_ZN6TClass4InitEPKcsPKSt9type_infoP16TVirtualIsAProxyPFvPvR16TMemberInspectorES1_S1_iib
fun:_ZN6TClassC1EPKcsRKSt9type_infoP16TVirtualIsAProxyPFvPvR16TMemberInspectorES1_S1_iib
fun:_ZN4ROOT11CreateClassEPKcsRKSt9type_infoP16TVirtualIsAProxyPFvPvR16TMemberInspectorES1_S1_ii
fun:_ZN4ROOT17TGenericClassInfo8GetClassEv
fun:_ZN11TGeoHMatrix10DictionaryEv
fun:_ZNK5TROOT9LoadClassEPKcb
fun:_ZN6TClass8GetClassEPKcbb
}
{
root_jets_95
Memcheck:Leak
match-leak-kinds: possible
fun:_Znwm
fun:_ZNSs4_Rep9_S_createEmmRKSaIcE
fun:_ZNSs12_S_constructIPKcEEPcT_S3_RKSaIcESt20forward_iterator_tag
fun:_ZNSsC1EPKcRKSaIcE
fun:_ZN6TClass8AddClassEPS_
fun:_ZN6TClass4InitEPKcsPKSt9type_infoP16TVirtualIsAProxyPFvPvR16TMemberInspectorES1_S1_iib
fun:_ZN6TClassC1EPKcsRKSt9type_infoP16TVirtualIsAProxyPFvPvR16TMemberInspectorES1_S1_iib
fun:_ZN4ROOT11CreateClassEPKcsRKSt9type_infoP16TVirtualIsAProxyPFvPvR16TMemberInspectorES1_S1_ii
fun:_ZN4ROOT17TGenericClassInfo8GetClassEv
fun:_ZN11AliAODTrack10DictionaryEv
fun:_ZNK5TROOT9LoadClassEPKcb
fun:_ZN6TClass8GetClassEPKcbb
}
{
root_jets_96
Memcheck:Leak
match-leak-kinds: possible
fun:_Znwm
fun:_ZNSs4_Rep9_S_createEmmRKSaIcE
fun:_ZNSs12_S_constructIPKcEEPcT_S3_RKSaIcESt20forward_iterator_tag
fun:_ZNSsC1EPKcRKSaIcE
fun:_ZN6TClass8AddClassEPS_
fun:_ZN6TClass4InitEPKcsPKSt9type_infoP16TVirtualIsAProxyPFvPvR16TMemberInspectorES1_S1_iib
fun:_ZN6TClassC1EPKcsRKSt9type_infoP16TVirtualIsAProxyPFvPvR16TMemberInspectorES1_S1_iib
fun:_ZN4ROOT11CreateClassEPKcsRKSt9type_infoP16TVirtualIsAProxyPFvPvR16TMemberInspectorES1_S1_ii
fun:_ZN4ROOT17TGenericClassInfo8GetClassEv
fun:_ZN11AliVCluster10DictionaryEv
fun:_ZNK5TROOT9LoadClassEPKcb
fun:_ZN6TClass8GetClassEPKcbb
}
{
root_jets_97
Memcheck:Leak
match-leak-kinds: possible
fun:_Znwm
fun:_ZNSs4_Rep9_S_createEmmRKSaIcE
fun:_ZNSs12_S_constructIPKcEEPcT_S3_RKSaIcESt20forward_iterator_tag
fun:_ZNSsC1EPKcRKSaIcE
fun:_ZN6TClass8AddClassEPS_
fun:_ZN6TClass4InitEPKcsPKSt9type_infoP16TVirtualIsAProxyPFvPvR16TMemberInspectorES1_S1_iib
fun:_ZN6TClassC1EPKcsRKSt9type_infoP16TVirtualIsAProxyPFvPvR16TMemberInspectorES1_S1_iib
fun:_ZN4ROOT11CreateClassEPKcsRKSt9type_infoP16TVirtualIsAProxyPFvPvR16TMemberInspectorES1_S1_ii
fun:_ZN4ROOT17TGenericClassInfo8GetClassEv
fun:_ZN11AliAODTZERO10DictionaryEv
fun:_ZNK5TROOT9LoadClassEPKcb
fun:_ZN6TClass8GetClassEPKcbb
}
{
root_jets_98
Memcheck:Leak
match-leak-kinds: possible
fun:_Znwm
fun:_ZNSs4_Rep9_S_createEmmRKSaIcE
fun:_ZNSs12_S_constructIPKcEEPcT_S3_RKSaIcESt20forward_iterator_tag
fun:_ZNSsC1EPKcRKSaIcE
fun:_ZN6TClass8AddClassEPS_
fun:_ZN6TClass4InitEPKcsPKSt9type_infoP16TVirtualIsAProxyPFvPvR16TMemberInspectorES1_S1_iib
fun:_ZN6TClassC1EPKcsRKSt9type_infoP16TVirtualIsAProxyPFvPvR16TMemberInspectorES1_S1_iib
fun:_ZN4ROOT11CreateClassEPKcsRKSt9type_infoP16TVirtualIsAProxyPFvPvR16TMemberInspectorES1_S1_ii
fun:_ZN4ROOT17TGenericClassInfo8GetClassEv
fun:_ZN11AliAODVZERO10DictionaryEv
fun:_ZNK5TROOT9LoadClassEPKcb
fun:_ZN6TClass8GetClassEPKcbb
}
{
root_jets_99
Memcheck:Leak
match-leak-kinds: possible
fun:_Znwm
fun:_ZNSs4_Rep9_S_createEmmRKSaIcE
fun:_ZNSs12_S_constructIPKcEEPcT_S3_RKSaIcESt20forward_iterator_tag
fun:_ZNSsC1EPKcRKSaIcE
fun:_ZN6TClass8AddClassEPS_
fun:_ZN6TClass4InitEPKcsPKSt9type_infoP16TVirtualIsAProxyPFvPvR16TMemberInspectorES1_S1_iib
fun:_ZN6TClassC1EPKcsRKSt9type_infoP16TVirtualIsAProxyPFvPvR16TMemberInspectorES1_S1_iib
fun:_ZN4ROOT11CreateClassEPKcsRKSt9type_infoP16TVirtualIsAProxyPFvPvR16TMemberInspectorES1_S1_ii
fun:_ZN4ROOT17TGenericClassInfo8GetClassEv
fun:_ZN11AliAODEvent10DictionaryEv
fun:_ZNK5TROOT9LoadClassEPKcb
fun:_ZN6TClass8GetClassEPKcbb
}
{
root_jets_100
Memcheck:Leak
match-leak-kinds: possible
fun:_Znwm
fun:_ZNSs4_Rep9_S_createEmmRKSaIcE
fun:_ZNSs12_S_constructIPKcEEPcT_S3_RKSaIcESt20forward_iterator_tag
fun:_ZNSsC1EPKcRKSaIcE
fun:_ZN6TClass8AddClassEPS_
fun:_ZN6TClass4InitEPKcsPKSt9type_infoP16TVirtualIsAProxyPFvPvR16TMemberInspectorES1_S1_iib
fun:_ZN6TClassC1EPKcsRKSt9type_infoP16TVirtualIsAProxyPFvPvR16TMemberInspectorES1_S1_iib
fun:_ZN4ROOT11CreateClassEPKcsRKSt9type_infoP16TVirtualIsAProxyPFvPvR16TMemberInspectorES1_S1_ii
fun:_ZN4ROOT17TGenericClassInfo8GetClassEv
fun:_ZN11TBufferFile5ClassEv
fun:_ZNK7TObject9ClassNameEv
fun:_ZNK7TObject7DoErrorEiPKcS1_P13__va_list_tag
}
{
root_jets_101
Memcheck:Leak
match-leak-kinds: possible
fun:_Znwm
fun:_ZNSs4_Rep9_S_createEmmRKSaIcE
fun:_ZNSs12_S_constructIPKcEEPcT_S3_RKSaIcESt20forward_iterator_tag
fun:_ZNSsC1EPKcRKSaIcE
fun:_ZN6TClass8AddClassEPS_
fun:_ZN6TClass4InitEPKcsPKSt9type_infoP16TVirtualIsAProxyPFvPvR16TMemberInspectorES1_S1_iib
fun:_ZN6TClassC1EPKcsRKSt9type_infoP16TVirtualIsAProxyPFvPvR16TMemberInspectorES1_S1_iib
fun:_ZN4ROOT11CreateClassEPKcsRKSt9type_infoP16TVirtualIsAProxyPFvPvR16TMemberInspectorES1_S1_ii
fun:_ZN4ROOT17TGenericClassInfo8GetClassEv
fun:_ZN11TTreePlayer10DictionaryEv
fun:_ZNK5TROOT9LoadClassEPKcb
fun:_ZN14TPluginHandler10LoadPluginEv
}
{
root_jets_102
Memcheck:Leak
match-leak-kinds: possible
fun:_Znwm
fun:_ZNSs4_Rep9_S_createEmmRKSaIcE
fun:_ZNSs9_M_mutateEmmm
fun:_ZNSs15_M_replace_safeEmmPKcm
fun:_ZN9TClassRef6AssignEP6TClass
fun:_ZN10TBaseClass15GetClassPointerEb
fun:_ZN8TQObject23CollectClassSignalListsER5TListP6TClass
fun:_ZN8TQObject4EmitEPKc
fun:_ZN5TRintC1EPKcPiPPcPvib
fun:main
}
{
root_jets_103
Memcheck:Leak
match-leak-kinds: possible
fun:_Znwm
fun:_ZNSs4_Rep9_S_createEmmRKSaIcE
fun:_ZNSs12_S_constructIPKcEEPcT_S3_RKSaIcESt20forward_iterator_tag
fun:_ZNSsC1EPKcRKSaIcE
fun:_ZN6TClass8AddClassEPS_
fun:_ZN6TClass4InitEPKcsPKSt9type_infoP16TVirtualIsAProxyPFvPvR16TMemberInspectorES1_S1_iib
fun:_ZN6TClassC1EPKcsRKSt9type_infoP16TVirtualIsAProxyPFvPvR16TMemberInspectorES1_S1_iib
fun:_ZN7TQClassC1EPKcsRKSt9type_infoP16TVirtualIsAProxyPFvPvR16TMemberInspectorES1_S1_ii
fun:_ZNK4ROOT20TQObjectInitBehavior11CreateClassEPKcsRKSt9type_infoP16TVirtualIsAProxyPFvPvR16TMemberInspectorES2_S2_ii
fun:_ZN4ROOT17TGenericClassInfo8GetClassEv
fun:_ZN12TFileHandler5ClassEv
fun:_ZN8TQObject4EmitEPKc
}
{
root_jets_104
Memcheck:Leak
match-leak-kinds: possible
fun:_Znwm
fun:_ZNSs4_Rep9_S_createEmmRKSaIcE
fun:_ZNSs9_M_mutateEmmm
fun:_ZNSs15_M_replace_safeEmmPKcm
fun:_ZN9TClassRef6AssignEP6TClass
fun:_ZN10TBaseClass15GetClassPointerEb
fun:_ZN8TQObject23CollectClassSignalListsER5TListP6TClass
fun:_ZN8TQObject4EmitEPKc
fun:_ZN5TRintC1EPKcPiPPcPvib
fun:main
}
{
root_jets_105
Memcheck:Leak
match-leak-kinds: possible
fun:_Znwm
fun:_ZNSs4_Rep9_S_createEmmRKSaIcE
fun:_ZNSs9_M_mutateEmmm
fun:_ZNSs15_M_replace_safeEmmPKcm
fun:_ZN9TClassRef6AssignEP6TClass
fun:_ZN10TBaseClass15GetClassPointerEb
fun:_ZN6TClass12GetBaseClassEPKS_
fun:_ZNK6TClass12InheritsFromEPKS_
fun:_ZNK6TClass8PropertyEv
fun:_ZNK6TClass9IsForeignEv
fun:_ZN6TClass13PostLoadCheckEv
fun:_ZN6TClass8GetClassERKSt9type_infobb
}
{
root_jets_106
Memcheck:Leak
match-leak-kinds: possible
fun:_Znwm
fun:_ZNSs4_Rep9_S_createEmmRKSaIcE
fun:_ZNSs12_S_constructIPKcEEPcT_S3_RKSaIcESt20forward_iterator_tag
fun:_ZNSsC1EPKcRKSaIcE
fun:_ZN6TClass8AddClassEPS_
fun:_ZN6TClass4InitEPKcsPKSt9type_infoP16TVirtualIsAProxyPFvPvR16TMemberInspectorES1_S1_iib
fun:_ZN6TClassC1EPKcsRKSt9type_infoP16TVirtualIsAProxyPFvPvR16TMemberInspectorES1_S1_iib
fun:_ZN4ROOT11CreateClassEPKcsRKSt9type_infoP16TVirtualIsAProxyPFvPvR16TMemberInspectorES1_S1_ii
fun:_ZN4ROOT17TGenericClassInfo8GetClassEv
fun:_ZN12TStreamerSTL10DictionaryEv
fun:_ZNK5TROOT9LoadClassEPKcb
fun:_ZN6TClass8GetClassEPKcbb
}
{
root_jets_107
Memcheck:Leak
match-leak-kinds: possible
fun:_Znwm
fun:_ZNSs4_Rep9_S_createEmmRKSaIcE
fun:_ZNSs12_S_constructIPKcEEPcT_S3_RKSaIcESt20forward_iterator_tag
fun:_ZNSsC1EPKcRKSaIcE
fun:_ZN6TClass8AddClassEPS_
fun:_ZN6TClass4InitEPKcsPKSt9type_infoP16TVirtualIsAProxyPFvPvR16TMemberInspectorES1_S1_iib
fun:_ZN6TClassC1EPKcsRKSt9type_infoP16TVirtualIsAProxyPFvPvR16TMemberInspectorES1_S1_iib
fun:_ZN4ROOT11CreateClassEPKcsRKSt9type_infoP16TVirtualIsAProxyPFvPvR16TMemberInspectorES1_S1_ii
fun:_ZN4ROOT17TGenericClassInfo8GetClassEv
fun:_ZN12AliAODHeader10DictionaryEv
fun:_ZNK5TROOT9LoadClassEPKcb
fun:_ZN6TClass8GetClassEPKcbb
}
{
root_jets_108
Memcheck:Leak
match-leak-kinds: possible
fun:_Znwm
fun:_ZNSs4_Rep9_S_createEmmRKSaIcE
fun:_ZNSs12_S_constructIPKcEEPcT_S3_RKSaIcESt20forward_iterator_tag
fun:_ZNSsC1EPKcRKSaIcE
fun:_ZN6TClass8AddClassEPS_
fun:_ZN6TClass4InitEPKcsPKSt9type_infoP16TVirtualIsAProxyPFvPvR16TMemberInspectorES1_S1_iib
fun:_ZN6TClassC1EPKcsRKSt9type_infoP16TVirtualIsAProxyPFvPvR16TMemberInspectorES1_S1_iib
fun:_ZN4ROOT11CreateClassEPKcsRKSt9type_infoP16TVirtualIsAProxyPFvPvR16TMemberInspectorES1_S1_ii
fun:_ZN4ROOT17TGenericClassInfo8GetClassEv
fun:_ZN12TClonesArray10DictionaryEv
fun:_ZNK5TROOT9LoadClassEPKcb
fun:_ZN6TClass8GetClassEPKcbb
}
{
root_jets_109
Memcheck:Leak
match-leak-kinds: possible
fun:_Znwm
fun:_ZNSs4_Rep9_S_createEmmRKSaIcE
fun:_ZNSs12_S_constructIPKcEEPcT_S3_RKSaIcESt20forward_iterator_tag
fun:_ZNSsC1EPKcRKSaIcE
fun:_ZN6TClass8AddClassEPS_
fun:_ZN6TClass4InitEPKcsPKSt9type_infoP16TVirtualIsAProxyPFvPvR16TMemberInspectorES1_S1_iib
fun:_ZN6TClassC1EPKcsRKSt9type_infoP16TVirtualIsAProxyPFvPvR16TMemberInspectorES1_S1_iib
fun:_ZN4ROOT11CreateClassEPKcsRKSt9type_infoP16TVirtualIsAProxyPFvPvR16TMemberInspectorES1_S1_ii
fun:_ZN4ROOT17TGenericClassInfo8GetClassEv
fun:_ZN12AliVParticle10DictionaryEv
fun:_ZNK5TROOT9LoadClassEPKcb
fun:_ZN6TClass8GetClassEPKcbb
}
{
root_jets_110
Memcheck:Leak
match-leak-kinds: possible
fun:_Znwm
fun:_ZNSs4_Rep9_S_createEmmRKSaIcE
fun:_ZNSs12_S_constructIPKcEEPcT_S3_RKSaIcESt20forward_iterator_tag
fun:_ZNSsC1EPKcRKSaIcE
fun:_ZN6TClass8AddClassEPS_
fun:_ZN6TClass4InitEPKcsPKSt9type_infoP16TVirtualIsAProxyPFvPvR16TMemberInspectorES1_S1_iib
fun:_ZN6TClassC1EPKcsRKSt9type_infoP16TVirtualIsAProxyPFvPvR16TMemberInspectorES1_S1_iib
fun:_ZN4ROOT11CreateClassEPKcsRKSt9type_infoP16TVirtualIsAProxyPFvPvR16TMemberInspectorES1_S1_ii
fun:_ZN4ROOT17TGenericClassInfo8GetClassEv
fun:_ZN12AliAODVertex10DictionaryEv
fun:_ZNK5TROOT9LoadClassEPKcb
fun:_ZN6TClass8GetClassEPKcbb
}
{
root_jets_111
Memcheck:Leak
match-leak-kinds: possible
fun:_Znwm
fun:_ZNSs4_Rep9_S_createEmmRKSaIcE
fun:_ZNSs12_S_constructIPKcEEPcT_S3_RKSaIcESt20forward_iterator_tag
fun:_ZNSsC1EPKcRKSaIcE
fun:_ZN6TClass8AddClassEPS_
fun:_ZN6TClass4InitEPKcsPKSt9type_infoP16TVirtualIsAProxyPFvPvR16TMemberInspectorES1_S1_iib
fun:_ZN6TClassC1EPKcsRKSt9type_infoP16TVirtualIsAProxyPFvPvR16TMemberInspectorES1_S1_iib
fun:_ZN4ROOT11CreateClassEPKcsRKSt9type_infoP16TVirtualIsAProxyPFvPvR16TMemberInspectorES1_S1_ii
fun:_ZN4ROOT17TGenericClassInfo8GetClassEv
fun:_ZN12AliAODDimuon10DictionaryEv
fun:_ZNK5TROOT9LoadClassEPKcb
fun:_ZN6TClass8GetClassEPKcbb
}
{
root_jets_112
Memcheck:Leak
match-leak-kinds: possible
fun:_Znwm
fun:_ZNSs4_Rep9_S_createEmmRKSaIcE
fun:_ZNSs12_S_constructIPKcEEPcT_S3_RKSaIcESt20forward_iterator_tag
fun:_ZNSsC1EPKcRKSaIcE
fun:_ZN6TClass8AddClassEPS_
fun:_ZN6TClass4InitEPKcsPKSt9type_infoP16TVirtualIsAProxyPFvPvR16TMemberInspectorES1_S1_iib
fun:_ZN6TClassC1EPKcsRKSt9type_infoP16TVirtualIsAProxyPFvPvR16TMemberInspectorES1_S1_iib
fun:_ZN4ROOT11CreateClassEPKcsRKSt9type_infoP16TVirtualIsAProxyPFvPvR16TMemberInspectorES1_S1_ii
fun:_ZN4ROOT17TGenericClassInfo8GetClassEv
fun:_ZN12AliTOFHeader10DictionaryEv
fun:_ZNK5TROOT9LoadClassEPKcb
fun:_ZN6TClass8GetClassEPKcbb
}
{
root_jets_113
Memcheck:Leak
match-leak-kinds: possible
fun:_Znwm
fun:_ZNSs4_Rep9_S_createEmmRKSaIcE
fun:_ZNSs12_S_constructIPKcEEPcT_S3_RKSaIcESt20forward_iterator_tag
fun:_ZNSsC1EPKcRKSaIcE
fun:_ZN6TClass8AddClassEPS_
fun:_ZN6TClass4InitEPKcsPKSt9type_infoP16TVirtualIsAProxyPFvPvR16TMemberInspectorES1_S1_iib
fun:_ZN6TClassC1EPKcsRKSt9type_infoP16TVirtualIsAProxyPFvPvR16TMemberInspectorES1_S1_iib
fun:_ZN4ROOT11CreateClassEPKcsRKSt9type_infoP16TVirtualIsAProxyPFvPvR16TMemberInspectorES1_S1_ii
fun:_ZN4ROOT17TGenericClassInfo8GetClassEv
fun:_ZN12TLeafElement10DictionaryEv
fun:_ZNK5TROOT9LoadClassEPKcb
fun:_ZN6TClass8GetClassEPKcbb
}
{
root_jets_114
Memcheck:Leak
match-leak-kinds: possible
fun:_Znwm
fun:_ZNSs4_Rep9_S_createEmmRKSaIcE
fun:_ZNSs9_M_mutateEmmm
fun:_ZNSs15_M_replace_safeEmmPKcm
fun:_ZN19TGenCollectionProxyC1ERKN4ROOT20TCollectionProxyInfoEP6TClass
fun:_ZN23TCollectionProxyFactory16GenExplicitProxyERKN4ROOT20TCollectionProxyInfoEP6TClass
fun:_ZN6TClass18SetCollectionProxyERKN4ROOT20TCollectionProxyInfoE
fun:_ZN4ROOT17TGenericClassInfo8GetClassEv
fun:_ZNK5TROOT9LoadClassEPKcb
fun:_ZN6TClass8GetClassEPKcbb
fun:_ZN14TBuildRealData7InspectEP6TClassPKcS3_PKv
fun:_ZN9TRefTable11ShowMembersER16TMemberInspector
}
{
root_jets_115
Memcheck:Leak
match-leak-kinds: possible
fun:_Znwm
fun:_ZNSs4_Rep9_S_createEmmRKSaIcE
fun:_ZNSs12_S_constructIPKcEEPcT_S3_RKSaIcESt20forward_iterator_tag
fun:_ZNSsC1EPKcRKSaIcE
fun:_ZN6TClass8AddClassEPS_
fun:_ZN6TClass4InitEPKcsPKSt9type_infoP16TVirtualIsAProxyPFvPvR16TMemberInspectorES1_S1_iib
fun:_ZN6TClassC1EPKcsRKSt9type_infoP16TVirtualIsAProxyPFvPvR16TMemberInspectorES1_S1_iib
fun:_ZN7TQClassC1EPKcsRKSt9type_infoP16TVirtualIsAProxyPFvPvR16TMemberInspectorES1_S1_ii
fun:_ZNK4ROOT20TQObjectInitBehavior11CreateClassEPKcsRKSt9type_infoP16TVirtualIsAProxyPFvPvR16TMemberInspectorES2_S2_ii
fun:_ZN4ROOT17TGenericClassInfo8GetClassEv
fun:_ZN12TApplication10DictionaryEv
fun:_ZNK5TROOT9LoadClassEPKcb
}
{
root_jets_116
Memcheck:Leak
match-leak-kinds: possible
fun:_Znwm
fun:_ZN5TCint23CreateListOfBaseClassesEP6TClass
fun:_ZN6TClass14GetListOfBasesEv
fun:_ZN8TQObject23CollectClassSignalListsER5TListP6TClass
fun:_ZN8TQObject4EmitEPKc
fun:_ZN5TRintC1EPKcPiPPcPvib
fun:main
}
{
root_jets_117
Memcheck:Leak
match-leak-kinds: possible
fun:_Znwm
fun:_ZN5TCint23CreateListOfBaseClassesEP6TClass
fun:_ZN6TClass14GetListOfBasesEv
fun:_ZN8TQObject23CollectClassSignalListsER5TListP6TClass
fun:_ZN8TQObject4EmitEPKc
fun:_ZN5TRintC1EPKcPiPPcPvib
fun:main
}
{
root_jets_118
Memcheck:Leak
match-leak-kinds: possible
fun:_Znwm
fun:_ZNSs4_Rep9_S_createEmmRKSaIcE
fun:_ZNSs12_S_constructIPKcEEPcT_S3_RKSaIcESt20forward_iterator_tag
fun:_ZNSsC1EPKcRKSaIcE
fun:_ZN6TClass8AddClassEPS_
fun:_ZN6TClass4InitEPKcsPKSt9type_infoP16TVirtualIsAProxyPFvPvR16TMemberInspectorES1_S1_iib
fun:_ZN6TClassC1EPKcsRKSt9type_infoP16TVirtualIsAProxyPFvPvR16TMemberInspectorES1_S1_iib
fun:_ZN4ROOT11CreateClassEPKcsRKSt9type_infoP16TVirtualIsAProxyPFvPvR16TMemberInspectorES1_S1_ii
fun:_ZN4ROOT17TGenericClassInfo8GetClassEv
fun:_ZN13TStreamerInfo10DictionaryEv
fun:_ZNK5TROOT9LoadClassEPKcb
fun:_ZN6TClass8GetClassEPKcbb
}
{
root_jets_119
Memcheck:Leak
match-leak-kinds: possible
fun:_Znwm
fun:_ZNSs4_Rep9_S_createEmmRKSaIcE
fun:_ZNSs12_S_constructIPKcEEPcT_S3_RKSaIcESt20forward_iterator_tag
fun:_ZNSsC1EPKcRKSaIcE
fun:_ZN6TClass8AddClassEPS_
fun:_ZN6TClass4InitEPKcsPKSt9type_infoP16TVirtualIsAProxyPFvPvR16TMemberInspectorES1_S1_iib
fun:_ZN6TClassC1EPKcsRKSt9type_infoP16TVirtualIsAProxyPFvPvR16TMemberInspectorES1_S1_iib
fun:_ZN4ROOT11CreateClassEPKcsRKSt9type_infoP16TVirtualIsAProxyPFvPvR16TMemberInspectorES1_S1_ii
fun:_ZN4ROOT17TGenericClassInfo8GetClassEv
fun:_ZN13TStreamerBase10DictionaryEv
fun:_ZNK5TROOT9LoadClassEPKcb
fun:_ZN6TClass8GetClassEPKcbb
}
{
root_jets_120
Memcheck:Leak
match-leak-kinds: possible
fun:_Znwm
fun:_ZNSs4_Rep9_S_createEmmRKSaIcE
fun:_ZNSs12_S_constructIPKcEEPcT_S3_RKSaIcESt20forward_iterator_tag
fun:_ZNSsC1EPKcRKSaIcE
fun:_ZN6TClass8AddClassEPS_
fun:_ZN6TClass4InitEPKcsPKSt9type_infoP16TVirtualIsAProxyPFvPvR16TMemberInspectorES1_S1_iib
fun:_ZN6TClassC1EPKcsRKSt9type_infoP16TVirtualIsAProxyPFvPvR16TMemberInspectorES1_S1_iib
fun:_ZN4ROOT11CreateClassEPKcsRKSt9type_infoP16TVirtualIsAProxyPFvPvR16TMemberInspectorES1_S1_ii
fun:_ZN4ROOT17TGenericClassInfo8GetClassEv
fun:_ZN13TStreamerLoop10DictionaryEv
fun:_ZNK5TROOT9LoadClassEPKcb
fun:_ZN6TClass8GetClassEPKcbb
}
{
root_jets_121
Memcheck:Leak
match-leak-kinds: possible
fun:_Znwm
fun:_ZNSs4_Rep9_S_createEmmRKSaIcE
fun:_ZNSs12_S_constructIPKcEEPcT_S3_RKSaIcESt20forward_iterator_tag
fun:_ZNSsC1EPKcRKSaIcE
fun:_ZN6TClass8AddClassEPS_
fun:_ZN6TClass4InitEPKcsPKSt9type_infoP16TVirtualIsAProxyPFvPvR16TMemberInspectorES1_S1_iib
fun:_ZN6TClassC1EPKcsRKSt9type_infoP16TVirtualIsAProxyPFvPvR16TMemberInspectorES1_S1_iib
fun:_ZN4ROOT11CreateClassEPKcsRKSt9type_infoP16TVirtualIsAProxyPFvPvR16TMemberInspectorES1_S1_ii
fun:_ZN4ROOT17TGenericClassInfo8GetClassEv
fun:_ZN13AliCentrality10DictionaryEv
fun:_ZNK5TROOT9LoadClassEPKcb
fun:_ZN6TClass8GetClassEPKcbb
}
{
root_jets_122
Memcheck:Leak
match-leak-kinds: possible
fun:_Znwm
fun:_ZNSs4_Rep9_S_createEmmRKSaIcE
fun:_ZNSs12_S_constructIPKcEEPcT_S3_RKSaIcESt20forward_iterator_tag
fun:_ZNSsC1EPKcRKSaIcE
fun:_ZN6TClass8AddClassEPS_
fun:_ZN6TClass4InitEPKcsPKSt9type_infoP16TVirtualIsAProxyPFvPvR16TMemberInspectorES1_S1_iib
fun:_ZN6TClassC1EPKcsRKSt9type_infoP16TVirtualIsAProxyPFvPvR16TMemberInspectorES1_S1_iib
fun:_ZN4ROOT11CreateClassEPKcsRKSt9type_infoP16TVirtualIsAProxyPFvPvR16TMemberInspectorES1_S1_ii
fun:_ZN4ROOT17TGenericClassInfo8GetClassEv
fun:_ZN13AliEventplane10DictionaryEv
fun:_ZNK5TROOT9LoadClassEPKcb
fun:_ZN6TClass8GetClassEPKcbb
}
{
root_jets_123
Memcheck:Leak
match-leak-kinds: possible
fun:_Znwm
fun:_ZNSs4_Rep9_S_createEmmRKSaIcE
fun:_ZNSs12_S_constructIPKcEEPcT_S3_RKSaIcESt20forward_iterator_tag
fun:_ZNSsC1EPKcRKSaIcE
fun:_ZN6TClass8AddClassEPS_
fun:_ZN6TClass4InitEPKcsPKSt9type_infoP16TVirtualIsAProxyPFvPvR16TMemberInspectorES1_S1_iib
fun:_ZN6TClassC1EPKcsRKSt9type_infoP16TVirtualIsAProxyPFvPvR16TMemberInspectorES1_S1_iib
fun:_ZN4ROOT11CreateClassEPKcsRKSt9type_infoP16TVirtualIsAProxyPFvPvR16TMemberInspectorES1_S1_ii
fun:_ZN4ROOT17TGenericClassInfo8GetClassEv
fun:_ZN13AliAODcascade10DictionaryEv
fun:_ZNK5TROOT9LoadClassEPKcb
fun:_ZN6TClass8GetClassEPKcbb
}
{
root_jets_124
Memcheck:Leak
match-leak-kinds: possible
fun:_Znwm
fun:_ZNSs4_Rep9_S_createEmmRKSaIcE
fun:_ZNSs12_S_constructIPKcEEPcT_S3_RKSaIcESt20forward_iterator_tag
fun:_ZNSsC1EPKcRKSaIcE
fun:_ZN6TClass8AddClassEPS_
fun:_ZN6TClass4InitEPKcsPKSt9type_infoP16TVirtualIsAProxyPFvPvR16TMemberInspectorES1_S1_iib
fun:_ZN6TClassC1EPKcsRKSt9type_infoP16TVirtualIsAProxyPFvPvR16TMemberInspectorES1_S1_iib
fun:_ZN4ROOT11CreateClassEPKcsRKSt9type_infoP16TVirtualIsAProxyPFvPvR16TMemberInspectorES1_S1_ii
fun:_ZN4ROOT17TGenericClassInfo8GetClassEv
fun:_ZN13AliVCaloCells10DictionaryEv
fun:_ZNK5TROOT9LoadClassEPKcb
fun:_ZN6TClass8GetClassEPKcbb
}
{
root_jets_125
Memcheck:Leak
match-leak-kinds: possible
fun:_Znwm
fun:_ZNSs4_Rep9_S_createEmmRKSaIcE
fun:_ZNSs12_S_constructIPKcEEPcT_S3_RKSaIcESt20forward_iterator_tag
fun:_ZNSsC1EPKcRKSaIcE
fun:_ZN6TClass8AddClassEPS_
fun:_ZN6TClass4InitEPKcsPKSt9type_infoP16TVirtualIsAProxyPFvPvR16TMemberInspectorES1_S1_iib
fun:_ZN6TClassC1EPKcsRKSt9type_infoP16TVirtualIsAProxyPFvPvR16TMemberInspectorES1_S1_iib
fun:_ZN4ROOT11CreateClassEPKcsRKSt9type_infoP16TVirtualIsAProxyPFvPvR16TMemberInspectorES1_S1_ii
fun:_ZN4ROOT17TGenericClassInfo8GetClassEv
fun:_ZN13AliAODCluster10DictionaryEv
fun:_ZNK5TROOT9LoadClassEPKcb
fun:_ZN6TClass8GetClassEPKcbb
}
{
root_jets_126
Memcheck:Leak
match-leak-kinds: possible
fun:_Znwm
fun:_ZNSs4_Rep9_S_createEmmRKSaIcE
fun:_ZNSs12_S_constructIPKcEEPcT_S3_RKSaIcESt20forward_iterator_tag
fun:_ZNSsC1EPKcRKSaIcE
fun:_ZN6TClass8AddClassEPS_
fun:_ZN6TClass4InitEPKcsPKSt9type_infoP16TVirtualIsAProxyPFvPvR16TMemberInspectorES1_S1_iib
fun:_ZN6TClassC1EPKcsRKSt9type_infoP16TVirtualIsAProxyPFvPvR16TMemberInspectorES1_S1_iib
fun:_ZN4ROOT11CreateClassEPKcsRKSt9type_infoP16TVirtualIsAProxyPFvPvR16TMemberInspectorES1_S1_ii
fun:_ZN4ROOT17TGenericClassInfo8GetClassEv
fun:_ZN13AliESDpidCuts10DictionaryEv
fun:_ZNK5TROOT9LoadClassEPKcb
fun:_ZN6TClass8GetClassEPKcbb
}
{
root_jets_127
Memcheck:Leak
match-leak-kinds: possible
fun:_Znwm
fun:_ZNSs4_Rep9_S_createEmmRKSaIcE
fun:_ZNSs12_S_constructIPKcEEPcT_S3_RKSaIcESt20forward_iterator_tag
fun:_ZNSsC1EPKcRKSaIcE
fun:_ZN6TClass8AddClassEPS_
fun:_ZN6TClass4InitEPKcsPKSt9type_infoP16TVirtualIsAProxyPFvPvR16TMemberInspectorES1_S1_iib
fun:_ZN6TClassC1EPKcsRKSt9type_infoP16TVirtualIsAProxyPFvPvR16TMemberInspectorES1_S1_iib
fun:_ZN4ROOT11CreateClassEPKcsRKSt9type_infoP16TVirtualIsAProxyPFvPvR16TMemberInspectorES1_S1_ii
fun:_ZN4ROOT17TGenericClassInfo8GetClassEv
fun:_ZNK5TROOT9LoadClassEPKcb
fun:_ZN6TClass8GetClassEPKcbb
fun:_ZN13TStreamerInfo10BuildCheckEv
}
{
root_jets_128
Memcheck:Leak
match-leak-kinds: possible
fun:_Znwm
fun:_ZNSs4_Rep9_S_createEmmRKSaIcE
fun:_ZNSs12_S_constructIPKcEEPcT_S3_RKSaIcESt20forward_iterator_tag
fun:_ZNSsC1EPKcRKSaIcE
fun:_ZN6TClass8AddClassEPS_
fun:_ZN6TClass4InitEPKcsPKSt9type_infoP16TVirtualIsAProxyPFvPvR16TMemberInspectorES1_S1_iib
fun:_ZN6TClassC1EPKcsRKSt9type_infoP16TVirtualIsAProxyPFvPvR16TMemberInspectorES1_S1_iib
fun:_ZN4ROOT11CreateClassEPKcsRKSt9type_infoP16TVirtualIsAProxyPFvPvR16TMemberInspectorES1_S1_ii
fun:_ZN4ROOT17TGenericClassInfo8GetClassEv
fun:_ZN13TVirtualIndex10DictionaryEv
fun:_ZNK5TROOT9LoadClassEPKcb
fun:_ZN6TClass8GetClassEPKcbb
}
{
root_jets_129
Memcheck:Leak
match-leak-kinds: possible
fun:_Znwm
fun:_ZN5TCint23CreateListOfBaseClassesEP6TClass
fun:_ZN6TClass14GetListOfBasesEv
fun:_ZN8TQObject23CollectClassSignalListsER5TListP6TClass
fun:_ZN8TQObject4EmitEPKcl
fun:_ZN12TApplication9TerminateEi
fun:_ZN5TRint3RunEb
fun:main
}
{
root_jets_130
Memcheck:Leak
match-leak-kinds: possible
fun:_Znwm
fun:_ZNSs4_Rep9_S_createEmmRKSaIcE
fun:_ZNSs12_S_constructIPKcEEPcT_S3_RKSaIcESt20forward_iterator_tag
fun:_ZNSsC1EPKcRKSaIcE
fun:_ZN6TClass8AddClassEPS_
fun:_ZN6TClass4InitEPKcsPKSt9type_infoP16TVirtualIsAProxyPFvPvR16TMemberInspectorES1_S1_iib
fun:_ZN6TClassC1EPKcsRKSt9type_infoP16TVirtualIsAProxyPFvPvR16TMemberInspectorES1_S1_iib
fun:_ZN7TQClassC1EPKcsRKSt9type_infoP16TVirtualIsAProxyPFvPvR16TMemberInspectorES1_S1_ii
fun:_ZNK4ROOT20TQObjectInitBehavior11CreateClassEPKcsRKSt9type_infoP16TVirtualIsAProxyPFvPvR16TMemberInspectorES2_S2_ii
fun:_ZN4ROOT17TGenericClassInfo8GetClassEv
fun:_ZN14TSignalHandler5ClassEv
fun:_ZN8TQObject4EmitEPKc
}
{
root_jets_131
Memcheck:Leak
match-leak-kinds: possible
fun:_Znwm
fun:_ZNSs4_Rep9_S_createEmmRKSaIcE
fun:_ZNSs12_S_constructIPKcEEPcT_S3_RKSaIcESt20forward_iterator_tag
fun:_ZNSsC1EPKcRKSaIcE
fun:_ZN6TClass8AddClassEPS_
fun:_ZN6TClass4InitEPKcsPKSt9type_infoP16TVirtualIsAProxyPFvPvR16TMemberInspectorES1_S1_iib
fun:_ZN6TClassC1EPKcsRKSt9type_infoP16TVirtualIsAProxyPFvPvR16TMemberInspectorES1_S1_iib
fun:_ZN7TQClassC1EPKcsRKSt9type_infoP16TVirtualIsAProxyPFvPvR16TMemberInspectorES1_S1_ii
fun:_ZNK4ROOT20TQObjectInitBehavior11CreateClassEPKcsRKSt9type_infoP16TVirtualIsAProxyPFvPvR16TMemberInspectorES2_S2_ii
fun:_ZN4ROOT17TGenericClassInfo8GetClassEv
fun:_ZN14TSysEvtHandler10DictionaryEv
fun:_ZNK5TROOT9LoadClassEPKcb
}
{
root_jets_132
Memcheck:Leak
match-leak-kinds: possible
fun:_Znwm
fun:_ZNSs4_Rep9_S_createEmmRKSaIcE
fun:_ZNSs12_S_constructIPKcEEPcT_S3_RKSaIcESt20forward_iterator_tag
fun:_ZNSsC1EPKcRKSaIcE
fun:_ZN6TClass8AddClassEPS_
fun:_ZN6TClass4InitEPKcsPKSt9type_infoP16TVirtualIsAProxyPFvPvR16TMemberInspectorES1_S1_iib
fun:_ZN6TClassC1EPKcsRKSt9type_infoP16TVirtualIsAProxyPFvPvR16TMemberInspectorES1_S1_iib
fun:_ZN4ROOT11CreateClassEPKcsRKSt9type_infoP16TVirtualIsAProxyPFvPvR16TMemberInspectorES1_S1_ii
fun:_ZN4ROOT17TGenericClassInfo8GetClassEv
fun:_ZN14TSeqCollection10DictionaryEv
fun:_ZNK5TROOT9LoadClassEPKcb
fun:_ZN6TClass8GetClassEPKcbb
}
{
root_jets_133
Memcheck:Leak
match-leak-kinds: possible
fun:_Znwm
fun:_ZNSs4_Rep9_S_createEmmRKSaIcE
fun:_ZNSs12_S_constructIPKcEEPcT_S3_RKSaIcESt20forward_iterator_tag
fun:_ZNSsC1EPKcRKSaIcE
fun:_ZN6TClass8AddClassEPS_
fun:_ZN6TClass4InitEPKcsPKSt9type_infoP16TVirtualIsAProxyPFvPvR16TMemberInspectorES1_S1_iib
fun:_ZN6TClassC1EPKcsRKSt9type_infoP16TVirtualIsAProxyPFvPvR16TMemberInspectorES1_S1_iib
fun:_ZN4ROOT11CreateClassEPKcsRKSt9type_infoP16TVirtualIsAProxyPFvPvR16TMemberInspectorES1_S1_ii
fun:_ZN4ROOT17TGenericClassInfo8GetClassEv
fun:_ZN14TDirectoryFile5ClassEv
fun:_ZN4TKey17ReadObjWithBufferEPc
fun:_ZN5TFile19GetStreamerInfoListEv
}
{
root_jets_134
Memcheck:Leak
match-leak-kinds: possible
fun:_Znwm
fun:_ZNSs4_Rep9_S_createEmmRKSaIcE
fun:_ZNSs12_S_constructIPKcEEPcT_S3_RKSaIcESt20forward_iterator_tag
fun:_ZNSsC1EPKcRKSaIcE
fun:_ZN6TClass8AddClassEPS_
fun:_ZN6TClass4InitEPKcsPKSt9type_infoP16TVirtualIsAProxyPFvPvR16TMemberInspectorES1_S1_iib
fun:_ZN6TClassC1EPKcsRKSt9type_infoP16TVirtualIsAProxyPFvPvR16TMemberInspectorES1_S1_iib
fun:_ZN4ROOT11CreateClassEPKcsRKSt9type_infoP16TVirtualIsAProxyPFvPvR16TMemberInspectorES1_S1_ii
fun:_ZN4ROOT17TGenericClassInfo8GetClassEv
fun:_ZN14AliTPCdEdxInfo10DictionaryEv
fun:_ZNK5TROOT9LoadClassEPKcb
fun:_ZN6TClass8GetClassEPKcbb
}
{
root_jets_135
Memcheck:Leak
match-leak-kinds: possible
fun:_Znwm
fun:_ZNSs4_Rep9_S_createEmmRKSaIcE
fun:_ZNSs12_S_constructIPKcEEPcT_S3_RKSaIcESt20forward_iterator_tag
fun:_ZNSsC1EPKcRKSaIcE
fun:_ZN6TClass8AddClassEPS_
fun:_ZN6TClass4InitEPKcsPKSt9type_infoP16TVirtualIsAProxyPFvPvR16TMemberInspectorES1_S1_iib
fun:_ZN6TClassC1EPKcsRKSt9type_infoP16TVirtualIsAProxyPFvPvR16TMemberInspectorES1_S1_iib
fun:_ZN4ROOT11CreateClassEPKcsRKSt9type_infoP16TVirtualIsAProxyPFvPvR16TMemberInspectorES1_S1_ii
fun:_ZN4ROOT17TGenericClassInfo8GetClassEv
fun:_ZN14TLorentzVector10DictionaryEv
fun:_ZNK5TROOT9LoadClassEPKcb
fun:_ZN6TClass8GetClassEPKcbb
}
{
root_jets_136
Memcheck:Leak
match-leak-kinds: possible
fun:_Znwm
fun:_ZNSs4_Rep9_S_createEmmRKSaIcE
fun:_ZNSs12_S_constructIPKcEEPcT_S3_RKSaIcESt20forward_iterator_tag
fun:_ZNSsC1EPKcRKSaIcE
fun:_ZN6TClass8AddClassEPS_
fun:_ZN6TClass4InitEPKcsPKSt9type_infoP16TVirtualIsAProxyPFvPvR16TMemberInspectorES1_S1_iib
fun:_ZN6TClassC1EPKcsRKSt9type_infoP16TVirtualIsAProxyPFvPvR16TMemberInspectorES1_S1_iib
fun:_ZN4ROOT11CreateClassEPKcsRKSt9type_infoP16TVirtualIsAProxyPFvPvR16TMemberInspectorES1_S1_ii
fun:_ZN4ROOT17TGenericClassInfo8GetClassEv
fun:_ZN14AliAODMCHeader10DictionaryEv
fun:_ZNK5TROOT9LoadClassEPKcb
fun:_ZN6TClass8GetClassEPKcbb
}
{
root_jets_137
Memcheck:Leak
match-leak-kinds: possible
fun:_Znwm
fun:_ZNSs4_Rep9_S_createEmmRKSaIcE
fun:_ZNSs12_S_constructIPKcEEPcT_S3_RKSaIcESt20forward_iterator_tag
fun:_ZNSsC1EPKcRKSaIcE
fun:_ZN6TClass8AddClassEPS_
fun:_ZN6TClass4InitEPKcsPKSt9type_infoP16TVirtualIsAProxyPFvPvR16TMemberInspectorES1_S1_iib
fun:_ZN6TClassC1EPKcsRKSt9type_infoP16TVirtualIsAProxyPFvPvR16TMemberInspectorES1_S1_iib
fun:_ZN4ROOT11CreateClassEPKcsRKSt9type_infoP16TVirtualIsAProxyPFvPvR16TMemberInspectorES1_S1_ii
fun:_ZN4ROOT17TGenericClassInfo8GetClassEv
fun:_ZN14TBranchElement10DictionaryEv
fun:_ZNK5TROOT9LoadClassEPKcb
fun:_ZN6TClass8GetClassEPKcbb
}
{
root_jets_138
Memcheck:Leak
match-leak-kinds: possible
fun:_Znwm
fun:_ZNSs4_Rep9_S_createEmmRKSaIcE
fun:_ZNSs9_M_mutateEmmm
fun:_ZNSs15_M_replace_safeEmmPKcm
fun:_ZN9TClassRef6AssignEP6TClass
fun:_ZN4ROOT14TSchemaRuleSet8SetClassEP6TClass
fun:_ZN6TClass14GetSchemaRulesEb
fun:_ZN6TClass7AddRuleEPKc
fun:_ZNK6TClass31GetStreamerInfoAbstractEmulatedEi
fun:_ZN6TClass21BuildEmulatedRealDataEPKclPS_
fun:_ZN6TClass21BuildEmulatedRealDataEPKclPS_
fun:_ZN6TClass21BuildEmulatedRealDataEPKclPS_
}
{
root_jets_139
Memcheck:Leak
match-leak-kinds: possible
fun:_Znwm
fun:_ZNSs4_Rep9_S_createEmmRKSaIcE
fun:_ZNSs12_S_constructIPKcEEPcT_S3_RKSaIcESt20forward_iterator_tag
fun:_ZNSsC1EPKcRKSaIcE
fun:_ZN6TClass8AddClassEPS_
fun:_ZN6TClass4InitEPKcsPKSt9type_infoP16TVirtualIsAProxyPFvPvR16TMemberInspectorES1_S1_iib
fun:_ZN6TClassC1EPKcsRKSt9type_infoP16TVirtualIsAProxyPFvPvR16TMemberInspectorES1_S1_iib
fun:_ZN4ROOT11CreateClassEPKcsRKSt9type_infoP16TVirtualIsAProxyPFvPvR16TMemberInspectorES1_S1_ii
fun:_ZN4ROOT17TGenericClassInfo8GetClassEv
fun:_ZN15TStreamerObject10DictionaryEv
fun:_ZNK5TROOT9LoadClassEPKcb
fun:_ZN6TClass8GetClassEPKcbb
}
{
root_jets_140
Memcheck:Leak
match-leak-kinds: possible
fun:_Znwm
fun:_ZNSs4_Rep9_S_createEmmRKSaIcE
fun:_ZNSs12_S_constructIPKcEEPcT_S3_RKSaIcESt20forward_iterator_tag
fun:_ZNSsC1EPKcRKSaIcE
fun:_ZN6TClass8AddClassEPS_
fun:_ZN6TClass4InitEPKcsPKSt9type_infoP16TVirtualIsAProxyPFvPvR16TMemberInspectorES1_S1_iib
fun:_ZN6TClassC1EPKcsRKSt9type_infoP16TVirtualIsAProxyPFvPvR16TMemberInspectorES1_S1_iib
fun:_ZN4ROOT11CreateClassEPKcsRKSt9type_infoP16TVirtualIsAProxyPFvPvR16TMemberInspectorES1_S1_ii
fun:_ZN4ROOT17TGenericClassInfo8GetClassEv
fun:_ZN15TStreamerString10DictionaryEv
fun:_ZNK5TROOT9LoadClassEPKcb
fun:_ZN6TClass8GetClassEPKcbb
}
{
root_jets_141
Memcheck:Leak
match-leak-kinds: possible
fun:_Znwm
fun:_ZNSs4_Rep9_S_createEmmRKSaIcE
fun:_ZNSs12_S_constructIPKcEEPcT_S3_RKSaIcESt20forward_iterator_tag
fun:_ZNSsC1EPKcRKSaIcE
fun:_ZN6TClass8AddClassEPS_
fun:_ZN6TClass4InitEPKcsPKSt9type_infoP16TVirtualIsAProxyPFvPvR16TMemberInspectorES1_S1_iib
fun:_ZN6TClassC1EPKcsRKSt9type_infoP16TVirtualIsAProxyPFvPvR16TMemberInspectorES1_S1_iib
fun:_ZN4ROOT11CreateClassEPKcsRKSt9type_infoP16TVirtualIsAProxyPFvPvR16TMemberInspectorES1_S1_ii
fun:_ZN4ROOT17TGenericClassInfo8GetClassEv
fun:_ZN15AliAODRecoDecay10DictionaryEv
fun:_ZNK5TROOT9LoadClassEPKcb
fun:_ZN6TClass8GetClassEPKcbb
}
{
root_jets_142
Memcheck:Leak
match-leak-kinds: possible
fun:_Znwm
fun:_ZNSs4_Rep9_S_createEmmRKSaIcE
fun:_ZNSs12_S_constructIPKcEEPcT_S3_RKSaIcESt20forward_iterator_tag
fun:_ZNSsC1EPKcRKSaIcE
fun:_ZN6TClass8AddClassEPS_
fun:_ZN6TClass4InitEPKcsPKSt9type_infoP16TVirtualIsAProxyPFvPvR16TMemberInspectorES1_S1_iib
fun:_ZN6TClassC1EPKcsRKSt9type_infoP16TVirtualIsAProxyPFvPvR16TMemberInspectorES1_S1_iib
fun:_ZN4ROOT11CreateClassEPKcsRKSt9type_infoP16TVirtualIsAProxyPFvPvR16TMemberInspectorES1_S1_ii
fun:_ZN4ROOT17TGenericClassInfo8GetClassEv
fun:_ZN15AliAODTracklets10DictionaryEv
fun:_ZNK5TROOT9LoadClassEPKcb
fun:_ZN6TClass8GetClassEPKcbb
}
{
root_jets_143
Memcheck:Leak
match-leak-kinds: possible
fun:_Znwm
fun:_ZNSs4_Rep9_S_createEmmRKSaIcE
fun:_ZNSs12_S_constructIPKcEEPcT_S3_RKSaIcESt20forward_iterator_tag
fun:_ZNSsC1EPKcRKSaIcE
fun:_ZN6TClass8AddClassEPS_
fun:_ZN6TClass4InitEPKcsPKSt9type_infoP16TVirtualIsAProxyPFvPvR16TMemberInspectorES1_S1_iib
fun:_ZN6TClassC1EPKcsRKSt9type_infoP16TVirtualIsAProxyPFvPvR16TMemberInspectorES1_S1_iib
fun:_ZN4ROOT11CreateClassEPKcsRKSt9type_infoP16TVirtualIsAProxyPFvPvR16TMemberInspectorES1_S1_ii
fun:_ZN4ROOT17TGenericClassInfo8GetClassEv
fun:_ZN15AliAODCaloCells10DictionaryEv
fun:_ZNK5TROOT9LoadClassEPKcb
fun:_ZN6TClass8GetClassEPKcbb
}
{
root_jets_144
Memcheck:Leak
match-leak-kinds: possible
fun:_Znwm
fun:_ZNSs4_Rep9_S_createEmmRKSaIcE
fun:_ZNSs12_S_constructIPKcEEPcT_S3_RKSaIcESt20forward_iterator_tag
fun:_ZNSsC1EPKcRKSaIcE
fun:_ZN6TClass8AddClassEPS_
fun:_ZN6TClass4InitEPKcsPKSt9type_infoP16TVirtualIsAProxyPFvPvR16TMemberInspectorES1_S1_iib
fun:_ZN6TClassC1EPKcsRKSt9type_infoP16TVirtualIsAProxyPFvPvR16TMemberInspectorES1_S1_iib
fun:_ZN4ROOT11CreateClassEPKcsRKSt9type_infoP16TVirtualIsAProxyPFvPvR16TMemberInspectorES1_S1_ii
fun:_ZN4ROOT17TGenericClassInfo8GetClassEv
fun:_ZN15AliVCaloTrigger10DictionaryEv
fun:_ZNK5TROOT9LoadClassEPKcb
fun:_ZN6TClass8GetClassEPKcbb
}
{
root_jets_145
Memcheck:Leak
match-leak-kinds: possible
fun:_Znwm
fun:_ZNSs4_Rep9_S_createEmmRKSaIcE
fun:_ZNSs12_S_constructIPKcEEPcT_S3_RKSaIcESt20forward_iterator_tag
fun:_ZNSsC1EPKcRKSaIcE
fun:_ZN6TClass8AddClassEPS_
fun:_ZN6TClass4InitEPKcsPKSt9type_infoP16TVirtualIsAProxyPFvPvR16TMemberInspectorES1_S1_iib
fun:_ZN6TClassC1EPKcsRKSt9type_infoP16TVirtualIsAProxyPFvPvR16TMemberInspectorES1_S1_iib
fun:_ZN4ROOT11CreateClassEPKcsRKSt9type_infoP16TVirtualIsAProxyPFvPvR16TMemberInspectorES1_S1_ii
fun:_ZN4ROOT17TGenericClassInfo8GetClassEv
fun:_ZN15AliESDtrackCuts10DictionaryEv
fun:_ZNK5TROOT9LoadClassEPKcb
fun:_ZN6TClass8GetClassEPKcbb
}
{
root_jets_146
Memcheck:Leak
match-leak-kinds: possible
fun:_Znwm
fun:_ZNSs4_Rep9_S_createEmmRKSaIcE
fun:_ZNSs12_S_constructIPKcEEPcT_S3_RKSaIcESt20forward_iterator_tag
fun:_ZNSsC1EPKcRKSaIcE
fun:_ZN6TClass8AddClassEPS_
fun:_ZN6TClass4InitEPKcsPKSt9type_infoP16TVirtualIsAProxyPFvPvR16TMemberInspectorES1_S1_iib
fun:_ZN6TClassC1EPKcsRKSt9type_infoP16TVirtualIsAProxyPFvPvR16TMemberInspectorES1_S1_iib
fun:_ZN4ROOT11CreateClassEPKcsRKSt9type_infoP16TVirtualIsAProxyPFvPvR16TMemberInspectorES1_S1_ii
fun:_ZN4ROOT17TGenericClassInfo8GetClassEv
fun:_ZN15AliAnalysisCuts10DictionaryEv
fun:_ZNK5TROOT9LoadClassEPKcb
fun:_ZN6TClass8GetClassEPKcbb
}
{
root_jets_147
Memcheck:Leak
match-leak-kinds: possible
fun:_Znwm
fun:_ZNSs4_Rep9_S_createEmmRKSaIcE
fun:_ZNSs12_S_constructIPKcEEPcT_S3_RKSaIcESt20forward_iterator_tag
fun:_ZNSsC1EPKcRKSaIcE
fun:_ZN6TClass8AddClassEPS_
fun:_ZN6TClass4InitEPKcsPKSt9type_infoP16TVirtualIsAProxyPFvPvR16TMemberInspectorES1_S1_iib
fun:_ZN6TClassC1EPKcsRKSt9type_infoP16TVirtualIsAProxyPFvPvR16TMemberInspectorES1_S1_iib
fun:_ZN7TQClassC1EPKcsRKSt9type_infoP16TVirtualIsAProxyPFvPvR16TMemberInspectorES1_S1_ii
fun:_ZNK4ROOT20TQObjectInitBehavior11CreateClassEPKcsRKSt9type_infoP16TVirtualIsAProxyPFvPvR16TMemberInspectorES2_S2_ii
fun:_ZN4ROOT17TGenericClassInfo8GetClassEv
fun:_ZN15TMessageHandler5ClassEv
fun:_ZN8TQObject4EmitEPKc
}
{
root_jets_148
Memcheck:Leak
match-leak-kinds: possible
fun:_Znwm
fun:_ZNSs4_Rep9_S_createEmmRKSaIcE
fun:_ZNSs12_S_constructIPKcEEPcT_S3_RKSaIcESt20forward_iterator_tag
fun:_ZNSsC1EPKcRKSaIcE
fun:_ZN6TClass8AddClassEPS_
fun:_ZN6TClass4InitEPKcsPKSt9type_infoP16TVirtualIsAProxyPFvPvR16TMemberInspectorES1_S1_iib
fun:_ZN6TClassC1EPKcsRKSt9type_infoP16TVirtualIsAProxyPFvPvR16TMemberInspectorES1_S1_iib
fun:_ZN4ROOT11CreateClassEPKcsRKSt9type_infoP16TVirtualIsAProxyPFvPvR16TMemberInspectorES1_S1_ii
fun:_ZN4ROOT17TGenericClassInfo8GetClassEv
fun:_ZN16TStreamerElement5ClassEv
fun:_ZN13TStreamerInfo5BuildEv
fun:_ZN11TBufferFile15ReadClassBufferEPK6TClassPvS2_
}
{
root_jets_149
Memcheck:Leak
match-leak-kinds: possible
fun:_Znwm
fun:_ZNSs4_Rep9_S_createEmmRKSaIcE
fun:_ZNSs12_S_constructIPKcEEPcT_S3_RKSaIcESt20forward_iterator_tag
fun:_ZNSsC1EPKcRKSaIcE
fun:_ZN6TClass8AddClassEPS_
fun:_ZN6TClass4InitEPKcsPKSt9type_infoP16TVirtualIsAProxyPFvPvR16TMemberInspectorES1_S1_iib
fun:_ZN6TClassC1EPKcsRKSt9type_infoP16TVirtualIsAProxyPFvPvR16TMemberInspectorES1_S1_iib
fun:_ZN4ROOT11CreateClassEPKcsRKSt9type_infoP16TVirtualIsAProxyPFvPvR16TMemberInspectorES1_S1_ii
fun:_ZN4ROOT17TGenericClassInfo8GetClassEv
fun:_ZN16AliAODFmdCluster10DictionaryEv
fun:_ZNK5TROOT9LoadClassEPKcb
fun:_ZN6TClass8GetClassEPKcbb
}
{
root_jets_150
Memcheck:Leak
match-leak-kinds: possible
fun:_Znwm
fun:_ZNSs4_Rep9_S_createEmmRKSaIcE
fun:_ZNSs12_S_constructIPKcEEPcT_S3_RKSaIcESt20forward_iterator_tag
fun:_ZNSsC1EPKcRKSaIcE
fun:_ZN6TClass8AddClassEPS_
fun:_ZN6TClass4InitEPKcsPKSt9type_infoP16TVirtualIsAProxyPFvPvR16TMemberInspectorES1_S1_iib
fun:_ZN6TClassC1EPKcsRKSt9type_infoP16TVirtualIsAProxyPFvPvR16TMemberInspectorES1_S1_iib
fun:_ZN4ROOT11CreateClassEPKcsRKSt9type_infoP16TVirtualIsAProxyPFvPvR16TMemberInspectorES1_S1_ii
fun:_ZN4ROOT17TGenericClassInfo8GetClassEv
fun:_ZN16AliAODPmdCluster10DictionaryEv
fun:_ZNK5TROOT9LoadClassEPKcb
fun:_ZN6TClass8GetClassEPKcbb
}
{
root_jets_151
Memcheck:Leak
match-leak-kinds: possible
fun:_Znwm
fun:_ZNSs4_Rep9_S_createEmmRKSaIcE
fun:_ZNSs12_S_constructIPKcEEPcT_S3_RKSaIcESt20forward_iterator_tag
fun:_ZNSsC1EPKcRKSaIcE
fun:_ZN6TClass8AddClassEPS_
fun:_ZN6TClass4InitEPKcsPKSt9type_infoP16TVirtualIsAProxyPFvPvR16TMemberInspectorES1_S1_iib
fun:_ZN6TClassC1EPKcsRKSt9type_infoP16TVirtualIsAProxyPFvPvR16TMemberInspectorES1_S1_iib
fun:_ZN4ROOT11CreateClassEPKcsRKSt9type_infoP16TVirtualIsAProxyPFvPvR16TMemberInspectorES1_S1_ii
fun:_ZN4ROOT17TGenericClassInfo8GetClassEv
fun:_ZN16AliAODHMPIDrings10DictionaryEv
fun:_ZNK5TROOT9LoadClassEPKcb
fun:_ZN6TClass8GetClassEPKcbb
}
{
root_jets_152
Memcheck:Leak
match-leak-kinds: possible
fun:_Znwm
fun:_ZNSs4_Rep9_S_createEmmRKSaIcE
fun:_ZNSs12_S_constructIPKcEEPcT_S3_RKSaIcESt20forward_iterator_tag
fun:_ZNSsC1EPKcRKSaIcE
fun:_ZN6TClass8AddClassEPS_
fun:_ZN6TClass4InitEPKcsPKSt9type_infoP16TVirtualIsAProxyPFvPvR16TMemberInspectorES1_S1_iib
fun:_ZN6TClassC1EPKcsRKSt9type_infoP16TVirtualIsAProxyPFvPvR16TMemberInspectorES1_S1_iib
fun:_ZN4ROOT11CreateClassEPKcsRKSt9type_infoP16TVirtualIsAProxyPFvPvR16TMemberInspectorES1_S1_ii
fun:_ZN4ROOT17TGenericClassInfo8GetClassEv
fun:_ZN16AliAODMCParticle10DictionaryEv
fun:_ZNK5TROOT9LoadClassEPKcb
fun:_ZN6TClass8GetClassEPKcbb
}
{
root_jets_153
Memcheck:Leak
match-leak-kinds: possible
fun:_Znwm
fun:_ZNSs4_Rep9_S_createEmmRKSaIcE
fun:_ZNSs12_S_constructIPKcEEPcT_S3_RKSaIcESt20forward_iterator_tag
fun:_ZNSsC1EPKcRKSaIcE
fun:_ZN6TClass8AddClassEPS_
fun:_ZN6TClass4InitEPKcsPKSt9type_infoP16TVirtualIsAProxyPFvPvR16TMemberInspectorES1_S1_iib
fun:_ZN6TClassC1EPKcsRKSt9type_infoP16TVirtualIsAProxyPFvPvR16TMemberInspectorES1_S1_iib
fun:_ZN4ROOT11CreateClassEPKcsRKSt9type_infoP16TVirtualIsAProxyPFvPvR16TMemberInspectorES1_S1_ii
fun:_ZN4ROOT17TGenericClassInfo8GetClassEv
fun:_ZN17AliAODCaloCluster10DictionaryEv
fun:_ZNK5TROOT9LoadClassEPKcb
fun:_ZN6TClass8GetClassEPKcbb
}
{
root_jets_154
Memcheck:Leak
match-leak-kinds: possible
fun:_Znwm
fun:_ZNSs4_Rep9_S_createEmmRKSaIcE
fun:_ZNSs12_S_constructIPKcEEPcT_S3_RKSaIcESt20forward_iterator_tag
fun:_ZNSsC1EPKcRKSaIcE
fun:_ZN6TClass8AddClassEPS_
fun:_ZN6TClass4InitEPKcsPKSt9type_infoP16TVirtualIsAProxyPFvPvR16TMemberInspectorES1_S1_iib
fun:_ZN6TClassC1EPKcsRKSt9type_infoP16TVirtualIsAProxyPFvPvR16TMemberInspectorES1_S1_iib
fun:_ZN4ROOT11CreateClassEPKcsRKSt9type_infoP16TVirtualIsAProxyPFvPvR16TMemberInspectorES1_S1_ii
fun:_ZN4ROOT17TGenericClassInfo8GetClassEv
fun:_ZN17AliAODCaloTrigger10DictionaryEv
fun:_ZNK5TROOT9LoadClassEPKcb
fun:_ZN6TClass8GetClassEPKcbb
}
{
root_jets_155
Memcheck:Leak
match-leak-kinds: possible
fun:_Znwm
fun:_ZNSs4_Rep9_S_createEmmRKSaIcE
fun:_ZNSs12_S_constructIPKcEEPcT_S3_RKSaIcESt20forward_iterator_tag
fun:_ZNSsC1EPKcRKSaIcE
fun:_ZN6TClass8AddClassEPS_
fun:_ZN6TClass4InitEPKcsPKSt9type_infoP16TVirtualIsAProxyPFvPvR16TMemberInspectorES1_S1_iib
fun:_ZN6TClassC1EPKcsRKSt9type_infoP16TVirtualIsAProxyPFvPvR16TMemberInspectorES1_S1_iib
fun:_ZN4ROOT11CreateClassEPKcsRKSt9type_infoP16TVirtualIsAProxyPFvPvR16TMemberInspectorES1_S1_ii
fun:_ZN4ROOT17TGenericClassInfo8GetClassEv
fun:_ZN17AliTOFTriggerMask10DictionaryEv
fun:_ZNK5TROOT9LoadClassEPKcb
fun:_ZN6TClass8GetClassEPKcbb
}
{
root_jets_156
Memcheck:Leak
match-leak-kinds: possible
fun:_Znwm
fun:_ZNSs4_Rep9_S_createEmmRKSaIcE
fun:_ZNSs12_S_constructIPKcEEPcT_S3_RKSaIcESt20forward_iterator_tag
fun:_ZNSsC1EPKcRKSaIcE
fun:_ZN6TClass8AddClassEPS_
fun:_ZN6TClass4InitEPKcsPKSt9type_infoP16TVirtualIsAProxyPFvPvR16TMemberInspectorES1_S1_iib
fun:_ZN6TClassC1EPKcsRKSt9type_infoP16TVirtualIsAProxyPFvPvR16TMemberInspectorES1_S1_iib
fun:_ZN4ROOT11CreateClassEPKcsRKSt9type_infoP16TVirtualIsAProxyPFvPvR16TMemberInspectorES1_S1_ii
fun:_ZN4ROOT17TGenericClassInfo8GetClassEv
fun:_ZN17AliGenEventHeader10DictionaryEv
fun:_ZNK5TROOT9LoadClassEPKcb
fun:_ZN6TClass8GetClassEPKcbb
}
{
root_jets_157
Memcheck:Leak
match-leak-kinds: possible
fun:_Znwm
fun:_ZNSs4_Rep9_S_createEmmRKSaIcE
fun:_ZNSs12_S_constructIPKcEEPcT_S3_RKSaIcESt20forward_iterator_tag
fun:_ZNSsC1EPKcRKSaIcE
fun:_ZN6TClass8AddClassEPS_
fun:_ZN6TClass4InitEPKcsPKSt9type_infoP16TVirtualIsAProxyPFvPvR16TMemberInspectorES1_S1_iib
fun:_ZN6TClassC1EPKcsRKSt9type_infoP16TVirtualIsAProxyPFvPvR16TMemberInspectorES1_S1_iib
fun:_ZN4ROOT11CreateClassEPKcsRKSt9type_infoP16TVirtualIsAProxyPFvPvR16TMemberInspectorES1_S1_ii
fun:_ZN4ROOT17TGenericClassInfo8GetClassEv
fun:_ZN17AliAnalysisFilter10DictionaryEv
fun:_ZNK5TROOT9LoadClassEPKcb
fun:_ZN6TClass8GetClassEPKcbb
}
{
root_jets_158
Memcheck:Leak
match-leak-kinds: possible
fun:_Znwm
fun:_ZNSs4_Rep9_S_createEmmRKSaIcE
fun:_ZNSs12_S_constructIPKcEEPcT_S3_RKSaIcESt20forward_iterator_tag
fun:_ZNSsC1EPKcRKSaIcE
fun:_ZN6TClass8AddClassEPS_
fun:_ZN6TClass4InitEPKcsPKSt9type_infoP16TVirtualIsAProxyPFvPvR16TMemberInspectorES1_S1_iib
fun:_ZN6TClassC1EPKcsRKSt9type_infoP16TVirtualIsAProxyPFvPvR16TMemberInspectorES1_S1_iib
fun:_ZN4ROOT11CreateClassEPKcsRKSt9type_infoP16TVirtualIsAProxyPFvPvR16TMemberInspectorES1_S1_ii
fun:_ZN4ROOT17TGenericClassInfo8GetClassEv
fun:_ZN17AliTrackReference10DictionaryEv
fun:_ZNK5TROOT9LoadClassEPKcb
fun:_ZN6TClass8GetClassEPKcbb
}
{
root_jets_159
Memcheck:Leak
match-leak-kinds: possible
fun:_Znwm
fun:_ZNSs4_Rep9_S_createEmmRKSaIcE
fun:_ZNSs12_S_constructIPKcEEPcT_S3_RKSaIcESt20forward_iterator_tag
fun:_ZNSsC1EPKcRKSaIcE
fun:_ZN6TClass8AddClassEPS_
fun:_ZN6TClass4InitEPKcsPKSt9type_infoP16TVirtualIsAProxyPFvPvR16TMemberInspectorES1_S1_iib
fun:_ZN6TClassC1EPKcsRKSt9type_infoP16TVirtualIsAProxyPFvPvR16TMemberInspectorES1_S1_iib
fun:_ZN4ROOT11CreateClassEPKcsRKSt9type_infoP16TVirtualIsAProxyPFvPvR16TMemberInspectorES1_S1_ii
fun:_ZN4ROOT17TGenericClassInfo8GetClassEv
fun:_ZN17AliAnalysisTaskSE5ClassEv
fun:_ZL28G__G__ANALYSISalice_618_0_34P8G__valuePKcP8G__parami
fun:_ZN4Cint19G__ExceptionWrapperEPFiP8G__valuePKcP8G__paramiES1_PcS5_i
}
{
root_jets_160
Memcheck:Leak
match-leak-kinds: possible
fun:_Znwm
fun:_ZNSs4_Rep9_S_createEmmRKSaIcE
fun:_ZNSs12_S_constructIPKcEEPcT_S3_RKSaIcESt20forward_iterator_tag
fun:_ZNSsC1EPKcRKSaIcE
fun:_ZN6TClass8AddClassEPS_
fun:_ZN6TClass4InitEPKcsPKSt9type_infoP16TVirtualIsAProxyPFvPvR16TMemberInspectorES1_S1_iib
fun:_ZN6TClassC1EPKcsRKSt9type_infoP16TVirtualIsAProxyPFvPvR16TMemberInspectorES1_S1_iib
fun:_ZN4ROOT11CreateClassEPKcsRKSt9type_infoP16TVirtualIsAProxyPFvPvR16TMemberInspectorES1_S1_ii
fun:_ZN4ROOT17TGenericClassInfo8GetClassEv
fun:_ZN18TStreamerBasicType10DictionaryEv
fun:_ZNK5TROOT9LoadClassEPKcb
fun:_ZN6TClass8GetClassEPKcbb
}
{
root_jets_161
Memcheck:Leak
match-leak-kinds: possible
fun:_Znwm
fun:_ZNSs4_Rep9_S_createEmmRKSaIcE
fun:_ZNSs12_S_constructIPKcEEPcT_S3_RKSaIcESt20forward_iterator_tag
fun:_ZNSsC1EPKcRKSaIcE
fun:_ZN6TClass8AddClassEPS_
fun:_ZN6TClass4InitEPKcsPKSt9type_infoP16TVirtualIsAProxyPFvPvR16TMemberInspectorES1_S1_iib
fun:_ZN6TClassC1EPKcsRKSt9type_infoP16TVirtualIsAProxyPFvPvR16TMemberInspectorES1_S1_iib
fun:_ZN4ROOT11CreateClassEPKcsRKSt9type_infoP16TVirtualIsAProxyPFvPvR16TMemberInspectorES1_S1_ii
fun:_ZN4ROOT17TGenericClassInfo8GetClassEv
fun:_ZN18TStreamerObjectAny10DictionaryEv
fun:_ZNK5TROOT9LoadClassEPKcb
fun:_ZN6TClass8GetClassEPKcbb
}
{
root_jets_162
Memcheck:Leak
match-leak-kinds: possible
fun:_Znwm
fun:_ZNSs4_Rep9_S_createEmmRKSaIcE
fun:_ZNSs12_S_constructIPKcEEPcT_S3_RKSaIcESt20forward_iterator_tag
fun:_ZNSsC1EPKcRKSaIcE
fun:_ZN6TClass8AddClassEPS_
fun:_ZN6TClass4InitEPKcsPKSt9type_infoP16TVirtualIsAProxyPFvPvR16TMemberInspectorES1_S1_iib
fun:_ZN6TClassC1EPKcsRKSt9type_infoP16TVirtualIsAProxyPFvPvR16TMemberInspectorES1_S1_iib
fun:_ZN4ROOT11CreateClassEPKcsRKSt9type_infoP16TVirtualIsAProxyPFvPvR16TMemberInspectorES1_S1_ii
fun:_ZN4ROOT17TGenericClassInfo8GetClassEv
fun:_ZN4ROOTL28AliAODRedCovlE6gR_DictionaryEv
fun:_ZNK5TROOT9LoadClassEPKcb
fun:_ZN6TClass8GetClassEPKcbb
}
{
root_jets_163
Memcheck:Leak
match-leak-kinds: possible
fun:_Znwm
fun:_ZNSs4_Rep9_S_createEmmRKSaIcE
fun:_ZNSs12_S_constructIPKcEEPcT_S3_RKSaIcESt20forward_iterator_tag
fun:_ZNSsC1EPKcRKSaIcE
fun:_ZN6TClass8AddClassEPS_
fun:_ZN6TClass4InitEPKcsPKSt9type_infoP16TVirtualIsAProxyPFvPvR16TMemberInspectorES1_S1_iib
fun:_ZN6TClassC1EPKcsRKSt9type_infoP16TVirtualIsAProxyPFvPvR16TMemberInspectorES1_S1_iib
fun:_ZN4ROOT11CreateClassEPKcsRKSt9type_infoP16TVirtualIsAProxyPFvPvR16TMemberInspectorES1_S1_ii
fun:_ZN4ROOT17TGenericClassInfo8GetClassEv
fun:_ZN4ROOTL28AliAODRedCovlE3gR_DictionaryEv
fun:_ZNK5TROOT9LoadClassEPKcb
fun:_ZN6TClass8GetClassEPKcbb
}
{
root_jets_164
Memcheck:Leak
match-leak-kinds: possible
fun:_Znwm
fun:_ZNSs4_Rep9_S_createEmmRKSaIcE
fun:_ZNSs12_S_constructIPKcEEPcT_S3_RKSaIcESt20forward_iterator_tag
fun:_ZNSsC1EPKcRKSaIcE
fun:_ZN6TClass8AddClassEPS_
fun:_ZN6TClass4InitEPKcsPKSt9type_infoP16TVirtualIsAProxyPFvPvR16TMemberInspectorES1_S1_iib
fun:_ZN6TClassC1EPKcsRKSt9type_infoP16TVirtualIsAProxyPFvPvR16TMemberInspectorES1_S1_iib
fun:_ZN4ROOT11CreateClassEPKcsRKSt9type_infoP16TVirtualIsAProxyPFvPvR16TMemberInspectorES1_S1_ii
fun:_ZN4ROOT17TGenericClassInfo8GetClassEv
fun:_ZN18TVirtualTreePlayer10DictionaryEv
fun:_ZNK5TROOT9LoadClassEPKcb
fun:_ZN6TClass8GetClassEPKcbb
}
{
root_jets_165
Memcheck:Leak
match-leak-kinds: possible
fun:_Znwm
fun:_ZNSs4_Rep9_S_createEmmRKSaIcE
fun:_ZNSs12_S_constructIPKcEEPcT_S3_RKSaIcESt20forward_iterator_tag
fun:_ZNSsC1EPKcRKSaIcE
fun:_ZN6TClass8AddClassEPS_
fun:_ZN6TClass4InitEPKcsPKSt9type_infoP16TVirtualIsAProxyPFvPvR16TMemberInspectorES1_S1_iib
fun:_ZN6TClassC1EPKcsRKSt9type_infoP16TVirtualIsAProxyPFvPvR16TMemberInspectorES1_S1_iib
fun:_ZN4ROOT11CreateClassEPKcsRKSt9type_infoP16TVirtualIsAProxyPFvPvR16TMemberInspectorES1_S1_ii
fun:_ZN4ROOT17TGenericClassInfo8GetClassEv
fun:_ZN18AliAnalysisManager5ClassEv
fun:_ZNK18AliAnalysisManager3IsAEv
fun:_ZNK7TObject9ClassNameEv
}
{
root_jets_166
Memcheck:Leak
match-leak-kinds: possible
fun:_Znwm
fun:_ZNSs4_Rep9_S_createEmmRKSaIcE
fun:_ZNSs12_S_constructIPKcEEPcT_S3_RKSaIcESt20forward_iterator_tag
fun:_ZNSsC1EPKcRKSaIcE
fun:_ZN6TClass8AddClassEPS_
fun:_ZN6TClass4InitEPKcsPKSt9type_infoP16TVirtualIsAProxyPFvPvR16TMemberInspectorES1_S1_iib
fun:_ZN6TClassC1EPKcsRKSt9type_infoP16TVirtualIsAProxyPFvPvR16TMemberInspectorES1_S1_iib
fun:_ZN4ROOT11CreateClassEPKcsRKSt9type_infoP16TVirtualIsAProxyPFvPvR16TMemberInspectorES1_S1_ii
fun:_ZN4ROOT17TGenericClassInfo8GetClassEv
fun:_ZN18AliAODInputHandler5ClassEv
fun:_ZNK18AliAODInputHandler3IsAEv
fun:_ZNK7TObject9ClassNameEv
}
{
root_jets_167
Memcheck:Leak
match-leak-kinds: possible
fun:_Znwm
fun:_ZNSs4_Rep9_S_createEmmRKSaIcE
fun:_ZNSs12_S_constructIPKcEEPcT_S3_RKSaIcESt20forward_iterator_tag
fun:_ZNSsC1EPKcRKSaIcE
fun:_ZN6TClass8AddClassEPS_
fun:_ZN6TClass4InitEPKcsPKSt9type_infoP16TVirtualIsAProxyPFvPvR16TMemberInspectorES1_S1_iib
fun:_ZN6TClassC1EPKcsRKSt9type_infoP16TVirtualIsAProxyPFvPvR16TMemberInspectorES1_S1_iib
fun:_ZN4ROOT11CreateClassEPKcsRKSt9type_infoP16TVirtualIsAProxyPFvPvR16TMemberInspectorES1_S1_ii
fun:_ZN4ROOT17TGenericClassInfo8GetClassEv
fun:_ZN19TStreamerArtificial5ClassEv
fun:_ZN13TStreamerInfo8BuildOldEv
fun:_ZN11TBufferFile15ReadClassBufferEPK6TClassPvijjS2_
}
{
root_jets_168
Memcheck:Leak
match-leak-kinds: possible
fun:_Znwm
fun:_ZNSs4_Rep9_S_createEmmRKSaIcE
fun:_ZNSs12_S_constructIPKcEEPcT_S3_RKSaIcESt20forward_iterator_tag
fun:_ZNSsC1EPKcRKSaIcE
fun:_ZN6TClass8AddClassEPS_
fun:_ZN6TClass4InitEPKcsPKSt9type_infoP16TVirtualIsAProxyPFvPvR16TMemberInspectorES1_S1_iib
fun:_ZN6TClassC1EPKcsRKSt9type_infoP16TVirtualIsAProxyPFvPvR16TMemberInspectorES1_S1_iib
fun:_ZN4ROOT11CreateClassEPKcsRKSt9type_infoP16TVirtualIsAProxyPFvPvR16TMemberInspectorES1_S1_ii
fun:_ZN4ROOT17TGenericClassInfo8GetClassEv
fun:_ZN20TVirtualStreamerInfo10DictionaryEv
fun:_ZNK5TROOT9LoadClassEPKcb
fun:_ZN6TClass8GetClassEPKcbb
}
{
root_jets_169
Memcheck:Leak
match-leak-kinds: possible
fun:_Znam
fun:_ZN7TString7ReplaceEiiPKci
fun:_ZN6TNamed8SetTitleEPKc
fun:_ZN6TClass4InitEPKcsPKSt9type_infoP16TVirtualIsAProxyPFvPvR16TMemberInspectorES1_S1_iib
fun:_ZN6TClassC1EPKcsRKSt9type_infoP16TVirtualIsAProxyPFvPvR16TMemberInspectorES1_S1_iib
fun:_ZN7TQClassC1EPKcsRKSt9type_infoP16TVirtualIsAProxyPFvPvR16TMemberInspectorES1_S1_ii
fun:_ZNK4ROOT20TQObjectInitBehavior11CreateClassEPKcsRKSt9type_infoP16TVirtualIsAProxyPFvPvR16TMemberInspectorES2_S2_ii
fun:_ZN4ROOT17TGenericClassInfo8GetClassEv
fun:_ZN8TQObject10DictionaryEv
fun:_ZNK5TROOT9LoadClassEPKcb
fun:_ZN6TClass8GetClassEPKcbb
fun:_ZN10TBaseClass15GetClassPointerEb
}
{
root_jets_170
Memcheck:Leak
match-leak-kinds: possible
fun:_Znam
fun:_ZN7TString7ReplaceEiiPKci
fun:_ZN6TNamed8SetTitleEPKc
fun:_ZN6TClass4InitEPKcsPKSt9type_infoP16TVirtualIsAProxyPFvPvR16TMemberInspectorES1_S1_iib
fun:_ZN6TClassC1EPKcsRKSt9type_infoP16TVirtualIsAProxyPFvPvR16TMemberInspectorES1_S1_iib
fun:_ZN7TQClassC1EPKcsRKSt9type_infoP16TVirtualIsAProxyPFvPvR16TMemberInspectorES1_S1_ii
fun:_ZNK4ROOT20TQObjectInitBehavior11CreateClassEPKcsRKSt9type_infoP16TVirtualIsAProxyPFvPvR16TMemberInspectorES2_S2_ii
fun:_ZN4ROOT17TGenericClassInfo8GetClassEv
fun:_ZN12TFileHandler5ClassEv
fun:_ZN8TQObject4EmitEPKc
fun:_ZN5TRintC1EPKcPiPPcPvib
fun:main
}
{
root_jets_171
Memcheck:Leak
match-leak-kinds: possible
fun:_Znwm
fun:_ZNSs4_Rep9_S_createEmmRKSaIcE
fun:_ZNSs12_S_constructIPKcEEPcT_S3_RKSaIcESt20forward_iterator_tag
fun:_ZNSsC1EPKcRKSaIcE
fun:_ZN6TClass8AddClassEPS_
fun:_ZN6TClass4InitEPKcsPKSt9type_infoP16TVirtualIsAProxyPFvPvR16TMemberInspectorES1_S1_iib
fun:_ZN6TClassC1EPKcsRKSt9type_infoP16TVirtualIsAProxyPFvPvR16TMemberInspectorES1_S1_iib
fun:_ZN4ROOT11CreateClassEPKcsRKSt9type_infoP16TVirtualIsAProxyPFvPvR16TMemberInspectorES1_S1_ii
fun:_ZN4ROOT17TGenericClassInfo8GetClassEv
fun:_ZN21TStreamerBasicPointer10DictionaryEv
fun:_ZNK5TROOT9LoadClassEPKcb
fun:_ZN6TClass8GetClassEPKcbb
}
{
root_jets_172
Memcheck:Leak
match-leak-kinds: possible
fun:_Znam
fun:_ZN7TString7ReplaceEiiPKci
fun:_ZN13TStreamerInfo7CompileEv
fun:_ZN13TStreamerInfo5BuildEv
fun:_ZNK6TClass15GetStreamerInfoEi
fun:_ZN13TStreamerInfo8BuildOldEv
fun:_ZN11TBufferFile15ReadClassBufferEPK6TClassPvS2_
fun:_ZN15AliESDtrackCuts8StreamerER7TBuffer
fun:_ZN11TBufferFile13ReadObjectAnyEPK6TClass
fun:_ZrsI7TObjectER7TBufferS2_RPT_
fun:_ZN5TList8StreamerER7TBuffer
fun:_ZN11TBufferFile13ReadObjectAnyEPK6TClass
}
{
root_jets_173
Memcheck:Leak
match-leak-kinds: possible
fun:_Znam
fun:_ZN7TString7ReplaceEiiPKci
fun:_ZN13TStreamerInfo7CompileEv
fun:_ZN13TStreamerInfo8BuildOldEv
fun:_ZN11TBufferFile15ReadClassBufferEPK6TClassPvS2_
fun:_ZN15AliESDtrackCuts8StreamerER7TBuffer
fun:_ZN11TBufferFile13ReadObjectAnyEPK6TClass
fun:_ZrsI7TObjectER7TBufferS2_RPT_
fun:_ZN5TList8StreamerER7TBuffer
fun:_ZN11TBufferFile13ReadObjectAnyEPK6TClass
fun:_ZN11TBufferFile13ReadFastArrayEPPvPK6TClassibP15TMemberStreamerS4_
fun:_ZN13TStreamerInfo10ReadBufferIPPcEEiR7TBufferRKT_iiii
}
{
root_jets_174
Memcheck:Leak
match-leak-kinds: possible
fun:_Znam
fun:_ZN7TString7ReplaceEiiPKci
fun:_ZN6TNamed8SetTitleEPKc
fun:_ZN6TClass4InitEPKcsPKSt9type_infoP16TVirtualIsAProxyPFvPvR16TMemberInspectorES1_S1_iib
fun:_ZN6TClassC1EPKcsRKSt9type_infoP16TVirtualIsAProxyPFvPvR16TMemberInspectorES1_S1_iib
fun:_ZN7TQClassC1EPKcsRKSt9type_infoP16TVirtualIsAProxyPFvPvR16TMemberInspectorES1_S1_ii
fun:_ZNK4ROOT20TQObjectInitBehavior11CreateClassEPKcsRKSt9type_infoP16TVirtualIsAProxyPFvPvR16TMemberInspectorES2_S2_ii
fun:_ZN4ROOT17TGenericClassInfo8GetClassEv
fun:_ZN5TRint5ClassEv
fun:_ZN8TQObject4EmitEPKcl
fun:_ZN12TApplication9TerminateEi
fun:_ZN5TRint3RunEb
}
{
root_jets_175
Memcheck:Leak
match-leak-kinds: possible
fun:_Znwm
fun:_ZN5TCint12SetClassInfoEP6TClassb
fun:_ZN6TClass11SetUnloadedEv
fun:_ZN4ROOT11RemoveClassEPKc
fun:_ZN4ROOT17TGenericClassInfoD1Ev
fun:__cxa_finalize
obj:/opt/alice/root/v5-34-11/lib/libCore.so.5.34
fun:_dl_fini
fun:__run_exit_handlers
fun:exit
fun:_ZN11TUnixSystem4ExitEib
fun:_ZN5TRint3RunEb
}
{
root_jets_176
Memcheck:Leak
match-leak-kinds: possible
fun:_Znwm
fun:_ZNSs4_Rep9_S_createEmmRKSaIcE
fun:_ZNSs12_S_constructIPKcEEPcT_S3_RKSaIcESt20forward_iterator_tag
fun:_ZNSsC1EPKcRKSaIcE
fun:_ZN6TClass8AddClassEPS_
fun:_ZN6TClass4InitEPKcsPKSt9type_infoP16TVirtualIsAProxyPFvPvR16TMemberInspectorES1_S1_iib
fun:_ZN6TClassC1EPKcsRKSt9type_infoP16TVirtualIsAProxyPFvPvR16TMemberInspectorES1_S1_iib
fun:_ZN4ROOT11CreateClassEPKcsRKSt9type_infoP16TVirtualIsAProxyPFvPvR16TMemberInspectorES1_S1_ii
fun:_ZN4ROOT17TGenericClassInfo8GetClassEv
fun:_ZN22TStreamerObjectPointer10DictionaryEv
fun:_ZNK5TROOT9LoadClassEPKcb
fun:_ZN6TClass8GetClassEPKcbb
}
{
root_jets_177
Memcheck:Leak
match-leak-kinds: possible
fun:_Znwm
fun:_ZNSs4_Rep9_S_createEmmRKSaIcE
fun:_ZNSs12_S_constructIPKcEEPcT_S3_RKSaIcESt20forward_iterator_tag
fun:_ZNSsC1EPKcRKSaIcE
fun:_ZN6TClass8AddClassEPS_
fun:_ZN6TClass4InitEPKcsPKSt9type_infoP16TVirtualIsAProxyPFvPvR16TMemberInspectorES1_S1_iib
fun:_ZN6TClassC1EPKcsRKSt9type_infoP16TVirtualIsAProxyPFvPvR16TMemberInspectorES1_S1_iib
fun:_ZN4ROOT11CreateClassEPKcsRKSt9type_infoP16TVirtualIsAProxyPFvPvR16TMemberInspectorES1_S1_ii
fun:_ZN4ROOT17TGenericClassInfo8GetClassEv
fun:_ZN23AliGenPythiaEventHeader10DictionaryEv
fun:_ZNK5TROOT9LoadClassEPKcb
fun:_ZN6TClass8GetClassEPKcbb
}
{
root_jets_178
Memcheck:Leak
match-leak-kinds: possible
fun:_Znwm
fun:_ZNSs4_Rep9_S_createEmmRKSaIcE
fun:_ZNSs12_S_constructIPKcEEPcT_S3_RKSaIcESt20forward_iterator_tag
fun:_ZNSsC1EPKcRKSaIcE
fun:_ZN6TClass8AddClassEPS_
fun:_ZN6TClass4InitEPKcsPKSt9type_infoP16TVirtualIsAProxyPFvPvR16TMemberInspectorES1_S1_iib
fun:_ZN6TClassC1EPKcsRKSt9type_infoP16TVirtualIsAProxyPFvPvR16TMemberInspectorES1_S1_iib
fun:_ZN4ROOT11CreateClassEPKcsRKSt9type_infoP16TVirtualIsAProxyPFvPvR16TMemberInspectorES1_S1_ii
fun:_ZN4ROOT17TGenericClassInfo8GetClassEv
fun:_ZN25TStreamerObjectAnyPointer10DictionaryEv
fun:_ZNK5TROOT9LoadClassEPKcb
fun:_ZN6TClass8GetClassEPKcbb
}
{
root_jets_179
Memcheck:Leak
match-leak-kinds: possible
fun:_Znwm
fun:_ZNSs4_Rep9_S_createEmmRKSaIcE
fun:_ZNSs12_S_constructIPKcEEPcT_S3_RKSaIcESt20forward_iterator_tag
fun:_ZNSsC1EPKcRKSaIcE
fun:_ZN6TClass8AddClassEPS_
fun:_ZN6TClass4InitEPKcsPKSt9type_infoP16TVirtualIsAProxyPFvPvR16TMemberInspectorES1_S1_iib
fun:_ZN6TClassC1EPKcsRKSt9type_infoP16TVirtualIsAProxyPFvPvR16TMemberInspectorES1_S1_iib
fun:_ZN4ROOT11CreateClassEPKcsRKSt9type_infoP16TVirtualIsAProxyPFvPvR16TMemberInspectorES1_S1_ii
fun:_ZN4ROOT17TGenericClassInfo8GetClassEv
fun:_ZN25AliAnalysisTaskJetCluster5ClassEv
fun:_ZNK25AliAnalysisTaskJetCluster3IsAEv
fun:_ZNK18AliAnalysisManager10CheckTasksEv
}
{
root_jets_180
Memcheck:Leak
match-leak-kinds: possible
fun:_Znam
fun:_ZN13TStreamerInfo7CompileEv
fun:_ZN13TStreamerInfo5BuildEv
fun:_ZN11TBufferFile15ReadClassBufferEPK6TClassPvijjS2_
fun:_ZN18TStreamerBasicType8StreamerER7TBuffer
fun:_ZN11TBufferFile13ReadObjectAnyEPK6TClass
fun:_ZN9TObjArray8StreamerER7TBuffer
fun:_ZN11TBufferFile13ReadObjectAnyEPK6TClass
fun:_ZrsI9TObjArrayER7TBufferS2_RPT_
fun:_ZN13TStreamerInfo8StreamerER7TBuffer
fun:_ZN11TBufferFile13ReadObjectAnyEPK6TClass
fun:_ZrsI7TObjectER7TBufferS2_RPT_
}
{
root_jets_181
Memcheck:Leak
match-leak-kinds: possible
fun:_Znam
fun:_ZN13TStreamerInfo7CompileEv
fun:_ZN13TStreamerInfo5BuildEv
fun:_ZN11TBufferFile15ReadClassBufferEPK6TClassPvijjS2_
fun:_ZN15TStreamerObject8StreamerER7TBuffer
fun:_ZN11TBufferFile13ReadObjectAnyEPK6TClass
fun:_ZN9TObjArray8StreamerER7TBuffer
fun:_ZN11TBufferFile13ReadObjectAnyEPK6TClass
fun:_ZrsI9TObjArrayER7TBufferS2_RPT_
fun:_ZN13TStreamerInfo8StreamerER7TBuffer
fun:_ZN11TBufferFile13ReadObjectAnyEPK6TClass
fun:_ZrsI7TObjectER7TBufferS2_RPT_
}
{
root_jets_182
Memcheck:Leak
match-leak-kinds: possible
fun:_Znam
fun:_ZN13TStreamerInfo7CompileEv
fun:_ZN13TStreamerInfo5BuildEv
fun:_ZN11TBufferFile15ReadClassBufferEPK6TClassPvijjS2_
fun:_ZN18TStreamerObjectAny8StreamerER7TBuffer
fun:_ZN11TBufferFile13ReadObjectAnyEPK6TClass
fun:_ZN9TObjArray8StreamerER7TBuffer
fun:_ZN11TBufferFile13ReadObjectAnyEPK6TClass
fun:_ZrsI9TObjArrayER7TBufferS2_RPT_
fun:_ZN13TStreamerInfo8StreamerER7TBuffer
fun:_ZN11TBufferFile13ReadObjectAnyEPK6TClass
fun:_ZrsI7TObjectER7TBufferS2_RPT_
}
{
root_jets_183
Memcheck:Leak
match-leak-kinds: possible
fun:_Znam
fun:_ZN13TStreamerInfo7CompileEv
fun:_ZN13TStreamerInfo5BuildEv
fun:_ZN11TBufferFile15ReadClassBufferEPK6TClassPvijjS2_
fun:_ZN15TStreamerString8StreamerER7TBuffer
fun:_ZN11TBufferFile13ReadObjectAnyEPK6TClass
fun:_ZN9TObjArray8StreamerER7TBuffer
fun:_ZN11TBufferFile13ReadObjectAnyEPK6TClass
fun:_ZrsI9TObjArrayER7TBufferS2_RPT_
fun:_ZN13TStreamerInfo8StreamerER7TBuffer
fun:_ZN11TBufferFile13ReadObjectAnyEPK6TClass
fun:_ZrsI7TObjectER7TBufferS2_RPT_
}
{
root_jets_184
Memcheck:Leak
match-leak-kinds: possible
fun:_Znam
fun:_ZN13TStreamerInfo7CompileEv
fun:_ZN13TStreamerInfo5BuildEv
fun:_ZN11TBufferFile15ReadClassBufferEPK6TClassPvijjS2_
fun:_ZN22TStreamerObjectPointer8StreamerER7TBuffer
fun:_ZN11TBufferFile13ReadObjectAnyEPK6TClass
fun:_ZN9TObjArray8StreamerER7TBuffer
fun:_ZN11TBufferFile13ReadObjectAnyEPK6TClass
fun:_ZrsI9TObjArrayER7TBufferS2_RPT_
fun:_ZN13TStreamerInfo8StreamerER7TBuffer
fun:_ZN11TBufferFile13ReadObjectAnyEPK6TClass
fun:_ZrsI7TObjectER7TBufferS2_RPT_
}
{
root_jets_185
Memcheck:Leak
match-leak-kinds: possible
fun:_Znam
fun:_ZN13TStreamerInfo7CompileEv
fun:_ZN13TStreamerInfo5BuildEv
fun:_ZN11TBufferFile15ReadClassBufferEPK6TClassPvS2_
fun:_ZN11TBufferFile13ReadObjectAnyEPK6TClass
fun:_ZN9TObjArray8StreamerER7TBuffer
fun:_ZN11TBufferFile13ReadObjectAnyEPK6TClass
fun:_ZrsI9TObjArrayER7TBufferS2_RPT_
fun:_ZN13TStreamerInfo8StreamerER7TBuffer
fun:_ZN11TBufferFile13ReadObjectAnyEPK6TClass
fun:_ZrsI7TObjectER7TBufferS2_RPT_
fun:_ZN5TList8StreamerER7TBuffer
}
{
root_jets_186
Memcheck:Leak
match-leak-kinds: possible
fun:_Znam
fun:_ZN13TStreamerInfo7CompileEv
fun:_ZN13TStreamerInfo8BuildOldEv
fun:_ZNK6TClass15GetStreamerInfoEi
fun:_ZN13TStreamerInfo8BuildOldEv
fun:_ZNK6TClass15GetStreamerInfoEi
fun:_ZN13TStreamerInfo5BuildEv
fun:_ZNK6TClass15GetStreamerInfoEi
fun:_ZN13TStreamerInfo8BuildOldEv
fun:_ZN11TBufferFile15ReadClassBufferEPK6TClassPvS2_
fun:_ZN15AliESDtrackCuts8StreamerER7TBuffer
fun:_ZN11TBufferFile13ReadObjectAnyEPK6TClass
}
{
root_jets_187
Memcheck:Leak
match-leak-kinds: possible
fun:_Znam
fun:_ZN13TStreamerInfo7CompileEv
fun:_ZN13TStreamerInfo8BuildOldEv
fun:_ZNK6TClass15GetStreamerInfoEi
fun:_ZN13TStreamerInfo8BuildOldEv
fun:_ZNK6TClass15GetStreamerInfoEi
fun:_ZN13TStreamerInfo8BuildOldEv
fun:_ZN11TBufferFile15ReadClassBufferEPK6TClassPvS2_
fun:_ZN11TBufferFile13ReadFastArrayEPPvPK6TClassibP15TMemberStreamerS4_
fun:_ZN13TStreamerInfo10ReadBufferIPPcEEiR7TBufferRKT_iiii
fun:_ZN20TStreamerInfoActions17GenericReadActionER7TBufferPvPKNS_14TConfigurationE
fun:_ZN11TBufferFile13ApplySequenceERKN20TStreamerInfoActions15TActionSequenceEPv
}
{
root_jets_188
Memcheck:Leak
match-leak-kinds: possible
fun:_Znam
fun:_ZN13TStreamerInfo7CompileEv
fun:_ZN13TStreamerInfo8BuildOldEv
fun:_ZNK6TClass15GetStreamerInfoEi
fun:_ZN13TStreamerInfo8BuildOldEv
fun:_ZN11TBufferFile15ReadClassBufferEPK6TClassPvS2_
fun:_ZN11AliAODEvent8StreamerER7TBuffer
fun:_ZN11TBufferFile13ReadObjectAnyEPK6TClass
fun:_ZrsI7TObjectER7TBufferS2_RPT_
fun:_ZN5TList8StreamerER7TBuffer
fun:_ZN11TBufferFile13ReadObjectAnyEPK6TClass
fun:_ZN11TBufferFile13ReadFastArrayEPPvPK6TClassibP15TMemberStreamerS4_
}
{
root_jets_189
Memcheck:Leak
match-leak-kinds: possible
fun:_Znam
fun:_ZN13TStreamerInfo7CompileEv
fun:_ZN13TStreamerInfo8BuildOldEv
fun:_ZNK6TClass15GetStreamerInfoEi
fun:_ZN13TStreamerInfo5BuildEv
fun:_ZNK6TClass15GetStreamerInfoEi
fun:_ZN13TStreamerInfo8BuildOldEv
fun:_ZN11TBufferFile15ReadClassBufferEPK6TClassPvS2_
fun:_ZN12AliAODHeader8StreamerER7TBuffer
fun:_ZN11TBufferFile13ReadObjectAnyEPK6TClass
fun:_ZrsI7TObjectER7TBufferS2_RPT_
fun:_ZN5TList8StreamerER7TBuffer
}
{
root_jets_190
Memcheck:Leak
match-leak-kinds: possible
fun:_Znam
fun:_ZN13TStreamerInfo7CompileEv
fun:_ZN13TStreamerInfo8BuildOldEv
fun:_ZNK6TClass15GetStreamerInfoEi
fun:_ZN13TStreamerInfo8BuildOldEv
fun:_ZN11TBufferFile15ReadClassBufferEPK6TClassPvS2_
fun:_ZN15AliAODCaloCells8StreamerER7TBuffer
fun:_ZN11TBufferFile13ReadObjectAnyEPK6TClass
fun:_ZrsI7TObjectER7TBufferS2_RPT_
fun:_ZN5TList8StreamerER7TBuffer
fun:_ZN11TBufferFile13ReadObjectAnyEPK6TClass
fun:_ZN11TBufferFile13ReadFastArrayEPPvPK6TClassibP15TMemberStreamerS4_
}
{
root_jets_191
Memcheck:Leak
match-leak-kinds: possible
fun:_Znam
fun:_ZN13TStreamerInfo7CompileEv
fun:_ZN13TStreamerInfo8BuildOldEv
fun:_ZNK6TClass15GetStreamerInfoEi
fun:_ZN13TStreamerInfo8BuildOldEv
fun:_ZN11TBufferFile15ReadClassBufferEPK6TClassPvS2_
fun:_ZN17AliAODCaloTrigger8StreamerER7TBuffer
fun:_ZN11TBufferFile13ReadObjectAnyEPK6TClass
fun:_ZrsI7TObjectER7TBufferS2_RPT_
fun:_ZN5TList8StreamerER7TBuffer
fun:_ZN11TBufferFile13ReadObjectAnyEPK6TClass
fun:_ZN11TBufferFile13ReadFastArrayEPPvPK6TClassibP15TMemberStreamerS4_
}
{
root_jets_192
Memcheck:Leak
match-leak-kinds: possible
fun:_Znam
fun:_ZN13TStreamerInfo7CompileEv
fun:_ZN13TStreamerInfo8BuildOldEv
fun:_ZNK6TClass15GetStreamerInfoEi
fun:_ZN13TStreamerInfo8BuildOldEv
fun:_ZN11TBufferFile15ReadClassBufferEPK6TClassPvS2_
fun:_ZN11AliAODVZERO8StreamerER7TBuffer
fun:_ZN11TBufferFile13ReadObjectAnyEPK6TClass
fun:_ZrsI7TObjectER7TBufferS2_RPT_
fun:_ZN5TList8StreamerER7TBuffer
fun:_ZN11TBufferFile13ReadObjectAnyEPK6TClass
fun:_ZN11TBufferFile13ReadFastArrayEPPvPK6TClassibP15TMemberStreamerS4_
}
{
root_jets_193
Memcheck:Leak
match-leak-kinds: possible
fun:_Znam
fun:_ZN13TStreamerInfo7CompileEv
fun:_ZN13TStreamerInfo8BuildOldEv
fun:_ZNK6TClass15GetStreamerInfoEi
fun:_ZN13TStreamerInfo8BuildOldEv
fun:_ZN11TBufferFile15ReadClassBufferEPK6TClassPvS2_
fun:_ZN9AliAODZDC8StreamerER7TBuffer
fun:_ZN11TBufferFile13ReadObjectAnyEPK6TClass
fun:_ZrsI7TObjectER7TBufferS2_RPT_
fun:_ZN5TList8StreamerER7TBuffer
fun:_ZN11TBufferFile13ReadObjectAnyEPK6TClass
fun:_ZN11TBufferFile13ReadFastArrayEPPvPK6TClassibP15TMemberStreamerS4_
}
{
root_jets_194
Memcheck:Leak
match-leak-kinds: possible
fun:_Znam
fun:_ZN13TStreamerInfo7CompileEv
fun:_ZN13TStreamerInfo8BuildOldEv
fun:_ZNK6TClass15GetStreamerInfoEi
fun:_ZN13TStreamerInfo8BuildOldEv
fun:_ZNK6TClass15GetStreamerInfoEi
fun:_ZN13TStreamerInfo8BuildOldEv
fun:_ZNK6TClass15GetStreamerInfoEi
fun:_ZN11TBufferFile14WriteFastArrayEPPvPK6TClassibP15TMemberStreamer
fun:_ZN13TStreamerInfo14WriteBufferAuxIPPcEEiR7TBufferRKT_iiii
fun:_ZN20TStreamerInfoActions18GenericWriteActionER7TBufferPvPKNS_14TConfigurationE
fun:_ZN11TBufferFile13ApplySequenceERKN20TStreamerInfoActions15TActionSequenceEPv
}
{
root_jets_195
Memcheck:Leak
match-leak-kinds: possible
fun:_Znam
fun:_ZN13TStreamerInfo7CompileEv
fun:_ZN13TStreamerInfo8BuildOldEv
fun:_ZNK6TClass15GetStreamerInfoEi
fun:_ZN13TStreamerInfo8BuildOldEv
fun:_ZNK6TClass15GetStreamerInfoEi
fun:_ZN11TBufferFile14WriteFastArrayEPPvPK6TClassibP15TMemberStreamer
fun:_ZN13TStreamerInfo14WriteBufferAuxIPPcEEiR7TBufferRKT_iiii
fun:_ZN20TStreamerInfoActions18GenericWriteActionER7TBufferPvPKNS_14TConfigurationE
fun:_ZN11TBufferFile13ApplySequenceERKN20TStreamerInfoActions15TActionSequenceEPv
fun:_ZN11TBufferFile16WriteClassBufferEPK6TClassPv
fun:_ZN5TAxis8StreamerER7TBuffer
}
{
root_jets_196
Memcheck:Leak
match-leak-kinds: possible
fun:_Znam
fun:_ZN13TStreamerInfo7CompileEv
fun:_ZN13TStreamerInfo8BuildOldEv
fun:_ZNK6TClass15GetStreamerInfoEi
fun:_ZN11TBufferFile14WriteFastArrayEPPvPK6TClassibP15TMemberStreamer
fun:_ZN13TStreamerInfo14WriteBufferAuxIPPcEEiR7TBufferRKT_iiii
fun:_ZN20TStreamerInfoActions18GenericWriteActionER7TBufferPvPKNS_14TConfigurationE
fun:_ZN11TBufferFile13ApplySequenceERKN20TStreamerInfoActions15TActionSequenceEPv
fun:_ZN11TBufferFile16WriteClassBufferEPK6TClassPv
fun:_ZN5TAxis8StreamerER7TBuffer
fun:_ZN11TBufferFile14WriteFastArrayEPvPK6TClassiP15TMemberStreamer
fun:_ZN13TStreamerInfo14WriteBufferAuxIPPcEEiR7TBufferRKT_iiii
}
{
root_jets_197
Memcheck:Leak
match-leak-kinds: possible
fun:_Znam
fun:_ZN13TStreamerInfo7CompileEv
fun:_ZN13TStreamerInfo8BuildOldEv
fun:_ZNK6TClass15GetStreamerInfoEi
fun:_ZN14TBranchElement8InitInfoEv
fun:_ZN14TBranchElement10SetAddressEPv
fun:_ZN6TChain16SetBranchAddressEPKcPvPP7TBranch
fun:_ZN11AliAODEvent12ReadFromTreeEP5TTreePKc
fun:_ZN18AliAODInputHandler4InitEP5TTreePKc
fun:_ZN18AliAnalysisManager4InitEP5TTree
fun:_ZN19AliAnalysisSelector4InitEP5TTree
fun:_ZN11TTreePlayer7ProcessEP9TSelectorPKcxx
}
{
root_jets_198
Memcheck:Leak
match-leak-kinds: possible
fun:_Znam
fun:_ZN13TStreamerInfo7CompileEv
fun:_ZN13TStreamerInfo8BuildOldEv
fun:_ZN11TBufferFile15ReadClassBufferEPK6TClassPvS2_
fun:_ZN4TKey7ReadObjEv
fun:_ZN14TDirectoryFile3GetEPKc
fun:_ZN5TFile13ReadProcessIDEt
fun:_ZN20TStreamerInfoActions23HandleReferencedTObjectER7TBufferPvPKNS_14TConfigurationE
fun:_ZN20TStreamerInfoActions15VectorPtrLooper10ReadActionIXadL_ZNS_13ReadBasicTypeINS_10BitsMarkerEEEiR7TBufferPvPKNS_14TConfigurationEEEEEiS5_S6_PKvS9_
fun:_ZN11TBufferFile19ApplySequenceVecPtrERKN20TStreamerInfoActions15TActionSequenceEPvS4_
fun:_ZN14TBranchElement22ReadLeavesClonesMemberER7TBuffer
fun:_ZN7TBranch8GetEntryExi
}
{
root_jets_199
Memcheck:Leak
match-leak-kinds: possible
fun:_Znam
fun:_ZN13TStreamerInfo7CompileEv
fun:_ZN13TStreamerInfo8BuildOldEv
fun:_ZNK6TClass31GetStreamerInfoAbstractEmulatedEi
fun:_ZN6TClass21BuildEmulatedRealDataEPKclPS_
fun:_ZN6TClass21BuildEmulatedRealDataEPKclPS_
fun:_ZN6TClass21BuildEmulatedRealDataEPKclPS_
fun:_ZN6TClass21BuildEmulatedRealDataEPKclPS_
fun:_ZN6TClass21BuildEmulatedRealDataEPKclPS_
fun:_ZN6TClass21BuildEmulatedRealDataEPKclPS_
fun:_ZN6TClass21BuildEmulatedRealDataEPKclPS_
fun:_ZN6TClass13BuildRealDataEPvb
}
{
root_jets_200
Memcheck:Leak
match-leak-kinds: possible
fun:_Znwm
fun:_ZN8TStorage11ObjectAllocEm
fun:_ZN6TClass4InitEPKcsPKSt9type_infoP16TVirtualIsAProxyPFvPvR16TMemberInspectorES1_S1_iib
fun:_ZN6TClassC1EPKcsRKSt9type_infoP16TVirtualIsAProxyPFvPvR16TMemberInspectorES1_S1_iib
fun:_ZN7TQClassC1EPKcsRKSt9type_infoP16TVirtualIsAProxyPFvPvR16TMemberInspectorES1_S1_ii
fun:_ZNK4ROOT20TQObjectInitBehavior11CreateClassEPKcsRKSt9type_infoP16TVirtualIsAProxyPFvPvR16TMemberInspectorES2_S2_ii
fun:_ZN4ROOT17TGenericClassInfo8GetClassEv
fun:_ZN14TSignalHandler5ClassEv
fun:_ZN8TQObject4EmitEPKc
fun:_ZN5TRintC1EPKcPiPPcPvib
fun:main
}
{
root_jets_201
Memcheck:Leak
match-leak-kinds: possible
fun:_Znwm
fun:_ZN8TStorage11ObjectAllocEm
fun:_ZN6TClass4InitEPKcsPKSt9type_infoP16TVirtualIsAProxyPFvPvR16TMemberInspectorES1_S1_iib
fun:_ZN6TClassC1EPKcsRKSt9type_infoP16TVirtualIsAProxyPFvPvR16TMemberInspectorES1_S1_iib
fun:_ZN7TQClassC1EPKcsRKSt9type_infoP16TVirtualIsAProxyPFvPvR16TMemberInspectorES1_S1_ii
fun:_ZNK4ROOT20TQObjectInitBehavior11CreateClassEPKcsRKSt9type_infoP16TVirtualIsAProxyPFvPvR16TMemberInspectorES2_S2_ii
fun:_ZN4ROOT17TGenericClassInfo8GetClassEv
fun:_ZN14TSysEvtHandler10DictionaryEv
fun:_ZNK5TROOT9LoadClassEPKcb
fun:_ZN6TClass8GetClassEPKcbb
fun:_ZN10TBaseClass15GetClassPointerEb
fun:_ZN8TQObject23CollectClassSignalListsER5TListP6TClass
}
{
root_jets_202
Memcheck:Leak
match-leak-kinds: possible
fun:_Znwm
fun:_ZN8TStorage11ObjectAllocEm
fun:_ZN6TClass4InitEPKcsPKSt9type_infoP16TVirtualIsAProxyPFvPvR16TMemberInspectorES1_S1_iib
fun:_ZN6TClassC1EPKcsRKSt9type_infoP16TVirtualIsAProxyPFvPvR16TMemberInspectorES1_S1_iib
fun:_ZN7TQClassC1EPKcsRKSt9type_infoP16TVirtualIsAProxyPFvPvR16TMemberInspectorES1_S1_ii
fun:_ZNK4ROOT20TQObjectInitBehavior11CreateClassEPKcsRKSt9type_infoP16TVirtualIsAProxyPFvPvR16TMemberInspectorES2_S2_ii
fun:_ZN4ROOT17TGenericClassInfo8GetClassEv
fun:_ZN8TQObject10DictionaryEv
fun:_ZNK5TROOT9LoadClassEPKcb
fun:_ZN6TClass8GetClassEPKcbb
fun:_ZN10TBaseClass15GetClassPointerEb
fun:_ZN8TQObject23CollectClassSignalListsER5TListP6TClass
}
{
root_jets_203
Memcheck:Leak
match-leak-kinds: possible
fun:_Znwm
fun:_ZN8TStorage11ObjectAllocEm
fun:_ZN6TClass4InitEPKcsPKSt9type_infoP16TVirtualIsAProxyPFvPvR16TMemberInspectorES1_S1_iib
fun:_ZN6TClassC1EPKcsRKSt9type_infoP16TVirtualIsAProxyPFvPvR16TMemberInspectorES1_S1_iib
fun:_ZN7TQClassC1EPKcsRKSt9type_infoP16TVirtualIsAProxyPFvPvR16TMemberInspectorES1_S1_ii
fun:_ZNK4ROOT20TQObjectInitBehavior11CreateClassEPKcsRKSt9type_infoP16TVirtualIsAProxyPFvPvR16TMemberInspectorES2_S2_ii
fun:_ZN4ROOT17TGenericClassInfo8GetClassEv
fun:_ZN12TFileHandler5ClassEv
fun:_ZN8TQObject4EmitEPKc
fun:_ZN5TRintC1EPKcPiPPcPvib
fun:main
}
{
root_jets_204
Memcheck:Leak
match-leak-kinds: possible
fun:_Znwm
fun:_ZN8TStorage11ObjectAllocEm
fun:_ZN6TClass4InitEPKcsPKSt9type_infoP16TVirtualIsAProxyPFvPvR16TMemberInspectorES1_S1_iib
fun:_ZN6TClassC1EPKcsRKSt9type_infoP16TVirtualIsAProxyPFvPvR16TMemberInspectorES1_S1_iib
fun:_ZN7TQClassC1EPKcsRKSt9type_infoP16TVirtualIsAProxyPFvPvR16TMemberInspectorES1_S1_ii
fun:_ZNK4ROOT20TQObjectInitBehavior11CreateClassEPKcsRKSt9type_infoP16TVirtualIsAProxyPFvPvR16TMemberInspectorES2_S2_ii
fun:_ZN4ROOT17TGenericClassInfo8GetClassEv
fun:_ZN15TMessageHandler5ClassEv
fun:_ZN8TQObject4EmitEPKc
fun:_ZN15TMessageHandler6NotifyEv
fun:_ZN15TMessageHandler13HandleMessageEiPK7TObject
fun:_ZN5TROOT7MessageEiPK7TObject
}
{
root_jets_205
Memcheck:Leak
match-leak-kinds: possible
fun:_Znwm
fun:_ZN8TStorage11ObjectAllocEm
fun:_ZN6TClass4InitEPKcsPKSt9type_infoP16TVirtualIsAProxyPFvPvR16TMemberInspectorES1_S1_iib
fun:_ZN6TClassC1EPKcsRKSt9type_infoP16TVirtualIsAProxyPFvPvR16TMemberInspectorES1_S1_iib
fun:_ZN7TQClassC1EPKcsRKSt9type_infoP16TVirtualIsAProxyPFvPvR16TMemberInspectorES1_S1_ii
fun:_ZNK4ROOT20TQObjectInitBehavior11CreateClassEPKcsRKSt9type_infoP16TVirtualIsAProxyPFvPvR16TMemberInspectorES2_S2_ii
fun:_ZN4ROOT17TGenericClassInfo8GetClassEv
fun:_ZN5TRint5ClassEv
fun:_ZN8TQObject4EmitEPKcl
fun:_ZN12TApplication9TerminateEi
fun:_ZN5TRint3RunEb
fun:main
}
{
root_jets_206
Memcheck:Leak
match-leak-kinds: possible
fun:_Znwm
fun:_ZN8TStorage11ObjectAllocEm
fun:_ZN6TClass4InitEPKcsPKSt9type_infoP16TVirtualIsAProxyPFvPvR16TMemberInspectorES1_S1_iib
fun:_ZN6TClassC1EPKcsRKSt9type_infoP16TVirtualIsAProxyPFvPvR16TMemberInspectorES1_S1_iib
fun:_ZN7TQClassC1EPKcsRKSt9type_infoP16TVirtualIsAProxyPFvPvR16TMemberInspectorES1_S1_ii
fun:_ZNK4ROOT20TQObjectInitBehavior11CreateClassEPKcsRKSt9type_infoP16TVirtualIsAProxyPFvPvR16TMemberInspectorES2_S2_ii
fun:_ZN4ROOT17TGenericClassInfo8GetClassEv
fun:_ZN12TApplication10DictionaryEv
fun:_ZNK5TROOT9LoadClassEPKcb
fun:_ZN6TClass8GetClassEPKcbb
fun:_ZN10TBaseClass15GetClassPointerEb
fun:_ZN8TQObject23CollectClassSignalListsER5TListP6TClass
}
{
root_jets_207
Memcheck:Leak
match-leak-kinds: possible
fun:_Znwm
fun:_ZN5TList7NewLinkEP7TObjectP8TObjLink
fun:_ZN5TList7AddLastEP7TObject
fun:_ZN5TCint23CreateListOfBaseClassesEP6TClass
fun:_ZN6TClass14GetListOfBasesEv
fun:_ZN6TClass12GetBaseClassEPKS_
fun:_ZNK6TClass12InheritsFromEPKS_
fun:_ZNK6TClass8PropertyEv
fun:_ZNK6TClass9IsForeignEv
fun:_ZN6TClass13PostLoadCheckEv
fun:_ZNK5TROOT9LoadClassEPKcb
fun:_ZN6TClass8GetClassEPKcbb
}
{
root_jets_208
Memcheck:Leak
match-leak-kinds: possible
fun:_Znwm
fun:_ZN5TList7NewLinkEP7TObjectP8TObjLink
fun:_ZN5TList7AddLastEP7TObject
fun:_ZN5TCint23CreateListOfBaseClassesEP6TClass
fun:_ZN6TClass14GetListOfBasesEv
fun:_ZN6TClass12GetBaseClassEPKS_
fun:_ZNK6TClass12InheritsFromEPKS_
fun:_ZNK6TClass8PropertyEv
fun:_ZNK6TClass9IsForeignEv
fun:_ZN6TClass13PostLoadCheckEv
fun:_ZNK5TROOT9LoadClassEPKcb
fun:_ZN6TClass8GetClassEPKcbb
}
{
root_jets_209
Memcheck:Leak
match-leak-kinds: possible
fun:_Znam
fun:_ZN7TString7ReplaceEiiPKci
fun:_ZN13TStreamerInfo7CompileEv
fun:_ZN13TStreamerInfo8BuildOldEv
fun:_ZNK6TClass15GetStreamerInfoEi
fun:_ZN11TBufferFile10ReadClonesEP12TClonesArrayis
fun:_ZN12TClonesArray8StreamerER7TBuffer
fun:_ZN11TBufferFile13ReadObjectAnyEPK6TClass
fun:_ZrsI7TObjectER7TBufferS2_RPT_
fun:_ZN5TList8StreamerER7TBuffer
fun:_ZN11TBufferFile13ReadObjectAnyEPK6TClass
fun:_ZN11TBufferFile13ReadFastArrayEPPvPK6TClassibP15TMemberStreamerS4_
}
{
root_jets_210
Memcheck:Leak
match-leak-kinds: possible
fun:_Znam
fun:_ZN7TString7ReplaceEiiPKci
fun:_ZN13TStreamerInfo7CompileEv
fun:_ZN13TStreamerInfo8BuildOldEv
fun:_ZN11TBufferFile15ReadClassBufferEPK6TClassPvS2_
fun:_ZN11AliAODVZERO8StreamerER7TBuffer
fun:_ZN11TBufferFile13ReadObjectAnyEPK6TClass
fun:_ZrsI7TObjectER7TBufferS2_RPT_
fun:_ZN5TList8StreamerER7TBuffer
fun:_ZN11TBufferFile13ReadObjectAnyEPK6TClass
fun:_ZN11TBufferFile13ReadFastArrayEPPvPK6TClassibP15TMemberStreamerS4_
fun:_ZN13TStreamerInfo10ReadBufferIPPcEEiR7TBufferRKT_iiii
}
{
root_jets_211
Memcheck:Leak
match-leak-kinds: possible
fun:_Znwm
fun:_ZNSs4_Rep9_S_createEmmRKSaIcE
fun:_ZNSs9_M_mutateEmmm
fun:_ZNSs15_M_replace_safeEmmPKcm
fun:_ZN9TClassRef6AssignEP6TClass
fun:_ZN10TBaseClass15GetClassPointerEb
fun:_ZN8TQObject23CollectClassSignalListsER5TListP6TClass
fun:_ZN8TQObject4EmitEPKc
fun:_ZN15TMessageHandler6NotifyEv
fun:_ZN15TMessageHandler13HandleMessageEiPK7TObject
fun:_ZN5TROOT7MessageEiPK7TObject
fun:_ZNK7TObject5ErrorEPKcS1_z
}
{
root_jets_212
Memcheck:Leak
match-leak-kinds: possible
fun:_Znwm
fun:_ZNSs4_Rep9_S_createEmmRKSaIcE
fun:_ZNSs9_M_mutateEmmm
fun:_ZNSs15_M_replace_safeEmmPKcm
fun:_ZN9TClassRef6AssignEP6TClass
fun:_ZN4ROOT14TSchemaRuleSet8SetClassEP6TClass
fun:_ZN6TClass14GetSchemaRulesEb
fun:_ZN6TClass4InitEPKcsPKSt9type_infoP16TVirtualIsAProxyPFvPvR16TMemberInspectorES1_S1_iib
fun:_ZN6TClassC1EPKcsRKSt9type_infoP16TVirtualIsAProxyPFvPvR16TMemberInspectorES1_S1_iib
fun:_ZN4ROOT11CreateClassEPKcsRKSt9type_infoP16TVirtualIsAProxyPFvPvR16TMemberInspectorES1_S1_ii
fun:_ZN4ROOT17TGenericClassInfo8GetClassEv
fun:_ZNK5TROOT9LoadClassEPKcb
}
{
root_jets_213
Memcheck:Leak
match-leak-kinds: possible
fun:_Znwm
fun:_ZNSs4_Rep9_S_createEmmRKSaIcE
fun:_ZNSs9_M_mutateEmmm
fun:_ZNSs15_M_replace_safeEmmPKcm
fun:_ZN9TClassRefC1EP6TClass
fun:_ZN19TGenCollectionProxyC1ERKN4ROOT20TCollectionProxyInfoEP6TClass
fun:_ZN23TCollectionProxyFactory16GenExplicitProxyERKN4ROOT20TCollectionProxyInfoEP6TClass
fun:_ZN6TClass18SetCollectionProxyERKN4ROOT20TCollectionProxyInfoE
fun:_ZN4ROOT17TGenericClassInfo8GetClassEv
fun:_ZNK5TROOT9LoadClassEPKcb
fun:_ZN6TClass8GetClassEPKcbb
fun:_ZN14TBuildRealData7InspectEP6TClassPKcS3_PKv
}
{
root_jets_214
Memcheck:Leak
match-leak-kinds: possible
fun:_Znwm
fun:_ZNSs4_Rep9_S_createEmmRKSaIcE
fun:_ZNSs9_M_mutateEmmm
fun:_ZNSs15_M_replace_safeEmmPKcm
fun:_ZN9TClassRefC1EP6TClass
fun:_ZN19TGenCollectionProxyC1ERKN4ROOT20TCollectionProxyInfoEP6TClass
fun:_ZN22TGenCollectionStreamerC1ERKN4ROOT20TCollectionProxyInfoEP6TClass
fun:_ZN23TCollectionProxyFactory19GenExplicitStreamerERKN4ROOT20TCollectionProxyInfoEP6TClass
fun:_ZN23TCollectionProxyFactory24GenExplicitClassStreamerERKN4ROOT20TCollectionProxyInfoEP6TClass
fun:_ZN6TClass18SetCollectionProxyERKN4ROOT20TCollectionProxyInfoE
fun:_ZN4ROOT17TGenericClassInfo8GetClassEv
fun:_ZNK5TROOT9LoadClassEPKcb
}
{
root_jets_215
Memcheck:Leak
match-leak-kinds: possible
fun:_Znwm
fun:_ZNSs4_Rep9_S_createEmmRKSaIcE
fun:_ZNSs9_M_mutateEmmm
fun:_ZNSs15_M_replace_safeEmmPKcm
fun:_ZN19TGenCollectionProxyC1ERKN4ROOT20TCollectionProxyInfoEP6TClass
fun:_ZN22TGenCollectionStreamerC1ERKN4ROOT20TCollectionProxyInfoEP6TClass
fun:_ZN23TCollectionProxyFactory19GenExplicitStreamerERKN4ROOT20TCollectionProxyInfoEP6TClass
fun:_ZN23TCollectionProxyFactory24GenExplicitClassStreamerERKN4ROOT20TCollectionProxyInfoEP6TClass
fun:_ZN6TClass18SetCollectionProxyERKN4ROOT20TCollectionProxyInfoE
fun:_ZN4ROOT17TGenericClassInfo8GetClassEv
fun:_ZNK5TROOT9LoadClassEPKcb
fun:_ZN6TClass8GetClassEPKcbb
}
{
root_jets_216
Memcheck:Leak
match-leak-kinds: possible
fun:_Znwm
fun:_ZN8TStorage11ObjectAllocEm
fun:_ZN5TCint23CreateListOfBaseClassesEP6TClass
fun:_ZN6TClass14GetListOfBasesEv
fun:_ZN8TQObject23CollectClassSignalListsER5TListP6TClass
fun:_ZN8TQObject4EmitEPKc
fun:_ZN5TRintC1EPKcPiPPcPvib
fun:main
}
{
root_jets_217
Memcheck:Leak
match-leak-kinds: possible
fun:_Znwm
fun:_ZN8TStorage11ObjectAllocEm
fun:_ZN5TCint23CreateListOfBaseClassesEP6TClass
fun:_ZN6TClass14GetListOfBasesEv
fun:_ZN6TClass12GetBaseClassEPKS_
fun:_ZNK6TClass12InheritsFromEPKS_
fun:_ZNK6TClass8PropertyEv
fun:_ZNK6TClass9IsForeignEv
fun:_ZN6TClass13PostLoadCheckEv
fun:_ZNK5TROOT9LoadClassEPKcb
fun:_ZN6TClass8GetClassEPKcbb
fun:_ZN10TBaseClass15GetClassPointerEb
}
{
root_jets_218
Memcheck:Leak
match-leak-kinds: possible
fun:_Znwm
fun:_ZN8TStorage11ObjectAllocEm
fun:_ZN5TCint23CreateListOfBaseClassesEP6TClass
fun:_ZN6TClass14GetListOfBasesEv
fun:_ZN8TQObject23CollectClassSignalListsER5TListP6TClass
fun:_ZN8TQObject4EmitEPKc
fun:_ZN5TRintC1EPKcPiPPcPvib
fun:main
}
{
root_jets_219
Memcheck:Leak
match-leak-kinds: possible
fun:_Znwm
fun:_ZN8TStorage11ObjectAllocEm
fun:_ZN5TCint23CreateListOfBaseClassesEP6TClass
fun:_ZN6TClass14GetListOfBasesEv
fun:_ZN8TQObject23CollectClassSignalListsER5TListP6TClass
fun:_ZN8TQObject4EmitEPKc
fun:_ZN15TMessageHandler6NotifyEv
fun:_ZN15TMessageHandler13HandleMessageEiPK7TObject
fun:_ZN5TROOT7MessageEiPK7TObject
fun:_ZNK7TObject5ErrorEPKcS1_z
fun:_ZN11TBufferFile13ReadObjectAnyEPK6TClass
fun:_ZrsI7TObjectER7TBufferS2_RPT_
}
{
root_jets_220
Memcheck:Leak
match-leak-kinds: possible
fun:_Znwm
fun:_ZN8TStorage11ObjectAllocEm
fun:_ZN5TCint23CreateListOfBaseClassesEP6TClass
fun:_ZN6TClass14GetListOfBasesEv
fun:_ZN8TQObject23CollectClassSignalListsER5TListP6TClass
fun:_ZN8TQObject4EmitEPKcl
fun:_ZN12TApplication9TerminateEi
fun:_ZN5TRint3RunEb
fun:main
}
{
root_jets_221
Memcheck:Leak
match-leak-kinds: possible
fun:_Znwm
fun:_ZN5TCint23CreateListOfBaseClassesEP6TClass
fun:_ZN6TClass14GetListOfBasesEv
fun:_ZN8TQObject23CollectClassSignalListsER5TListP6TClass
fun:_ZN8TQObject4EmitEPKc
fun:_ZN15TMessageHandler6NotifyEv
fun:_ZN15TMessageHandler13HandleMessageEiPK7TObject
fun:_ZN5TROOT7MessageEiPK7TObject
fun:_ZNK7TObject5ErrorEPKcS1_z
fun:_ZN11TBufferFile13ReadObjectAnyEPK6TClass
fun:_ZrsI7TObjectER7TBufferS2_RPT_
fun:_ZN5TList8StreamerER7TBuffer
}
{
root_jets_222
Memcheck:Leak
match-leak-kinds: definite
fun:_Znwm
fun:_ZN8TStorage11ObjectAllocEm
fun:_ZN11AliAODEventC1Ev
fun:_ZN18AliAODInputHandler4InitEP5TTreePKc
fun:_ZN18AliAnalysisManager4InitEP5TTree
fun:_ZN19AliAnalysisSelector4InitEP5TTree
fun:_ZN11TTreePlayer7ProcessEP9TSelectorPKcxx
fun:_ZN18AliAnalysisManager13StartAnalysisEPKcP5TTreexx
fun:_ZL23G__G__ANALYSIS_208_0_14P8G__valuePKcP8G__parami
fun:_ZN4Cint19G__ExceptionWrapperEPFiP8G__valuePKcP8G__paramiES1_PcS5_i
fun:G__execute_call
fun:G__call_cppfunc
}
{
root_jets_223
Memcheck:Leak
match-leak-kinds: possible
fun:_Znam
fun:_ZN8TStorage5AllocEm
fun:_ZN9TObjArray4InitEii
fun:_ZN9TObjArrayC1Eii
fun:_ZN6TClass4InitEPKcsPKSt9type_infoP16TVirtualIsAProxyPFvPvR16TMemberInspectorES1_S1_iib
fun:_ZN6TClassC1EPKcsRKSt9type_infoP16TVirtualIsAProxyPFvPvR16TMemberInspectorES1_S1_iib
fun:_ZN7TQClassC1EPKcsRKSt9type_infoP16TVirtualIsAProxyPFvPvR16TMemberInspectorES1_S1_ii
fun:_ZNK4ROOT20TQObjectInitBehavior11CreateClassEPKcsRKSt9type_infoP16TVirtualIsAProxyPFvPvR16TMemberInspectorES2_S2_ii
fun:_ZN4ROOT17TGenericClassInfo8GetClassEv
fun:_ZN14TSignalHandler5ClassEv
fun:_ZN8TQObject4EmitEPKc
fun:_ZN5TRintC1EPKcPiPPcPvib
}
{
root_jets_224
Memcheck:Leak
match-leak-kinds: possible
fun:_Znam
fun:_ZN8TStorage5AllocEm
fun:_ZN9TObjArray4InitEii
fun:_ZN9TObjArrayC1Eii
fun:_ZN6TClass4InitEPKcsPKSt9type_infoP16TVirtualIsAProxyPFvPvR16TMemberInspectorES1_S1_iib
fun:_ZN6TClassC1EPKcsRKSt9type_infoP16TVirtualIsAProxyPFvPvR16TMemberInspectorES1_S1_iib
fun:_ZN7TQClassC1EPKcsRKSt9type_infoP16TVirtualIsAProxyPFvPvR16TMemberInspectorES1_S1_ii
fun:_ZNK4ROOT20TQObjectInitBehavior11CreateClassEPKcsRKSt9type_infoP16TVirtualIsAProxyPFvPvR16TMemberInspectorES2_S2_ii
fun:_ZN4ROOT17TGenericClassInfo8GetClassEv
fun:_ZN14TSysEvtHandler10DictionaryEv
fun:_ZNK5TROOT9LoadClassEPKcb
fun:_ZN6TClass8GetClassEPKcbb
}
{
root_jets_225
Memcheck:Leak
match-leak-kinds: possible
fun:_Znam
fun:_ZN8TStorage5AllocEm
fun:_ZN9TObjArray4InitEii
fun:_ZN9TObjArrayC1Eii
fun:_ZN6TClass4InitEPKcsPKSt9type_infoP16TVirtualIsAProxyPFvPvR16TMemberInspectorES1_S1_iib
fun:_ZN6TClassC1EPKcsRKSt9type_infoP16TVirtualIsAProxyPFvPvR16TMemberInspectorES1_S1_iib
fun:_ZN7TQClassC1EPKcsRKSt9type_infoP16TVirtualIsAProxyPFvPvR16TMemberInspectorES1_S1_ii
fun:_ZNK4ROOT20TQObjectInitBehavior11CreateClassEPKcsRKSt9type_infoP16TVirtualIsAProxyPFvPvR16TMemberInspectorES2_S2_ii
fun:_ZN4ROOT17TGenericClassInfo8GetClassEv
fun:_ZN12TFileHandler5ClassEv
fun:_ZN8TQObject4EmitEPKc
fun:_ZN5TRintC1EPKcPiPPcPvib
}
{
root_jets_226
Memcheck:Leak
match-leak-kinds: possible
fun:_Znam
fun:_ZN8TStorage5AllocEm
fun:_ZN9TObjArray4InitEii
fun:_ZN9TObjArrayC1Eii
fun:_ZN6TClass4InitEPKcsPKSt9type_infoP16TVirtualIsAProxyPFvPvR16TMemberInspectorES1_S1_iib
fun:_ZN6TClassC1EPKcsRKSt9type_infoP16TVirtualIsAProxyPFvPvR16TMemberInspectorES1_S1_iib
fun:_ZN7TQClassC1EPKcsRKSt9type_infoP16TVirtualIsAProxyPFvPvR16TMemberInspectorES1_S1_ii
fun:_ZNK4ROOT20TQObjectInitBehavior11CreateClassEPKcsRKSt9type_infoP16TVirtualIsAProxyPFvPvR16TMemberInspectorES2_S2_ii
fun:_ZN4ROOT17TGenericClassInfo8GetClassEv
fun:_ZN15TMessageHandler5ClassEv
fun:_ZN8TQObject4EmitEPKc
fun:_ZN15TMessageHandler6NotifyEv
}
{
root_jets_227
Memcheck:Leak
match-leak-kinds: possible
fun:_Znam
fun:_ZN8TStorage5AllocEm
fun:_ZN9TObjArray4InitEii
fun:_ZN9TObjArrayC1Eii
fun:_ZN6TClass4InitEPKcsPKSt9type_infoP16TVirtualIsAProxyPFvPvR16TMemberInspectorES1_S1_iib
fun:_ZN6TClassC1EPKcsRKSt9type_infoP16TVirtualIsAProxyPFvPvR16TMemberInspectorES1_S1_iib
fun:_ZN7TQClassC1EPKcsRKSt9type_infoP16TVirtualIsAProxyPFvPvR16TMemberInspectorES1_S1_ii
fun:_ZNK4ROOT20TQObjectInitBehavior11CreateClassEPKcsRKSt9type_infoP16TVirtualIsAProxyPFvPvR16TMemberInspectorES2_S2_ii
fun:_ZN4ROOT17TGenericClassInfo8GetClassEv
fun:_ZN5TRint5ClassEv
fun:_ZN8TQObject4EmitEPKcl
fun:_ZN12TApplication9TerminateEi
}
{
root_jets_228
Memcheck:Leak
match-leak-kinds: possible
fun:_Znam
fun:_ZN8TStorage5AllocEm
fun:_ZN9TObjArray4InitEii
fun:_ZN9TObjArrayC1Eii
fun:_ZN6TClass4InitEPKcsPKSt9type_infoP16TVirtualIsAProxyPFvPvR16TMemberInspectorES1_S1_iib
fun:_ZN6TClassC1EPKcsRKSt9type_infoP16TVirtualIsAProxyPFvPvR16TMemberInspectorES1_S1_iib
fun:_ZN7TQClassC1EPKcsRKSt9type_infoP16TVirtualIsAProxyPFvPvR16TMemberInspectorES1_S1_ii
fun:_ZNK4ROOT20TQObjectInitBehavior11CreateClassEPKcsRKSt9type_infoP16TVirtualIsAProxyPFvPvR16TMemberInspectorES2_S2_ii
fun:_ZN4ROOT17TGenericClassInfo8GetClassEv
fun:_ZN12TApplication10DictionaryEv
fun:_ZNK5TROOT9LoadClassEPKcb
fun:_ZN6TClass8GetClassEPKcbb
}
{
root_jets_229
Memcheck:Leak
match-leak-kinds: possible
fun:_Znwm
fun:_ZNSs4_Rep9_S_createEmmRKSaIcE
fun:_ZNSs9_M_mutateEmmm
fun:_ZNSs15_M_replace_safeEmmPKcm
fun:_ZN9TClassRef6AssignEP6TClass
fun:_ZN10TBaseClass15GetClassPointerEb
fun:_ZN6TClass12GetBaseClassEPKS_
fun:_ZNK6TClass12InheritsFromEPKS_
fun:_ZN14TBuildRealData7InspectEP6TClassPKcS3_PKv
fun:_ZN9TObjArray11ShowMembersER16TMemberInspector
fun:_ZN16TMemberInspector13InspectMemberI9TObjArrayEEvRT_PKc
fun:_ZN5TTree11ShowMembersER16TMemberInspector
}
{
root_jets_230
Memcheck:Leak
match-leak-kinds: possible
fun:_Znwm
fun:_ZNSs4_Rep9_S_createEmmRKSaIcE
fun:_ZNSs9_M_mutateEmmm
fun:_ZNSs15_M_replace_safeEmmPKcm
fun:_ZN9TClassRef6AssignEP6TClass
fun:_ZN10TBaseClass15GetClassPointerEb
fun:_ZN6TClass12GetBaseClassEPKS_
fun:_ZN6TClass12GetBaseClassEPKS_
fun:_ZNK6TClass12InheritsFromEPKS_
fun:_ZN14TBuildRealData7InspectEP6TClassPKcS3_PKv
fun:_ZN5TAxis11ShowMembersER16TMemberInspector
fun:_ZN3TH111ShowMembersER16TMemberInspector
}
{
root_jets_231
Memcheck:Leak
match-leak-kinds: possible
fun:_Znwm
fun:_ZNSs4_Rep9_S_createEmmRKSaIcE
fun:_ZNSs9_M_mutateEmmm
fun:_ZNSs15_M_replace_safeEmmPKcm
fun:_ZN9TClassRef6AssignEP6TClass
fun:_ZN10TBaseClass15GetClassPointerEb
fun:_ZN6TClass12GetBaseClassEPKS_
fun:_ZNK6TClass12InheritsFromEPKS_
fun:_ZN14TBuildRealData7InspectEP6TClassPKcS3_PKv
fun:_ZNK6TClass15CallShowMembersEPvR16TMemberInspectori
fun:_ZN16TMemberInspector13InspectMemberEPKcPvS1_b
fun:_ZN3TF111ShowMembersER16TMemberInspector
}
{
root_jets_232
Memcheck:Leak
match-leak-kinds: possible
fun:_Znam
fun:_ZN8TStorage5AllocEm
fun:_ZN9TObjArray4InitEii
fun:_ZN9TObjArrayC1Eii
fun:_ZN6TClass4InitEPKcsPKSt9type_infoP16TVirtualIsAProxyPFvPvR16TMemberInspectorES1_S1_iib
fun:_ZN6TClassC1EPKcsRKSt9type_infoP16TVirtualIsAProxyPFvPvR16TMemberInspectorES1_S1_iib
fun:_ZN7TQClassC1EPKcsRKSt9type_infoP16TVirtualIsAProxyPFvPvR16TMemberInspectorES1_S1_ii
fun:_ZNK4ROOT20TQObjectInitBehavior11CreateClassEPKcsRKSt9type_infoP16TVirtualIsAProxyPFvPvR16TMemberInspectorES2_S2_ii
fun:_ZN4ROOT17TGenericClassInfo8GetClassEv
fun:_ZN8TQObject10DictionaryEv
fun:_ZNK5TROOT9LoadClassEPKcb
fun:_ZN6TClass8GetClassEPKcbb
}
{
root_jets_233
Memcheck:Leak
match-leak-kinds: possible
fun:_Znam
fun:_ZN13TStreamerInfo7CompileEv
fun:_ZN13TStreamerInfo5BuildEv
fun:_ZNK6TClass15GetStreamerInfoEi
fun:_ZN13TStreamerInfo5BuildEv
fun:_ZN11TBufferFile15ReadClassBufferEPK6TClassPvS2_
fun:_ZN13TStreamerInfo8StreamerER7TBuffer
fun:_ZN11TBufferFile13ReadObjectAnyEPK6TClass
fun:_ZrsI7TObjectER7TBufferS2_RPT_
fun:_ZN5TList8StreamerER7TBuffer
fun:_ZN4TKey17ReadObjWithBufferEPc
fun:_ZN5TFile19GetStreamerInfoListEv
}
{
root_jets_234
Memcheck:Leak
match-leak-kinds: possible
fun:_Znam
fun:_ZN13TStreamerInfo7CompileEv
fun:_ZN13TStreamerInfo5BuildEv
fun:_ZN11TBufferFile15ReadClassBufferEPK6TClassPvS2_
fun:_ZN11TBufferFile13ReadObjectAnyEPK6TClass
fun:_ZrsI7TObjectER7TBufferS2_RPT_
fun:_ZN5TList8StreamerER7TBuffer
fun:_ZN11TBufferFile13ReadObjectAnyEPK6TClass
fun:_ZrsI7TObjectER7TBufferS2_RPT_
fun:_ZN5TList8StreamerER7TBuffer
fun:_ZN4TKey17ReadObjWithBufferEPc
fun:_ZN5TFile19GetStreamerInfoListEv
}
{
root_jets_235
Memcheck:Leak
match-leak-kinds: possible
fun:_Znam
fun:_ZN13TStreamerInfo7CompileEv
fun:_ZN13TStreamerInfo8BuildOldEv
fun:_ZN11TBufferFile15ReadClassBufferEPK6TClassPvS2_
fun:_ZN17AliAnalysisFilter8StreamerER7TBuffer
fun:_ZN11TBufferFile13ReadObjectAnyEPK6TClass
fun:_ZrsI7TObjectER7TBufferS2_RPT_
fun:_ZN5TList8StreamerER7TBuffer
fun:_ZN11TBufferFile13ReadObjectAnyEPK6TClass
fun:_ZN11TBufferFile13ReadFastArrayEPPvPK6TClassibP15TMemberStreamerS4_
fun:_ZN13TStreamerInfo10ReadBufferIPPcEEiR7TBufferRKT_iiii
fun:_ZN20TStreamerInfoActions17GenericReadActionER7TBufferPvPKNS_14TConfigurationE
}
{
root_jets_236
Memcheck:Leak
match-leak-kinds: possible
fun:_Znam
fun:_ZN13TStreamerInfo7CompileEv
fun:_ZN13TStreamerInfo8BuildOldEv
fun:_ZN11TBufferFile15ReadClassBufferEPK6TClassPvS2_
fun:_ZN11TBufferFile13ReadFastArrayEPPvPK6TClassibP15TMemberStreamerS4_
fun:_ZN13TStreamerInfo10ReadBufferIPPcEEiR7TBufferRKT_iiii
fun:_ZN20TStreamerInfoActions17GenericReadActionER7TBufferPvPKNS_14TConfigurationE
fun:_ZN11TBufferFile13ApplySequenceERKN20TStreamerInfoActions15TActionSequenceEPv
fun:_ZN11TBufferFile15ReadClassBufferEPK6TClassPvS2_
fun:_ZN15AliESDtrackCuts8StreamerER7TBuffer
fun:_ZN11TBufferFile13ReadObjectAnyEPK6TClass
fun:_ZrsI7TObjectER7TBufferS2_RPT_
}
{
root_jets_237
Memcheck:Leak
match-leak-kinds: possible
fun:_Znam
fun:_ZN13TStreamerInfo7CompileEv
fun:_ZN13TStreamerInfo8BuildOldEv
fun:_ZN11TBufferFile15ReadClassBufferEPK6TClassPvijjS2_
fun:_ZN4TH2F8StreamerER7TBuffer
fun:_ZN11TBufferFile13ReadFastArrayEPPvPK6TClassibP15TMemberStreamerS4_
fun:_ZN13TStreamerInfo10ReadBufferIPPcEEiR7TBufferRKT_iiii
fun:_ZN20TStreamerInfoActions17GenericReadActionER7TBufferPvPKNS_14TConfigurationE
fun:_ZN11TBufferFile13ApplySequenceERKN20TStreamerInfoActions15TActionSequenceEPv
fun:_ZN11TBufferFile15ReadClassBufferEPK6TClassPvS2_
fun:_ZN15AliESDtrackCuts8StreamerER7TBuffer
fun:_ZN11TBufferFile13ReadObjectAnyEPK6TClass
}
{
root_jets_238
Memcheck:Leak
match-leak-kinds: possible
fun:_Znam
fun:_ZN13TStreamerInfo7CompileEv
fun:_ZN13TStreamerInfo8BuildOldEv
fun:_ZN11TBufferFile15ReadClassBufferEPK6TClassPvS2_
fun:_ZN17AliTOFTriggerMask8StreamerER7TBuffer
fun:_ZN11TBufferFile13ReadObjectAnyEPK6TClass
fun:_ZN11TBufferFile13ReadFastArrayEPPvPK6TClassibP15TMemberStreamerS4_
fun:_ZN13TStreamerInfo10ReadBufferIPPcEEiR7TBufferRKT_iiii
fun:_ZN20TStreamerInfoActions17GenericReadActionER7TBufferPvPKNS_14TConfigurationE
fun:_ZN11TBufferFile13ApplySequenceERKN20TStreamerInfoActions15TActionSequenceEPv
fun:_ZN11TBufferFile15ReadClassBufferEPK6TClassPvS2_
fun:_ZN12AliTOFHeader8StreamerER7TBuffer
}
{
root_jets_239
Memcheck:Leak
match-leak-kinds: possible
fun:_Znam
fun:_ZN13TStreamerInfo7CompileEv
fun:_ZN13TStreamerInfo8BuildOldEv
fun:_ZNK6TClass15GetStreamerInfoEi
fun:_ZN13TStreamerInfo8BuildOldEv
fun:_ZN11TBufferFile15ReadClassBufferEPK6TClassPvijjS2_
fun:_ZN4TH2D8StreamerER7TBuffer
fun:_ZN11TBufferFile13ReadObjectAnyEPK6TClass
fun:_ZrsI7TObjectER7TBufferS2_RPT_
fun:_ZN5TList8StreamerER7TBuffer
fun:_ZN11TBufferFile13ReadObjectAnyEPK6TClass
fun:_ZN11TBufferFile13ReadFastArrayEPPvPK6TClassibP15TMemberStreamerS4_
}
{
root_jets_240
Memcheck:Leak
match-leak-kinds: possible
fun:_Znam
fun:_ZN13TStreamerInfo7CompileEv
fun:_ZN13TStreamerInfo8BuildOldEv
fun:_ZN11TBufferFile15ReadClassBufferEPK6TClassPvijjS2_
fun:_ZN4TH2D8StreamerER7TBuffer
fun:_ZN11TBufferFile13ReadObjectAnyEPK6TClass
fun:_ZrsI7TObjectER7TBufferS2_RPT_
fun:_ZN5TList8StreamerER7TBuffer
fun:_ZN11TBufferFile13ReadObjectAnyEPK6TClass
fun:_ZN11TBufferFile13ReadFastArrayEPPvPK6TClassibP15TMemberStreamerS4_
fun:_ZN13TStreamerInfo10ReadBufferIPPcEEiR7TBufferRKT_iiii
fun:_ZN20TStreamerInfoActions17GenericReadActionER7TBufferPvPKNS_14TConfigurationE
}
{
root_jets_241
Memcheck:Leak
match-leak-kinds: possible
fun:_Znam
fun:_ZN13TStreamerInfo7CompileEv
fun:_ZN13TStreamerInfo8BuildOldEv
fun:_ZN11TBufferFile15ReadClassBufferEPK6TClassPvS2_
fun:_ZN10TBranchRef8StreamerER7TBuffer
fun:_ZN11TBufferFile13ReadObjectAnyEPK6TClass
fun:_ZN11TBufferFile13ReadFastArrayEPPvPK6TClassibP15TMemberStreamerS4_
fun:_ZN13TStreamerInfo10ReadBufferIPPcEEiR7TBufferRKT_iiii
fun:_ZN20TStreamerInfoActions17GenericReadActionER7TBufferPvPKNS_14TConfigurationE
fun:_ZN11TBufferFile13ApplySequenceERKN20TStreamerInfoActions15TActionSequenceEPv
fun:_ZN11TBufferFile15ReadClassBufferEPK6TClassPvijjS2_
fun:_ZN5TTree8StreamerER7TBuffer
}
{
root_jets_242
Memcheck:Leak
match-leak-kinds: possible
fun:_Znam
fun:_ZN13TStreamerInfo7CompileEv
fun:_ZN13TStreamerInfo8BuildOldEv
fun:_ZNK6TClass15GetStreamerInfoEi
fun:_ZN6TClass21BuildEmulatedRealDataEPKclPS_
fun:_ZN6TClass21BuildEmulatedRealDataEPKclPS_
fun:_ZN6TClass13BuildRealDataEPvb
fun:_ZN13TStreamerInfo8BuildOldEv
fun:_ZNK6TClass15GetStreamerInfoEi
fun:_ZN14TBranchElement8InitInfoEv
fun:_ZN14TBranchElement18SetupAddressesImplEv
fun:_ZN14TBranchElement8GetEntryExi
}
{
root_jets_243
Memcheck:Leak
match-leak-kinds: possible
fun:_Znwm
fun:_ZN8TStorage11ObjectAllocEm
fun:_ZN5TCint23CreateListOfBaseClassesEP6TClass
fun:_ZN6TClass14GetListOfBasesEv
fun:_ZN8TQObject23CollectClassSignalListsER5TListP6TClass
fun:_ZN8TQObject4EmitEPKc
fun:_ZN5TRintC1EPKcPiPPcPvib
fun:main
}
{
root_jets_244
Memcheck:Leak
match-leak-kinds: possible
fun:_Znwm
fun:_ZN8TStorage11ObjectAllocEm
fun:_ZN5TCint23CreateListOfBaseClassesEP6TClass
fun:_ZN6TClass14GetListOfBasesEv
fun:_ZN8TQObject23CollectClassSignalListsER5TListP6TClass
fun:_ZN8TQObject4EmitEPKc
fun:_ZN5TRintC1EPKcPiPPcPvib
fun:main
}
{
root_jets_245
Memcheck:Leak
match-leak-kinds: possible
fun:_Znwm
fun:_ZN8TStorage11ObjectAllocEm
fun:_ZN5TCint23CreateListOfBaseClassesEP6TClass
fun:_ZN6TClass14GetListOfBasesEv
fun:_ZN8TQObject23CollectClassSignalListsER5TListP6TClass
fun:_ZN8TQObject4EmitEPKcl
fun:_ZN12TApplication9TerminateEi
fun:_ZN5TRint3RunEb
fun:main
}
{
root_jets_246
Memcheck:Leak
match-leak-kinds: possible
fun:_Znam
fun:_ZN13TStreamerInfo7CompileEv
fun:_ZN13TStreamerInfo8BuildOldEv
fun:_ZNK6TClass15GetStreamerInfoEi
fun:_ZN13TStreamerInfo8BuildOldEv
fun:_ZNK6TClass15GetStreamerInfoEi
fun:_ZN13TStreamerInfo8BuildOldEv
fun:_ZNK6TClass15GetStreamerInfoEi
fun:_ZN11TBufferFile10ReadClonesEP12TClonesArrayis
fun:_ZN12TClonesArray8StreamerER7TBuffer
fun:_ZN11TBufferFile13ReadObjectAnyEPK6TClass
fun:_ZrsI7TObjectER7TBufferS2_RPT_
}
{
root_jets_247
Memcheck:Leak
match-leak-kinds: possible
fun:_Znam
fun:_ZN13TStreamerInfo7CompileEv
fun:_ZN13TStreamerInfo5BuildEv
fun:_ZN11TBufferFile15ReadClassBufferEPK6TClassPvS2_
fun:_ZN13TStreamerInfo8StreamerER7TBuffer
fun:_ZN11TBufferFile13ReadObjectAnyEPK6TClass
fun:_ZrsI7TObjectER7TBufferS2_RPT_
fun:_ZN5TList8StreamerER7TBuffer
fun:_ZN4TKey17ReadObjWithBufferEPc
fun:_ZN5TFile19GetStreamerInfoListEv
fun:_ZN5TFile16ReadStreamerInfoEv
fun:_ZN5TFile4InitEb
}
{
root_jets_248
Memcheck:Leak
match-leak-kinds: possible
fun:_Znam
fun:_ZN13TStreamerInfo7CompileEv
fun:_ZN13TStreamerInfo5BuildEv
fun:_ZN11TBufferFile15ReadClassBufferEPK6TClassPvijjS2_
fun:_ZN12TStreamerSTL8StreamerER7TBuffer
fun:_ZN11TBufferFile13ReadObjectAnyEPK6TClass
fun:_ZN9TObjArray8StreamerER7TBuffer
fun:_ZN11TBufferFile13ReadObjectAnyEPK6TClass
fun:_ZrsI9TObjArrayER7TBufferS2_RPT_
fun:_ZN13TStreamerInfo8StreamerER7TBuffer
fun:_ZN11TBufferFile13ReadObjectAnyEPK6TClass
fun:_ZrsI7TObjectER7TBufferS2_RPT_
}
{
root_jets_249
Memcheck:Leak
match-leak-kinds: possible
fun:_Znam
fun:_ZN13TStreamerInfo7CompileEv
fun:_ZN13TStreamerInfo8BuildOldEv
fun:_ZN11TBufferFile15ReadClassBufferEPK6TClassPvS2_
fun:_ZN12TLeafElement8StreamerER7TBuffer
fun:_ZN11TBufferFile13ReadObjectAnyEPK6TClass
fun:_ZN9TObjArray8StreamerER7TBuffer
fun:_ZN13TStreamerInfo10ReadBufferIPPcEEiR7TBufferRKT_iiii
fun:_ZN20TStreamerInfoActions17GenericReadActionER7TBufferPvPKNS_14TConfigurationE
fun:_ZN11TBufferFile13ApplySequenceERKN20TStreamerInfoActions15TActionSequenceEPv
fun:_ZN11TBufferFile15ReadClassBufferEPK6TClassPvijjS2_
fun:_ZN7TBranch8StreamerER7TBuffer
}
{
root_jets_250
Memcheck:Leak
match-leak-kinds: possible
fun:_Znam
fun:_ZN13TStreamerInfo7CompileEv
fun:_ZN13TStreamerInfo8BuildOldEv
fun:_ZNK6TClass15GetStreamerInfoEi
fun:_ZN13TStreamerInfo5BuildEv
fun:_ZNK6TClass15GetStreamerInfoEi
fun:_ZN13TStreamerInfo8BuildOldEv
fun:_ZN11TBufferFile15ReadClassBufferEPK6TClassPvS2_
fun:_ZN15AliESDtrackCuts8StreamerER7TBuffer
fun:_ZN11TBufferFile13ReadObjectAnyEPK6TClass
fun:_ZrsI7TObjectER7TBufferS2_RPT_
fun:_ZN5TList8StreamerER7TBuffer
}
{
root_jets_251
Memcheck:Leak
match-leak-kinds: possible
fun:_Znam
fun:_ZN13TStreamerInfo7CompileEv
fun:_ZN13TStreamerInfo8BuildOldEv
fun:_ZN11TBufferFile15ReadClassBufferEPK6TClassPvS2_
fun:_ZN11TBufferFile13ReadObjectAnyEPK6TClass
fun:_ZrsI7TObjectER7TBufferS2_RPT_
fun:_ZN5TList8StreamerER7TBuffer
fun:_ZN11TBufferFile13ReadObjectAnyEPK6TClass
fun:_ZN11TBufferFile13ReadFastArrayEPPvPK6TClassibP15TMemberStreamerS4_
fun:_ZN13TStreamerInfo10ReadBufferIPPcEEiR7TBufferRKT_iiii
fun:_ZN20TStreamerInfoActions17GenericReadActionER7TBufferPvPKNS_14TConfigurationE
fun:_ZN11TBufferFile13ApplySequenceERKN20TStreamerInfoActions15TActionSequenceEPv
}
{
root_jets_252
Memcheck:Leak
match-leak-kinds: possible
fun:_Znam
fun:_ZN13TStreamerInfo7CompileEv
fun:_ZN13TStreamerInfo8BuildOldEv
fun:_ZN11TBufferFile15ReadClassBufferEPK6TClassPvS2_
fun:_ZN11AliAODEvent8StreamerER7TBuffer
fun:_ZN11TBufferFile13ReadObjectAnyEPK6TClass
fun:_ZrsI7TObjectER7TBufferS2_RPT_
fun:_ZN5TList8StreamerER7TBuffer
fun:_ZN11TBufferFile13ReadObjectAnyEPK6TClass
fun:_ZN11TBufferFile13ReadFastArrayEPPvPK6TClassibP15TMemberStreamerS4_
fun:_ZN13TStreamerInfo10ReadBufferIPPcEEiR7TBufferRKT_iiii
fun:_ZN20TStreamerInfoActions17GenericReadActionER7TBufferPvPKNS_14TConfigurationE
}
{
root_jets_253
Memcheck:Leak
match-leak-kinds: possible
fun:_Znam
fun:_ZN13TStreamerInfo7CompileEv
fun:_ZN13TStreamerInfo8BuildOldEv
fun:_ZN11TBufferFile15ReadClassBufferEPK6TClassPvS2_
fun:_ZN11TBufferFile13ReadObjectAnyEPK6TClass
fun:_ZN11TBufferFile13ReadFastArrayEPPvPK6TClassibP15TMemberStreamerS4_
fun:_ZN13TStreamerInfo10ReadBufferIPPcEEiR7TBufferRKT_iiii
fun:_ZN20TStreamerInfoActions17GenericReadActionER7TBufferPvPKNS_14TConfigurationE
fun:_ZN11TBufferFile13ApplySequenceERKN20TStreamerInfoActions15TActionSequenceEPv
fun:_ZN11TBufferFile15ReadClassBufferEPK6TClassPvS2_
fun:_ZN11AliAODEvent8StreamerER7TBuffer
fun:_ZN11TBufferFile13ReadObjectAnyEPK6TClass
}
{
root_jets_254
Memcheck:Leak
match-leak-kinds: possible
fun:_Znam
fun:_ZN13TStreamerInfo7CompileEv
fun:_ZN13TStreamerInfo8BuildOldEv
fun:_ZNK6TClass15GetStreamerInfoEi
fun:_ZN13TStreamerInfo8BuildOldEv
fun:_ZNK6TClass15GetStreamerInfoEi
fun:_ZN13TStreamerInfo8BuildOldEv
fun:_ZNK6TClass15GetStreamerInfoEi
fun:_ZN13TStreamerInfo8BuildOldEv
fun:_ZNK6TClass15GetStreamerInfoEi
fun:_ZN11TBufferFile14WriteFastArrayEPPvPK6TClassibP15TMemberStreamer
fun:_ZN13TStreamerInfo14WriteBufferAuxIPPcEEiR7TBufferRKT_iiii
}
{
root_jets_255
Memcheck:Leak
match-leak-kinds: possible
fun:_Znam
fun:_ZN13TStreamerInfo7CompileEv
fun:_ZN13TStreamerInfo8BuildOldEv
fun:_ZNK6TClass15GetStreamerInfoEi
fun:_ZN13TStreamerInfo8BuildOldEv
fun:_ZNK6TClass15GetStreamerInfoEi
fun:_ZN14TBranchElement8InitInfoEv
fun:_ZN14TBranchElement10SetAddressEPv
fun:_ZN6TChain16SetBranchAddressEPKcPvPP7TBranch
fun:_ZN11AliAODEvent12ReadFromTreeEP5TTreePKc
fun:_ZN18AliAODInputHandler4InitEP5TTreePKc
fun:_ZN18AliAnalysisManager4InitEP5TTree
}
{
root_jets_256
Memcheck:Leak
match-leak-kinds: possible
fun:_Znwm
fun:_ZN8TStorage11ObjectAllocEm
fun:_ZN5TCint23CreateListOfBaseClassesEP6TClass
fun:_ZN6TClass14GetListOfBasesEv
fun:_ZN6TClass12GetBaseClassEPKS_
fun:_ZNK6TClass12InheritsFromEPKS_
fun:_ZNK6TClass8PropertyEv
fun:_ZNK6TClass9IsForeignEv
fun:_ZN6TClass13PostLoadCheckEv
fun:_ZNK5TROOT9LoadClassEPKcb
fun:_ZN6TClass8GetClassEPKcbb
fun:_ZN10TBaseClass15GetClassPointerEb
}
{
root_jets_257
Memcheck:Leak
match-leak-kinds: possible
fun:_Znwm
fun:_ZNSs4_Rep9_S_createEmmRKSaIcE
fun:_ZNSs9_M_mutateEmmm
fun:_ZNSs15_M_replace_safeEmmPKcm
fun:_ZN9TClassRef6AssignEP6TClass
fun:_ZN4ROOT14TSchemaRuleSet8SetClassEP6TClass
fun:_ZN6TClass14GetSchemaRulesEb
fun:_ZN6TClass7AddRuleEPKc
fun:_ZN12_GLOBAL__N_116ReadRulesContentEP8_IO_FILE
fun:_ZN6TClass9ReadRulesEv
fun:_ZN5TROOTC1EPKcS1_PPFvvE
fun:_ZN4ROOT7GetROOTEv
}
{
root_jets_258
Memcheck:Leak
match-leak-kinds: possible
fun:_Znwm
fun:_ZN5TCint23CreateListOfBaseClassesEP6TClass
fun:_ZN6TClass14GetListOfBasesEv
fun:_ZN6TClass12GetBaseClassEPKS_
fun:_ZNK6TClass12InheritsFromEPKS_
fun:_ZNK6TClass8PropertyEv
fun:_ZNK6TClass9IsForeignEv
fun:_ZN6TClass13PostLoadCheckEv
fun:_ZNK5TROOT9LoadClassEPKcb
fun:_ZN6TClass8GetClassEPKcbb
fun:_ZN10TBaseClass15GetClassPointerEb
fun:_ZN8TQObject23CollectClassSignalListsER5TListP6TClass
}
{
root_jets_259
Memcheck:Leak
match-leak-kinds: possible
fun:_Znwm
fun:_ZNSs4_Rep9_S_createEmmRKSaIcE
fun:_ZNSs12_S_constructIPKcEEPcT_S3_RKSaIcESt20forward_iterator_tag
fun:_ZNSsC1EPKcRKSaIcE
fun:_ZN6TClass8AddClassEPS_
fun:_ZN6TClass4InitEPKcsPKSt9type_infoP16TVirtualIsAProxyPFvPvR16TMemberInspectorES1_S1_iib
fun:_ZN6TClassC1EPKcsRKSt9type_infoP16TVirtualIsAProxyPFvPvR16TMemberInspectorES1_S1_iib
fun:_ZN4ROOT11CreateClassEPKcsRKSt9type_infoP16TVirtualIsAProxyPFvPvR16TMemberInspectorES1_S1_ii
fun:_ZN4ROOT17TGenericClassInfo8GetClassEv
fun:_ZNK5TROOT9LoadClassEPKcb
fun:_ZN6TClass8GetClassEPKcbb
fun:_ZN14TBuildRealData7InspectEP6TClassPKcS3_PKv
}
{
root_jets_260
Memcheck:Leak
match-leak-kinds: possible
fun:_Znam
fun:_ZN13TStreamerInfo7CompileEv
fun:_ZN13TStreamerInfo5BuildEv
fun:_ZN11TBufferFile15ReadClassBufferEPK6TClassPvijjS2_
fun:_ZN21TStreamerBasicPointer8StreamerER7TBuffer
fun:_ZN11TBufferFile13ReadObjectAnyEPK6TClass
fun:_ZN9TObjArray8StreamerER7TBuffer
fun:_ZN11TBufferFile13ReadObjectAnyEPK6TClass
fun:_ZrsI9TObjArrayER7TBufferS2_RPT_
fun:_ZN13TStreamerInfo8StreamerER7TBuffer
fun:_ZN11TBufferFile13ReadObjectAnyEPK6TClass
fun:_ZrsI7TObjectER7TBufferS2_RPT_
}
{
root_jets_261
Memcheck:Leak
match-leak-kinds: possible
fun:_Znam
fun:_ZN13TStreamerInfo7CompileEv
fun:_ZN13TStreamerInfo5BuildEv
fun:_ZN11TBufferFile15ReadClassBufferEPK6TClassPvijjS2_
fun:_ZN13TStreamerLoop8StreamerER7TBuffer
fun:_ZN11TBufferFile13ReadObjectAnyEPK6TClass
fun:_ZN9TObjArray8StreamerER7TBuffer
fun:_ZN11TBufferFile13ReadObjectAnyEPK6TClass
fun:_ZrsI9TObjArrayER7TBufferS2_RPT_
fun:_ZN13TStreamerInfo8StreamerER7TBuffer
fun:_ZN11TBufferFile13ReadObjectAnyEPK6TClass
fun:_ZrsI7TObjectER7TBufferS2_RPT_
}
{
root_jets_262
Memcheck:Leak
match-leak-kinds: possible
fun:_Znam
fun:_ZN13TStreamerInfo7CompileEv
fun:_ZN13TStreamerInfo8BuildOldEv
fun:_ZN11TBufferFile15ReadClassBufferEPK6TClassPvS2_
fun:_ZN13TStreamerInfo10ReadBufferIPPcEEiR7TBufferRKT_iiii
fun:_ZN20TStreamerInfoActions17GenericReadActionER7TBufferPvPKNS_14TConfigurationE
fun:_ZN11TBufferFile13ApplySequenceERKN20TStreamerInfoActions15TActionSequenceEPv
fun:_ZN11TBufferFile15ReadClassBufferEPK6TClassPvS2_
fun:_ZN12AliAODHeader8StreamerER7TBuffer
fun:_ZN11TBufferFile13ReadObjectAnyEPK6TClass
fun:_ZrsI7TObjectER7TBufferS2_RPT_
fun:_ZN5TList8StreamerER7TBuffer
}
{
root_jets_263
Memcheck:Leak
match-leak-kinds: possible
fun:_Znam
fun:_ZN13TStreamerInfo7CompileEv
fun:_ZN13TStreamerInfo8BuildOldEv
fun:_ZN11TBufferFile15ReadClassBufferEPK6TClassPvS2_
fun:_ZN14AliTPCdEdxInfo8StreamerER7TBuffer
fun:_ZN11TBufferFile13ReadObjectAnyEPK6TClass
fun:_ZN11TBufferFile13ReadFastArrayEPPvPK6TClassibP15TMemberStreamerS4_
fun:_ZN13TStreamerInfo10ReadBufferIPPcEEiR7TBufferRKT_iiii
fun:_ZN20TStreamerInfoActions17GenericReadActionER7TBufferPvPKNS_14TConfigurationE
fun:_ZN11TBufferFile13ApplySequenceERKN20TStreamerInfoActions15TActionSequenceEPv
fun:_ZN11TBufferFile15ReadClassBufferEPK6TClassPvS2_
fun:_ZN9AliAODPid8StreamerER7TBuffer
}
{
root_jets_264
Memcheck:Leak
match-leak-kinds: possible
fun:_Znam
fun:_ZN13TStreamerInfo7CompileEv
fun:_ZN13TStreamerInfo8BuildOldEv
fun:_ZN11TBufferFile15ReadClassBufferEPK6TClassPvS2_
fun:_ZN11TBufferFile13ReadObjectAnyEPK6TClass
fun:_ZN11TBufferFile13ReadFastArrayEPPvPK6TClassibP15TMemberStreamerS4_
fun:_ZN13TStreamerInfo10ReadBufferIPPcEEiR7TBufferRKT_iiii
fun:_ZN20TStreamerInfoActions15VectorPtrLooper11GenericReadER7TBufferPvPKvPKNS_14TConfigurationE
fun:_ZN11TBufferFile19ApplySequenceVecPtrERKN20TStreamerInfoActions15TActionSequenceEPvS4_
fun:_ZN14TBranchElement22ReadLeavesClonesMemberER7TBuffer
fun:_ZN7TBranch8GetEntryExi
fun:_ZN14TBranchElement8GetEntryExi
}
{
root_jets_265
Memcheck:Leak
match-leak-kinds: possible
fun:_Znwm
fun:_ZN8TStorage11ObjectAllocEm
fun:_ZN5TCint23CreateListOfBaseClassesEP6TClass
fun:_ZN6TClass14GetListOfBasesEv
fun:_ZN8TQObject23CollectClassSignalListsER5TListP6TClass
fun:_ZN8TQObject4EmitEPKc
fun:_ZN15TMessageHandler6NotifyEv
fun:_ZN15TMessageHandler13HandleMessageEiPK7TObject
fun:_ZN5TROOT7MessageEiPK7TObject
fun:_ZNK7TObject5ErrorEPKcS1_z
fun:_ZN11TBufferFile13ReadObjectAnyEPK6TClass
fun:_ZrsI7TObjectER7TBufferS2_RPT_
}
{
root_jets_266
Memcheck:Leak
match-leak-kinds: possible
fun:_Znam
fun:_ZN13TStreamerInfo7CompileEv
fun:_ZN13TStreamerInfo8BuildOldEv
fun:_ZNK6TClass15GetStreamerInfoEi
fun:_ZN13TStreamerInfo8BuildOldEv
fun:_ZN11TBufferFile15ReadClassBufferEPK6TClassPvijjS2_
fun:_ZN4TH2F8StreamerER7TBuffer
fun:_ZN11TBufferFile13ReadFastArrayEPPvPK6TClassibP15TMemberStreamerS4_
fun:_ZN13TStreamerInfo10ReadBufferIPPcEEiR7TBufferRKT_iiii
fun:_ZN20TStreamerInfoActions17GenericReadActionER7TBufferPvPKNS_14TConfigurationE
fun:_ZN11TBufferFile13ApplySequenceERKN20TStreamerInfoActions15TActionSequenceEPv
fun:_ZN11TBufferFile15ReadClassBufferEPK6TClassPvS2_
}
{
root_jets_267
Memcheck:Leak
match-leak-kinds: possible
fun:_Znam
fun:_ZN13TStreamerInfo7CompileEv
fun:_ZN13TStreamerInfo8BuildOldEv
fun:_ZN11TBufferFile15ReadClassBufferEPK6TClassPvS2_
fun:_ZN11TBufferFile13ReadObjectAnyEPK6TClass
fun:_ZN11TBufferFile13ReadFastArrayEPPvPK6TClassibP15TMemberStreamerS4_
fun:_ZN13TStreamerInfo10ReadBufferIPPcEEiR7TBufferRKT_iiii
fun:_ZN20TStreamerInfoActions17GenericReadActionER7TBufferPvPKNS_14TConfigurationE
fun:_ZN11TBufferFile13ApplySequenceERKN20TStreamerInfoActions15TActionSequenceEPv
fun:_ZN11TBufferFile15ReadClassBufferEPK6TClassPvS2_
fun:_ZN10TBranchRef8StreamerER7TBuffer
fun:_ZN11TBufferFile13ReadObjectAnyEPK6TClass
}
{
root_jets_268
Memcheck:Leak
match-leak-kinds: possible
fun:_Znam
fun:_ZN13TStreamerInfo7CompileEv
fun:_ZN13TStreamerInfo8BuildOldEv
fun:_ZNK6TClass15GetStreamerInfoEi
fun:_ZN13TStreamerInfo8BuildOldEv
fun:_ZN11TBufferFile15ReadClassBufferEPK6TClassPvS2_
fun:_ZN23AliGenPythiaEventHeader8StreamerER7TBuffer
fun:_ZN11TBufferFile13ReadObjectAnyEPK6TClass
fun:_ZrsI7TObjectER7TBufferS2_RPT_
fun:_ZN5TList8StreamerER7TBuffer
fun:_ZN11TBufferFile13ReadObjectAnyEPK6TClass
fun:_ZN11TBufferFile13ReadFastArrayEPPvPK6TClassibP15TMemberStreamerS4_
}
{
root_jets_269
Memcheck:Leak
match-leak-kinds: possible
fun:_Znam
fun:_ZN13TStreamerInfo7CompileEv
fun:_ZN13TStreamerInfo5BuildEv
fun:_ZNK6TClass15GetStreamerInfoEi
fun:_ZN13TStreamerInfo5BuildEv
fun:_ZN11TBufferFile15ReadClassBufferEPK6TClassPvijjS2_
fun:_ZN18TStreamerBasicType8StreamerER7TBuffer
fun:_ZN11TBufferFile13ReadObjectAnyEPK6TClass
fun:_ZN9TObjArray8StreamerER7TBuffer
fun:_ZN11TBufferFile13ReadObjectAnyEPK6TClass
fun:_ZrsI9TObjArrayER7TBufferS2_RPT_
fun:_ZN13TStreamerInfo8StreamerER7TBuffer
}
{
root_jets_270
Memcheck:Leak
match-leak-kinds: possible
fun:_Znam
fun:_ZN13TStreamerInfo7CompileEv
fun:_ZN13TStreamerInfo8BuildOldEv
fun:_ZNK6TClass15GetStreamerInfoEi
fun:_ZN13TStreamerInfo8BuildOldEv
fun:_ZN11TBufferFile15ReadClassBufferEPK6TClassPvS2_
fun:_ZN12TLeafElement8StreamerER7TBuffer
fun:_ZN11TBufferFile13ReadObjectAnyEPK6TClass
fun:_ZN9TObjArray8StreamerER7TBuffer
fun:_ZN13TStreamerInfo10ReadBufferIPPcEEiR7TBufferRKT_iiii
fun:_ZN20TStreamerInfoActions17GenericReadActionER7TBufferPvPKNS_14TConfigurationE
fun:_ZN11TBufferFile13ApplySequenceERKN20TStreamerInfoActions15TActionSequenceEPv
}
{
root_jets_271
Memcheck:Leak
match-leak-kinds: possible
fun:_Znam
fun:_ZN13TStreamerInfo7CompileEv
fun:_ZN13TStreamerInfo8BuildOldEv
fun:_ZN11TBufferFile15ReadClassBufferEPK6TClassPvS2_
fun:_ZN15AliAODTracklets8StreamerER7TBuffer
fun:_ZN11TBufferFile13ReadObjectAnyEPK6TClass
fun:_ZrsI7TObjectER7TBufferS2_RPT_
fun:_ZN5TList8StreamerER7TBuffer
fun:_ZN11TBufferFile13ReadObjectAnyEPK6TClass
fun:_ZN11TBufferFile13ReadFastArrayEPPvPK6TClassibP15TMemberStreamerS4_
fun:_ZN13TStreamerInfo10ReadBufferIPPcEEiR7TBufferRKT_iiii
fun:_ZN20TStreamerInfoActions17GenericReadActionER7TBufferPvPKNS_14TConfigurationE
}
{
root_jets_272
Memcheck:Leak
match-leak-kinds: possible
fun:_Znam
fun:_ZN13TStreamerInfo7CompileEv
fun:_ZN13TStreamerInfo8BuildOldEv
fun:_ZN11TBufferFile15ReadClassBufferEPK6TClassPvS2_
fun:_ZN15AliAODCaloCells8StreamerER7TBuffer
fun:_ZN11TBufferFile13ReadObjectAnyEPK6TClass
fun:_ZrsI7TObjectER7TBufferS2_RPT_
fun:_ZN5TList8StreamerER7TBuffer
fun:_ZN11TBufferFile13ReadObjectAnyEPK6TClass
fun:_ZN11TBufferFile13ReadFastArrayEPPvPK6TClassibP15TMemberStreamerS4_
fun:_ZN13TStreamerInfo10ReadBufferIPPcEEiR7TBufferRKT_iiii
fun:_ZN20TStreamerInfoActions17GenericReadActionER7TBufferPvPKNS_14TConfigurationE
}
{
root_jets_273
Memcheck:Leak
match-leak-kinds: possible
fun:_Znam
fun:_ZN13TStreamerInfo7CompileEv
fun:_ZN13TStreamerInfo8BuildOldEv
fun:_ZNK6TClass15GetStreamerInfoEi
fun:_ZN13TStreamerInfo8BuildOldEv
fun:_ZN11TBufferFile15ReadClassBufferEPK6TClassPvijjS2_
fun:_ZN5TTree8StreamerER7TBuffer
fun:_ZN4TKey7ReadObjEv
fun:_ZN14TDirectoryFile3GetEPKc
fun:_ZN6TChain8LoadTreeEx
fun:_ZNK6TChain10GetEntriesEv
fun:_ZL19G__G__Tree_126_0_75P8G__valuePKcP8G__parami
}
{
root_jets_274
Memcheck:Leak
match-leak-kinds: possible
fun:_Znam
fun:_ZN13TStreamerInfo7CompileEv
fun:_ZN13TStreamerInfo8BuildOldEv
fun:_ZN11TBufferFile15ReadClassBufferEPK6TClassPvS2_
fun:_ZN11AliAODTZERO8StreamerER7TBuffer
fun:_ZN11TBufferFile13ReadObjectAnyEPK6TClass
fun:_ZrsI7TObjectER7TBufferS2_RPT_
fun:_ZN5TList8StreamerER7TBuffer
fun:_ZN11TBufferFile13ReadObjectAnyEPK6TClass
fun:_ZN11TBufferFile13ReadFastArrayEPPvPK6TClassibP15TMemberStreamerS4_
fun:_ZN13TStreamerInfo10ReadBufferIPPcEEiR7TBufferRKT_iiii
fun:_ZN20TStreamerInfoActions17GenericReadActionER7TBufferPvPKNS_14TConfigurationE
}
{
root_jets_275
Memcheck:Leak
match-leak-kinds: possible
fun:_Znwm
fun:_ZN8TStorage11ObjectAllocEm
fun:_ZN5TCint23CreateListOfBaseClassesEP6TClass
fun:_ZN6TClass14GetListOfBasesEv
fun:_ZN6TClass12GetBaseClassEPKS_
fun:_ZNK6TClass12InheritsFromEPKS_
fun:_ZNK6TClass8PropertyEv
fun:_ZNK6TClass9IsForeignEv
fun:_ZN6TClass13PostLoadCheckEv
fun:_ZNK5TROOT9LoadClassEPKcb
fun:_ZN6TClass8GetClassEPKcbb
fun:_ZN10TBaseClass15GetClassPointerEb
}
{
root_jets_276
Memcheck:Leak
match-leak-kinds: possible
fun:_Znam
fun:_ZN13TStreamerInfo7CompileEv
fun:_ZN13TStreamerInfo8BuildOldEv
fun:_ZN11TBufferFile15ReadClassBufferEPK6TClassPvS2_
fun:_ZN14AliAODMCHeader8StreamerER7TBuffer
fun:_ZN11TBufferFile13ReadObjectAnyEPK6TClass
fun:_ZrsI7TObjectER7TBufferS2_RPT_
fun:_ZN5TList8StreamerER7TBuffer
fun:_ZN11TBufferFile13ReadObjectAnyEPK6TClass
fun:_ZN11TBufferFile13ReadFastArrayEPPvPK6TClassibP15TMemberStreamerS4_
fun:_ZN13TStreamerInfo10ReadBufferIPPcEEiR7TBufferRKT_iiii
fun:_ZN20TStreamerInfoActions17GenericReadActionER7TBufferPvPKNS_14TConfigurationE
}
{
root_jets_277
Memcheck:Leak
match-leak-kinds: possible
fun:_Znwm
fun:_ZN8TStorage11ObjectAllocEm
fun:_ZN7TObjectnwEm
fun:_ZNK4ROOT20TQObjectInitBehavior11CreateClassEPKcsRKSt9type_infoP16TVirtualIsAProxyPFvPvR16TMemberInspectorES2_S2_ii
fun:_ZN4ROOT17TGenericClassInfo8GetClassEv
fun:_ZN14TSignalHandler5ClassEv
fun:_ZN8TQObject4EmitEPKc
fun:_ZN5TRintC1EPKcPiPPcPvib
fun:main
}
{
root_jets_278
Memcheck:Leak
match-leak-kinds: possible
fun:_Znwm
fun:_ZN8TStorage11ObjectAllocEm
fun:_ZN7TObjectnwEm
fun:_ZNK4ROOT20TQObjectInitBehavior11CreateClassEPKcsRKSt9type_infoP16TVirtualIsAProxyPFvPvR16TMemberInspectorES2_S2_ii
fun:_ZN4ROOT17TGenericClassInfo8GetClassEv
fun:_ZN14TSysEvtHandler10DictionaryEv
fun:_ZNK5TROOT9LoadClassEPKcb
fun:_ZN6TClass8GetClassEPKcbb
fun:_ZN10TBaseClass15GetClassPointerEb
fun:_ZN8TQObject23CollectClassSignalListsER5TListP6TClass
fun:_ZN8TQObject4EmitEPKc
fun:_ZN5TRintC1EPKcPiPPcPvib
}
{
root_jets_279
Memcheck:Leak
match-leak-kinds: possible
fun:_Znwm
fun:_ZN8TStorage11ObjectAllocEm
fun:_ZN7TObjectnwEm
fun:_ZNK4ROOT20TQObjectInitBehavior11CreateClassEPKcsRKSt9type_infoP16TVirtualIsAProxyPFvPvR16TMemberInspectorES2_S2_ii
fun:_ZN4ROOT17TGenericClassInfo8GetClassEv
fun:_ZN8TQObject10DictionaryEv
fun:_ZNK5TROOT9LoadClassEPKcb
fun:_ZN6TClass8GetClassEPKcbb
fun:_ZN10TBaseClass15GetClassPointerEb
fun:_ZN8TQObject23CollectClassSignalListsER5TListP6TClass
fun:_ZN8TQObject23CollectClassSignalListsER5TListP6TClass
fun:_ZN8TQObject4EmitEPKc
}
{
root_jets_280
Memcheck:Leak
match-leak-kinds: possible
fun:_Znwm
fun:_ZN8TStorage11ObjectAllocEm
fun:_ZN7TObjectnwEm
fun:_ZNK4ROOT20TQObjectInitBehavior11CreateClassEPKcsRKSt9type_infoP16TVirtualIsAProxyPFvPvR16TMemberInspectorES2_S2_ii
fun:_ZN4ROOT17TGenericClassInfo8GetClassEv
fun:_ZN12TFileHandler5ClassEv
fun:_ZN8TQObject4EmitEPKc
fun:_ZN5TRintC1EPKcPiPPcPvib
fun:main
}
{
root_jets_281
Memcheck:Leak
match-leak-kinds: possible
fun:_Znwm
fun:_ZN8TStorage11ObjectAllocEm
fun:_ZN7TObjectnwEm
fun:_ZNK4ROOT20TQObjectInitBehavior11CreateClassEPKcsRKSt9type_infoP16TVirtualIsAProxyPFvPvR16TMemberInspectorES2_S2_ii
fun:_ZN4ROOT17TGenericClassInfo8GetClassEv
fun:_ZN15TMessageHandler5ClassEv
fun:_ZN8TQObject4EmitEPKc
fun:_ZN15TMessageHandler6NotifyEv
fun:_ZN15TMessageHandler13HandleMessageEiPK7TObject
fun:_ZN5TROOT7MessageEiPK7TObject
fun:_ZNK7TObject5ErrorEPKcS1_z
fun:_ZN11TBufferFile13ReadObjectAnyEPK6TClass
}
{
root_jets_282
Memcheck:Leak
match-leak-kinds: possible
fun:_Znwm
fun:_ZN8TStorage11ObjectAllocEm
fun:_ZN7TObjectnwEm
fun:_ZNK4ROOT20TQObjectInitBehavior11CreateClassEPKcsRKSt9type_infoP16TVirtualIsAProxyPFvPvR16TMemberInspectorES2_S2_ii
fun:_ZN4ROOT17TGenericClassInfo8GetClassEv
fun:_ZN5TRint5ClassEv
fun:_ZN8TQObject4EmitEPKcl
fun:_ZN12TApplication9TerminateEi
fun:_ZN5TRint3RunEb
fun:main
}
{
root_jets_283
Memcheck:Leak
match-leak-kinds: possible
fun:_Znwm
fun:_ZN8TStorage11ObjectAllocEm
fun:_ZN7TObjectnwEm
fun:_ZNK4ROOT20TQObjectInitBehavior11CreateClassEPKcsRKSt9type_infoP16TVirtualIsAProxyPFvPvR16TMemberInspectorES2_S2_ii
fun:_ZN4ROOT17TGenericClassInfo8GetClassEv
fun:_ZN12TApplication10DictionaryEv
fun:_ZNK5TROOT9LoadClassEPKcb
fun:_ZN6TClass8GetClassEPKcbb
fun:_ZN10TBaseClass15GetClassPointerEb
fun:_ZN8TQObject23CollectClassSignalListsER5TListP6TClass
fun:_ZN8TQObject4EmitEPKcl
fun:_ZN12TApplication9TerminateEi
}
{
root_jets_284
Memcheck:Leak
match-leak-kinds: possible
fun:_Znam
fun:_ZN13TStreamerInfo7CompileEv
fun:_ZN13TStreamerInfo8BuildOldEv
fun:_ZNK6TClass15GetStreamerInfoEi
fun:_ZN13TStreamerInfo8BuildOldEv
fun:_ZN11TBufferFile15ReadClassBufferEPK6TClassPvijjS2_
fun:_ZN5TAxis8StreamerER7TBuffer
fun:_ZN13TStreamerInfo10ReadBufferIPPcEEiR7TBufferRKT_iiii
fun:_ZN20TStreamerInfoActions17GenericReadActionER7TBufferPvPKNS_14TConfigurationE
fun:_ZN11TBufferFile13ApplySequenceERKN20TStreamerInfoActions15TActionSequenceEPv
fun:_ZN11TBufferFile15ReadClassBufferEPK6TClassPvijjS2_
fun:_ZN3TH18StreamerER7TBuffer
}
{
root_jets_285
Memcheck:Leak
match-leak-kinds: possible
fun:_Znam
fun:_ZN13TStreamerInfo7CompileEv
fun:_ZN13TStreamerInfo8BuildOldEv
fun:_ZN11TBufferFile15ReadClassBufferEPK6TClassPvS2_
fun:_ZN14TBranchElement8StreamerER7TBuffer
fun:_ZN11TBufferFile13ReadObjectAnyEPK6TClass
fun:_ZN9TObjArray8StreamerER7TBuffer
fun:_ZN13TStreamerInfo10ReadBufferIPPcEEiR7TBufferRKT_iiii
fun:_ZN20TStreamerInfoActions17GenericReadActionER7TBufferPvPKNS_14TConfigurationE
fun:_ZN11TBufferFile13ApplySequenceERKN20TStreamerInfoActions15TActionSequenceEPv
fun:_ZN11TBufferFile15ReadClassBufferEPK6TClassPvijjS2_
fun:_ZN5TTree8StreamerER7TBuffer
}
{
root_jets_286
Memcheck:Leak
match-leak-kinds: possible
fun:_Znam
fun:_ZN13TStreamerInfo7CompileEv
fun:_ZN13TStreamerInfo8BuildOldEv
fun:_ZN11TBufferFile15ReadClassBufferEPK6TClassPvijjS2_
fun:_ZN5TAxis8StreamerER7TBuffer
fun:_ZN13TStreamerInfo10ReadBufferIPPcEEiR7TBufferRKT_iiii
fun:_ZN20TStreamerInfoActions17GenericReadActionER7TBufferPvPKNS_14TConfigurationE
fun:_ZN11TBufferFile13ApplySequenceERKN20TStreamerInfoActions15TActionSequenceEPv
fun:_ZN11TBufferFile15ReadClassBufferEPK6TClassPvijjS2_
fun:_ZN3TH18StreamerER7TBuffer
fun:_ZN13TStreamerBase10ReadBufferER7TBufferPc
fun:_ZN13TStreamerInfo10ReadBufferIPPcEEiR7TBufferRKT_iiii
}
{
root_jets_287
Memcheck:Leak
match-leak-kinds: possible
fun:_Znam
fun:_ZN13TStreamerInfo7CompileEv
fun:_ZN13TStreamerInfo8BuildOldEv
fun:_ZN11TBufferFile15ReadClassBufferEPK6TClassPvS2_
fun:_ZN13AliESDpidCuts8StreamerER7TBuffer
fun:_ZN11TBufferFile13ReadObjectAnyEPK6TClass
fun:_ZrsI7TObjectER7TBufferS2_RPT_
fun:_ZN5TList8StreamerER7TBuffer
fun:_ZN11TBufferFile13ReadObjectAnyEPK6TClass
fun:_ZN11TBufferFile13ReadFastArrayEPPvPK6TClassibP15TMemberStreamerS4_
fun:_ZN13TStreamerInfo10ReadBufferIPPcEEiR7TBufferRKT_iiii
fun:_ZN20TStreamerInfoActions17GenericReadActionER7TBufferPvPKNS_14TConfigurationE
}
{
root_jets_288
Memcheck:Leak
match-leak-kinds: possible
fun:_Znam
fun:_ZN13TStreamerInfo7CompileEv
fun:_ZN13TStreamerInfo8BuildOldEv
fun:_ZN11TBufferFile15ReadClassBufferEPK6TClassPvS2_
fun:_ZN12AliTOFHeader8StreamerER7TBuffer
fun:_ZN11TBufferFile13ReadObjectAnyEPK6TClass
fun:_ZrsI7TObjectER7TBufferS2_RPT_
fun:_ZN5TList8StreamerER7TBuffer
fun:_ZN11TBufferFile13ReadObjectAnyEPK6TClass
fun:_ZN11TBufferFile13ReadFastArrayEPPvPK6TClassibP15TMemberStreamerS4_
fun:_ZN13TStreamerInfo10ReadBufferIPPcEEiR7TBufferRKT_iiii
fun:_ZN20TStreamerInfoActions17GenericReadActionER7TBufferPvPKNS_14TConfigurationE
}
{
root_jets_289
Memcheck:Leak
match-leak-kinds: possible
fun:_Znam
fun:_ZN13TStreamerInfo7CompileEv
fun:_ZN13TStreamerInfo8BuildOldEv
fun:_ZN11TBufferFile15ReadClassBufferEPK6TClassPvS2_
fun:_ZN23AliGenPythiaEventHeader8StreamerER7TBuffer
fun:_ZN11TBufferFile13ReadObjectAnyEPK6TClass
fun:_ZrsI7TObjectER7TBufferS2_RPT_
fun:_ZN5TList8StreamerER7TBuffer
fun:_ZN11TBufferFile13ReadObjectAnyEPK6TClass
fun:_ZN11TBufferFile13ReadFastArrayEPPvPK6TClassibP15TMemberStreamerS4_
fun:_ZN13TStreamerInfo10ReadBufferIPPcEEiR7TBufferRKT_iiii
fun:_ZN20TStreamerInfoActions17GenericReadActionER7TBufferPvPKNS_14TConfigurationE
}
{
root_jets_290
Memcheck:Leak
match-leak-kinds: possible
fun:_Znam
fun:_ZN13TStreamerInfo7CompileEv
fun:_ZN13TStreamerInfo8BuildOldEv
fun:_ZN11TBufferFile15ReadClassBufferEPK6TClassPvS2_
fun:_ZN17AliAODCaloTrigger8StreamerER7TBuffer
fun:_ZN11TBufferFile13ReadObjectAnyEPK6TClass
fun:_ZrsI7TObjectER7TBufferS2_RPT_
fun:_ZN5TList8StreamerER7TBuffer
fun:_ZN11TBufferFile13ReadObjectAnyEPK6TClass
fun:_ZN11TBufferFile13ReadFastArrayEPPvPK6TClassibP15TMemberStreamerS4_
fun:_ZN13TStreamerInfo10ReadBufferIPPcEEiR7TBufferRKT_iiii
fun:_ZN20TStreamerInfoActions17GenericReadActionER7TBufferPvPKNS_14TConfigurationE
}
{
root_jets_291
Memcheck:Leak
match-leak-kinds: possible
fun:_Znam
fun:_ZN13TStreamerInfo7CompileEv
fun:_ZN13TStreamerInfo5BuildEv
fun:_ZNK6TClass15GetStreamerInfoEi
fun:_ZN13TStreamerInfo8BuildOldEv
fun:_ZNK6TClass15GetStreamerInfoEi
fun:_ZN11TBufferFile10ReadClonesEP12TClonesArrayis
fun:_ZN12TClonesArray8StreamerER7TBuffer
fun:_ZN11TBufferFile13ReadObjectAnyEPK6TClass
fun:_ZrsI7TObjectER7TBufferS2_RPT_
fun:_ZN5TList8StreamerER7TBuffer
fun:_ZN11TBufferFile13ReadObjectAnyEPK6TClass
}
{
root_jets_292
Memcheck:Leak
match-leak-kinds: possible
fun:_Znam
fun:_ZN13TStreamerInfo7CompileEv
fun:_ZN13TStreamerInfo8BuildOldEv
fun:_ZNK6TClass15GetStreamerInfoEi
fun:_ZN13TStreamerInfo8BuildOldEv
fun:_ZN11TBufferFile15ReadClassBufferEPK6TClassPvijjS2_
fun:_ZN3TF18StreamerER7TBuffer
fun:_ZN11TBufferFile13ReadFastArrayEPPvPK6TClassibP15TMemberStreamerS4_
fun:_ZN13TStreamerInfo10ReadBufferIPPcEEiR7TBufferRKT_iiii
fun:_ZN20TStreamerInfoActions17GenericReadActionER7TBufferPvPKNS_14TConfigurationE
fun:_ZN11TBufferFile13ApplySequenceERKN20TStreamerInfoActions15TActionSequenceEPv
fun:_ZN11TBufferFile15ReadClassBufferEPK6TClassPvS2_
}
{
root_jets_293
Memcheck:Leak
match-leak-kinds: possible
fun:_Znam
fun:_ZN13TStreamerInfo7CompileEv
fun:_ZN13TStreamerInfo8BuildOldEv
fun:_ZN11TBufferFile15ReadClassBufferEPK6TClassPvS2_
fun:_ZN11AliAODVZERO8StreamerER7TBuffer
fun:_ZN11TBufferFile13ReadObjectAnyEPK6TClass
fun:_ZrsI7TObjectER7TBufferS2_RPT_
fun:_ZN5TList8StreamerER7TBuffer
fun:_ZN11TBufferFile13ReadObjectAnyEPK6TClass
fun:_ZN11TBufferFile13ReadFastArrayEPPvPK6TClassibP15TMemberStreamerS4_
fun:_ZN13TStreamerInfo10ReadBufferIPPcEEiR7TBufferRKT_iiii
fun:_ZN20TStreamerInfoActions17GenericReadActionER7TBufferPvPKNS_14TConfigurationE
}
{
root_jets_294
Memcheck:Leak
match-leak-kinds: possible
fun:_Znam
fun:_ZN13TStreamerInfo7CompileEv
fun:_ZN13TStreamerInfo8BuildOldEv
fun:_ZN14TBranchElement18SetupAddressesImplEv
fun:_ZN14TBranchElement8GetEntryExi
fun:_ZN5TTree8GetEntryExi
fun:_ZN18AliAnalysisManager8GetEntryExi
fun:_ZN19AliAnalysisSelector7ProcessEx
fun:_ZN11TTreePlayer7ProcessEP9TSelectorPKcxx
fun:_ZN18AliAnalysisManager13StartAnalysisEPKcP5TTreexx
fun:_ZL23G__G__ANALYSIS_208_0_14P8G__valuePKcP8G__parami
fun:_ZN4Cint19G__ExceptionWrapperEPFiP8G__valuePKcP8G__paramiES1_PcS5_i
}
{
root_jets_295
Memcheck:Leak
match-leak-kinds: possible
fun:_Znam
fun:_ZN13TStreamerInfo7CompileEv
fun:_ZN13TStreamerInfo8BuildOldEv
fun:_ZN11TBufferFile15ReadClassBufferEPK6TClassPvS2_
fun:_ZN9AliAODPid8StreamerER7TBuffer
fun:_ZN11TBufferFile13ReadObjectAnyEPK6TClass
fun:_ZN11TBufferFile13ReadFastArrayEPPvPK6TClassibP15TMemberStreamerS4_
fun:_ZN13TStreamerInfo10ReadBufferIPPcEEiR7TBufferRKT_iiii
fun:_ZN20TStreamerInfoActions15VectorPtrLooper11GenericReadER7TBufferPvPKvPKNS_14TConfigurationE
fun:_ZN11TBufferFile19ApplySequenceVecPtrERKN20TStreamerInfoActions15TActionSequenceEPvS4_
fun:_ZN14TBranchElement22ReadLeavesClonesMemberER7TBuffer
fun:_ZN7TBranch8GetEntryExi
}
{
root_jets_296
Memcheck:Leak
match-leak-kinds: possible
fun:_Znwm
fun:_ZNSs4_Rep9_S_createEmmRKSaIcE
fun:_ZNSs9_M_mutateEmmm
fun:_ZNSs15_M_replace_safeEmmPKcm
fun:_ZN9TClassRef6AssignEP6TClass
fun:_ZN10TBaseClass15GetClassPointerEb
fun:_ZN6TClass12GetBaseClassEPKS_
fun:_ZNK6TClass12InheritsFromEPKS_
fun:_ZNK6TClass8PropertyEv
fun:_ZNK6TClass9IsForeignEv
fun:_ZN6TClass13PostLoadCheckEv
fun:_ZNK5TROOT9LoadClassEPKcb
}
{
root_jets_297
Memcheck:Leak
match-leak-kinds: possible
fun:_Znam
fun:_ZN13TStreamerInfo7CompileEv
fun:_ZN13TStreamerInfo8BuildOldEv
fun:_ZN11TBufferFile15ReadClassBufferEPK6TClassPvijjS2_
fun:_ZN3TF18StreamerER7TBuffer
fun:_ZN11TBufferFile13ReadFastArrayEPPvPK6TClassibP15TMemberStreamerS4_
fun:_ZN13TStreamerInfo10ReadBufferIPPcEEiR7TBufferRKT_iiii
fun:_ZN20TStreamerInfoActions17GenericReadActionER7TBufferPvPKNS_14TConfigurationE
fun:_ZN11TBufferFile13ApplySequenceERKN20TStreamerInfoActions15TActionSequenceEPv
fun:_ZN11TBufferFile15ReadClassBufferEPK6TClassPvS2_
fun:_ZN15AliESDtrackCuts8StreamerER7TBuffer
fun:_ZN11TBufferFile13ReadObjectAnyEPK6TClass
}
{
root_jets_298
Memcheck:Leak
match-leak-kinds: possible
fun:_Znam
fun:_ZN13TStreamerInfo7CompileEv
fun:_ZN13TStreamerInfo5BuildEv
fun:_ZNK6TClass15GetStreamerInfoEi
fun:_ZN13TStreamerInfo8BuildOldEv
fun:_ZN11TBufferFile15ReadClassBufferEPK6TClassPvS2_
fun:_ZN9AliAODPid8StreamerER7TBuffer
fun:_ZN11TBufferFile13ReadObjectAnyEPK6TClass
fun:_ZN11TBufferFile13ReadFastArrayEPPvPK6TClassibP15TMemberStreamerS4_
fun:_ZN13TStreamerInfo10ReadBufferIPPcEEiR7TBufferRKT_iiii
fun:_ZN20TStreamerInfoActions15VectorPtrLooper11GenericReadER7TBufferPvPKvPKNS_14TConfigurationE
fun:_ZN11TBufferFile19ApplySequenceVecPtrERKN20TStreamerInfoActions15TActionSequenceEPvS4_
}
{
root_jets_299
Memcheck:Leak
match-leak-kinds: possible
fun:_Znam
fun:_ZN13TStreamerInfo7CompileEv
fun:_ZN13TStreamerInfo8BuildOldEv
fun:_ZN11TBufferFile15ReadClassBufferEPK6TClassPvS2_
fun:_ZN13AliEventplane8StreamerER7TBuffer
fun:_ZN11TBufferFile13ReadObjectAnyEPK6TClass
fun:_ZN11TBufferFile13ReadFastArrayEPPvPK6TClassibP15TMemberStreamerS4_
fun:_ZN13TStreamerInfo10ReadBufferIPPcEEiR7TBufferRKT_iiii
fun:_ZN20TStreamerInfoActions17GenericReadActionER7TBufferPvPKNS_14TConfigurationE
fun:_ZN11TBufferFile13ApplySequenceERKN20TStreamerInfoActions15TActionSequenceEPv
fun:_ZN11TBufferFile15ReadClassBufferEPK6TClassPvS2_
fun:_ZN12AliAODHeader8StreamerER7TBuffer
}
{
root_jets_300
Memcheck:Leak
match-leak-kinds: possible
fun:_Znam
fun:_ZN13TStreamerInfo7CompileEv
fun:_ZN13TStreamerInfo8BuildOldEv
fun:_ZN11TBufferFile15ReadClassBufferEPK6TClassPvS2_
fun:_ZN9AliAODZDC8StreamerER7TBuffer
fun:_ZN11TBufferFile13ReadObjectAnyEPK6TClass
fun:_ZrsI7TObjectER7TBufferS2_RPT_
fun:_ZN5TList8StreamerER7TBuffer
fun:_ZN11TBufferFile13ReadObjectAnyEPK6TClass
fun:_ZN11TBufferFile13ReadFastArrayEPPvPK6TClassibP15TMemberStreamerS4_
fun:_ZN13TStreamerInfo10ReadBufferIPPcEEiR7TBufferRKT_iiii
fun:_ZN20TStreamerInfoActions17GenericReadActionER7TBufferPvPKNS_14TConfigurationE
}
{
root_jets_301
Memcheck:Leak
match-leak-kinds: possible
fun:_Znam
fun:_ZN13TStreamerInfo7CompileEv
fun:_ZN13TStreamerInfo8BuildOldEv
fun:_ZNK6TClass15GetStreamerInfoEi
fun:_ZN13TStreamerInfo8BuildOldEv
fun:_ZN11TBufferFile15ReadClassBufferEPK6TClassPvS2_
fun:_ZN14TBranchElement8StreamerER7TBuffer
fun:_ZN11TBufferFile13ReadObjectAnyEPK6TClass
fun:_ZN9TObjArray8StreamerER7TBuffer
fun:_ZN13TStreamerInfo10ReadBufferIPPcEEiR7TBufferRKT_iiii
fun:_ZN20TStreamerInfoActions17GenericReadActionER7TBufferPvPKNS_14TConfigurationE
fun:_ZN11TBufferFile13ApplySequenceERKN20TStreamerInfoActions15TActionSequenceEPv
}
{
root_jets_302
Memcheck:Leak
match-leak-kinds: definite
fun:_Znwm
fun:_ZN8TStorage11ObjectAllocEm
fun:_ZNK7TString8TokenizeERKS_
fun:_ZL20G__G__Base2_15_0_161P8G__valuePKcP8G__parami
fun:_ZN4Cint19G__ExceptionWrapperEPFiP8G__valuePKcP8G__paramiES1_PcS5_i
fun:G__execute_call
fun:G__call_cppfunc
fun:G__interpret_func
fun:G__getfunction
fun:_Z15G__getstructmemiR18G__FastAllocStringPciS1_PiP12G__var_arrayi
fun:G__getvariable
fun:G__getitem
}
{
root_jets_303
Memcheck:Leak
match-leak-kinds: possible
fun:_Znam
fun:_ZN13TStreamerInfo7CompileEv
fun:_ZN13TStreamerInfo8BuildOldEv
fun:_ZNK6TClass15GetStreamerInfoEi
fun:_ZN13TStreamerInfo8BuildOldEv
fun:_ZN11TBufferFile15ReadClassBufferEPK6TClassPvS2_
fun:_ZN11TBufferFile13ReadFastArrayEPPvPK6TClassibP15TMemberStreamerS4_
fun:_ZN13TStreamerInfo10ReadBufferIPPcEEiR7TBufferRKT_iiii
fun:_ZN20TStreamerInfoActions17GenericReadActionER7TBufferPvPKNS_14TConfigurationE
fun:_ZN11TBufferFile13ApplySequenceERKN20TStreamerInfoActions15TActionSequenceEPv
fun:_ZN11TBufferFile15ReadClassBufferEPK6TClassPvS2_
fun:_ZN15AliESDtrackCuts8StreamerER7TBuffer
}
{
root_jets_304
Memcheck:Leak
match-leak-kinds: possible
fun:_Znam
fun:_ZN13TStreamerInfo7CompileEv
fun:_ZN13TStreamerInfo8BuildOldEv
fun:_ZNK6TClass15GetStreamerInfoEi
fun:_ZN13TStreamerInfo8BuildOldEv
fun:_ZNK6TClass15GetStreamerInfoEi
fun:_ZN11TBufferFile10ReadClonesEP12TClonesArrayis
fun:_ZN12TClonesArray8StreamerER7TBuffer
fun:_ZN11TBufferFile13ReadObjectAnyEPK6TClass
fun:_ZrsI7TObjectER7TBufferS2_RPT_
fun:_ZN5TList8StreamerER7TBuffer
fun:_ZN11TBufferFile13ReadObjectAnyEPK6TClass
}
{
root_jets_305
Memcheck:Leak
match-leak-kinds: possible
fun:_Znam
fun:_ZN13TStreamerInfo7CompileEv
fun:_ZN13TStreamerInfo8BuildOldEv
fun:_ZN11TBufferFile15ReadClassBufferEPK6TClassPvijjS2_
fun:_ZN5TTree8StreamerER7TBuffer
fun:_ZN4TKey7ReadObjEv
fun:_ZN14TDirectoryFile3GetEPKc
fun:_ZN6TChain8LoadTreeEx
fun:_ZNK6TChain10GetEntriesEv
fun:_ZL19G__G__Tree_126_0_75P8G__valuePKcP8G__parami
fun:_ZN4Cint19G__ExceptionWrapperEPFiP8G__valuePKcP8G__paramiES1_PcS5_i
fun:G__execute_call
}
{
root_jets_306
Memcheck:Leak
match-leak-kinds: possible
fun:_Znam
fun:_ZN13TStreamerInfo7CompileEv
fun:_ZN13TStreamerInfo8BuildOldEv
fun:_ZN11TBufferFile15ReadClassBufferEPK6TClassPvS2_
fun:_ZN13AliCentrality8StreamerER7TBuffer
fun:_ZN11TBufferFile13ReadObjectAnyEPK6TClass
fun:_ZN11TBufferFile13ReadFastArrayEPPvPK6TClassibP15TMemberStreamerS4_
fun:_ZN13TStreamerInfo10ReadBufferIPPcEEiR7TBufferRKT_iiii
fun:_ZN20TStreamerInfoActions17GenericReadActionER7TBufferPvPKNS_14TConfigurationE
fun:_ZN11TBufferFile13ApplySequenceERKN20TStreamerInfoActions15TActionSequenceEPv
fun:_ZN11TBufferFile15ReadClassBufferEPK6TClassPvS2_
fun:_ZN12AliAODHeader8StreamerER7TBuffer
}
{
root_jets_307
Memcheck:Leak
match-leak-kinds: possible
fun:_Znam
fun:_ZN13TStreamerInfo7CompileEv
fun:_ZN13TStreamerInfo5BuildEv
fun:_ZNK6TClass15GetStreamerInfoEi
fun:_ZN13TStreamerInfo8BuildOldEv
fun:_ZN11TBufferFile15ReadClassBufferEPK6TClassPvS2_
fun:_ZN13AliCentrality8StreamerER7TBuffer
fun:_ZN11TBufferFile13ReadObjectAnyEPK6TClass
fun:_ZN11TBufferFile13ReadFastArrayEPPvPK6TClassibP15TMemberStreamerS4_
fun:_ZN13TStreamerInfo10ReadBufferIPPcEEiR7TBufferRKT_iiii
fun:_ZN20TStreamerInfoActions17GenericReadActionER7TBufferPvPKNS_14TConfigurationE
fun:_ZN11TBufferFile13ApplySequenceERKN20TStreamerInfoActions15TActionSequenceEPv
}
{
root_jets_308
Memcheck:Leak
match-leak-kinds: possible
fun:_Znam
fun:_ZN13TStreamerInfo7CompileEv
fun:_ZN13TStreamerInfo8BuildOldEv
fun:_ZN11TBufferFile15ReadClassBufferEPK6TClassPvS2_
fun:_ZN12AliAODHeader8StreamerER7TBuffer
fun:_ZN11TBufferFile13ReadObjectAnyEPK6TClass
fun:_ZrsI7TObjectER7TBufferS2_RPT_
fun:_ZN5TList8StreamerER7TBuffer
fun:_ZN11TBufferFile13ReadObjectAnyEPK6TClass
fun:_ZN11TBufferFile13ReadFastArrayEPPvPK6TClassibP15TMemberStreamerS4_
fun:_ZN13TStreamerInfo10ReadBufferIPPcEEiR7TBufferRKT_iiii
fun:_ZN20TStreamerInfoActions17GenericReadActionER7TBufferPvPKNS_14TConfigurationE
}
{
root_jets_309
Memcheck:Leak
match-leak-kinds: possible
fun:_Znam
fun:_ZN13TStreamerInfo7CompileEv
fun:_ZN13TStreamerInfo5BuildEv
fun:_ZNK6TClass15GetStreamerInfoEi
fun:_ZN13TStreamerInfo8BuildOldEv
fun:_ZN11TBufferFile15ReadClassBufferEPK6TClassPvS2_
fun:_ZN12AliAODHeader8StreamerER7TBuffer
fun:_ZN11TBufferFile13ReadObjectAnyEPK6TClass
fun:_ZrsI7TObjectER7TBufferS2_RPT_
fun:_ZN5TList8StreamerER7TBuffer
fun:_ZN11TBufferFile13ReadObjectAnyEPK6TClass
fun:_ZN11TBufferFile13ReadFastArrayEPPvPK6TClassibP15TMemberStreamerS4_
}
{
root_jets_310
Memcheck:Leak
match-leak-kinds: possible
fun:_Znwm
fun:_ZNSs4_Rep9_S_createEmmRKSaIcE
fun:_ZNSs9_M_mutateEmmm
fun:_ZNSs15_M_replace_safeEmmPKcm
fun:_ZN9TClassRef6AssignEP6TClass
fun:_ZN10TBaseClass15GetClassPointerEb
fun:_ZN6TClass12GetBaseClassEPKS_
fun:_ZNK6TClass12InheritsFromEPKS_
fun:_ZNK6TClass8PropertyEv
fun:_ZNK6TClass9IsForeignEv
fun:_ZN6TClass13PostLoadCheckEv
fun:_ZNK5TROOT9LoadClassEPKcb
}
{
root_jets_311
Memcheck:Leak
match-leak-kinds: possible
fun:_Znam
fun:_ZN13TStreamerInfo7CompileEv
fun:_ZN13TStreamerInfo8BuildOldEv
fun:_ZN11TBufferFile15ReadClassBufferEPK6TClassPvS2_
fun:_ZN15AliESDtrackCuts8StreamerER7TBuffer
fun:_ZN11TBufferFile13ReadObjectAnyEPK6TClass
fun:_ZrsI7TObjectER7TBufferS2_RPT_
fun:_ZN5TList8StreamerER7TBuffer
fun:_ZN11TBufferFile13ReadObjectAnyEPK6TClass
fun:_ZN11TBufferFile13ReadFastArrayEPPvPK6TClassibP15TMemberStreamerS4_
fun:_ZN13TStreamerInfo10ReadBufferIPPcEEiR7TBufferRKT_iiii
fun:_ZN20TStreamerInfoActions17GenericReadActionER7TBufferPvPKNS_14TConfigurationE
}
{
root_jets_312
Memcheck:Leak
match-leak-kinds: possible
fun:_Znam
fun:_ZN13TStreamerInfo7CompileEv
fun:_ZN13TStreamerInfo5BuildEv
fun:_ZNK6TClass15GetStreamerInfoEi
fun:_ZN13TStreamerInfo8BuildOldEv
fun:_ZN11TBufferFile15ReadClassBufferEPK6TClassPvS2_
fun:_ZN15AliESDtrackCuts8StreamerER7TBuffer
fun:_ZN11TBufferFile13ReadObjectAnyEPK6TClass
fun:_ZrsI7TObjectER7TBufferS2_RPT_
fun:_ZN5TList8StreamerER7TBuffer
fun:_ZN11TBufferFile13ReadObjectAnyEPK6TClass
fun:_ZN11TBufferFile13ReadFastArrayEPPvPK6TClassibP15TMemberStreamerS4_
}
{
root_jets_313
Memcheck:Leak
match-leak-kinds: possible
fun:_Znam
fun:_ZN13TStreamerInfo7CompileEv
fun:_ZN13TStreamerInfo8BuildOldEv
fun:_ZNK6TClass15GetStreamerInfoEi
fun:_ZN11TBufferFile10ReadClonesEP12TClonesArrayis
fun:_ZN12TClonesArray8StreamerER7TBuffer
fun:_ZN11TBufferFile13ReadObjectAnyEPK6TClass
fun:_ZrsI7TObjectER7TBufferS2_RPT_
fun:_ZN5TList8StreamerER7TBuffer
fun:_ZN11TBufferFile13ReadObjectAnyEPK6TClass
fun:_ZN11TBufferFile13ReadFastArrayEPPvPK6TClassibP15TMemberStreamerS4_
fun:_ZN13TStreamerInfo10ReadBufferIPPcEEiR7TBufferRKT_iiii
}
{
root_jets_1
Memcheck:Leak
match-leak-kinds: definite
fun:_Znwm
fun:_ZN8TStorage11ObjectAllocEm
fun:_ZN4TMap3AddEP7TObjectS1_
fun:_ZN5TFile12SetCacheReadEP14TFileCacheReadP7TObjectNS_12ECacheActionE
fun:_ZN14TFileCacheReadC1EP5TFileiP7TObject
fun:_ZN10TTreeCacheC1EP5TTreei
fun:_ZN5TTree12SetCacheSizeEx
fun:_ZN6TChain12SetCacheSizeEx
fun:_ZN18AliAnalysisManager15CreateReadCacheEv
fun:_ZN18AliAnalysisManager4InitEP5TTree
fun:_ZN19AliAnalysisSelector4InitEP5TTree
fun:_ZN11TTreePlayer7ProcessEP9TSelectorPKcxx
}
{
root_jets_2
Memcheck:Leak
match-leak-kinds: definite
fun:_Znwm
fun:_ZN8TStorage11ObjectAllocEm
fun:_ZN11AliAODEventC1Ev
fun:_ZN18AliAODInputHandler4InitEP5TTreePKc
fun:_ZN18AliAnalysisManager4InitEP5TTree
fun:_ZN19AliAnalysisSelector4InitEP5TTree
fun:_ZN11TTreePlayer7ProcessEP9TSelectorPKcxx
fun:_ZN18AliAnalysisManager13StartAnalysisEPKcP5TTreexx
fun:_ZL23G__G__ANALYSIS_208_0_14P8G__valuePKcP8G__parami
fun:_ZN4Cint19G__ExceptionWrapperEPFiP8G__valuePKcP8G__paramiES1_PcS5_i
fun:G__execute_call
fun:G__call_cppfunc
}
{
root_jets_3
Memcheck:Leak
match-leak-kinds: definite
fun:_Znwm
fun:_ZN8TStorage11ObjectAllocEm
fun:_ZNK7TString8TokenizeERKS_
fun:_ZL20G__G__Base2_15_0_161P8G__valuePKcP8G__parami
fun:_ZN4Cint19G__ExceptionWrapperEPFiP8G__valuePKcP8G__paramiES1_PcS5_i
fun:G__execute_call
fun:G__call_cppfunc
fun:G__interpret_func
fun:G__getfunction
fun:_Z15G__getstructmemiR18G__FastAllocStringPciS1_PiP12G__var_arrayi
fun:G__getvariable
fun:G__getitem
}
{
   manager_1 
   Memcheck:Leak
   match-leak-kinds: definite
   fun:_Znwm
   fun:_ZN8TStorage11ObjectAllocEm
   fun:_ZN18AliAnalysisManager9TerminateEv
   fun:_ZN19AliAnalysisSelector9TerminateEv
   fun:_ZN11TTreePlayer7ProcessEP9TSelectorPKcxx
   fun:_ZN18AliAnalysisManager13StartAnalysisEPKcP5TTreexx
   fun:_ZL23G__G__ANALYSIS_208_0_14P8G__valuePKcP8G__parami
   fun:_ZN4Cint19G__ExceptionWrapperEPFiP8G__valuePKcP8G__paramiES1_PcS5_i
   fun:G__execute_call
   fun:G__call_cppfunc
   fun:G__interpret_func
   fun:G__getfunction
}

{
   analysisalice_1 
   Memcheck:Leak
   match-leak-kinds: definite
   fun:_Znwm
   fun:_ZN8TStorage11ObjectAllocEm
   fun:_ZL27G__G__ANALYSISalice_754_0_1P8G__valuePKcP8G__parami
   fun:_ZN4Cint19G__ExceptionWrapperEPFiP8G__valuePKcP8G__paramiES1_PcS5_i
   fun:G__execute_call
   fun:G__call_cppfunc
   fun:G__interpret_func
   fun:G__getfunction
   fun:G__new_operator
   fun:G__getexpr
   fun:G__define_var
   fun:G__exec_statement
}

{
root_jets_1
Memcheck:Leak
match-leak-kinds: possible
fun:_Znam
fun:_ZN7TString4InitEii
fun:_ZN7TStringC1EPKc
fun:_ZN6TClassC1EPKcsRKSt9type_infoP16TVirtualIsAProxyPFvPvR16TMemberInspectorES1_S1_iib
fun:_ZN7TQClassC1EPKcsRKSt9type_infoP16TVirtualIsAProxyPFvPvR16TMemberInspectorES1_S1_ii
fun:_ZNK4ROOT20TQObjectInitBehavior11CreateClassEPKcsRKSt9type_infoP16TVirtualIsAProxyPFvPvR16TMemberInspectorES2_S2_ii
fun:_ZN4ROOT17TGenericClassInfo8GetClassEv
fun:_ZN15TMessageHandler5ClassEv
fun:_ZN8TQObject4EmitEPKc
fun:_ZN15TMessageHandler6NotifyEv
fun:_ZN15TMessageHandler13HandleMessageEiPK7TObject
fun:_ZN5TROOT7MessageEiPK7TObject
}
{
root_jets_2
Memcheck:Leak
match-leak-kinds: possible
fun:_Znwm
fun:_ZN5TCint12SetClassInfoEP6TClassb
fun:_ZN6TClass4InitEPKcsPKSt9type_infoP16TVirtualIsAProxyPFvPvR16TMemberInspectorES1_S1_iib
fun:_ZN6TClassC1EPKcsRKSt9type_infoP16TVirtualIsAProxyPFvPvR16TMemberInspectorES1_S1_iib
fun:_ZN7TQClassC1EPKcsRKSt9type_infoP16TVirtualIsAProxyPFvPvR16TMemberInspectorES1_S1_ii
fun:_ZNK4ROOT20TQObjectInitBehavior11CreateClassEPKcsRKSt9type_infoP16TVirtualIsAProxyPFvPvR16TMemberInspectorES2_S2_ii
fun:_ZN4ROOT17TGenericClassInfo8GetClassEv
fun:_ZN8TQObject10DictionaryEv
fun:_ZNK5TROOT9LoadClassEPKcb
fun:_ZN6TClass8GetClassEPKcbb
fun:_ZN10TBaseClass15GetClassPointerEb
fun:_ZN8TQObject23CollectClassSignalListsER5TListP6TClass
}
{
root_jets_3
Memcheck:Leak
match-leak-kinds: possible
fun:_Znwm
fun:_ZN5TCint12SetClassInfoEP6TClassb
fun:_ZN6TClass4InitEPKcsPKSt9type_infoP16TVirtualIsAProxyPFvPvR16TMemberInspectorES1_S1_iib
fun:_ZN6TClassC1EPKcsRKSt9type_infoP16TVirtualIsAProxyPFvPvR16TMemberInspectorES1_S1_iib
fun:_ZN7TQClassC1EPKcsRKSt9type_infoP16TVirtualIsAProxyPFvPvR16TMemberInspectorES1_S1_ii
fun:_ZNK4ROOT20TQObjectInitBehavior11CreateClassEPKcsRKSt9type_infoP16TVirtualIsAProxyPFvPvR16TMemberInspectorES2_S2_ii
fun:_ZN4ROOT17TGenericClassInfo8GetClassEv
fun:_ZN15TMessageHandler5ClassEv
fun:_ZN8TQObject4EmitEPKc
fun:_ZN15TMessageHandler6NotifyEv
fun:_ZN15TMessageHandler13HandleMessageEiPK7TObject
fun:_ZN5TROOT7MessageEiPK7TObject
}
{
root_jets_4
Memcheck:Leak
match-leak-kinds: possible
fun:_Znwm
fun:_ZN5TCint12SetClassInfoEP6TClassb
fun:_ZN6TClass4InitEPKcsPKSt9type_infoP16TVirtualIsAProxyPFvPvR16TMemberInspectorES1_S1_iib
fun:_ZN6TClassC1EPKcsRKSt9type_infoP16TVirtualIsAProxyPFvPvR16TMemberInspectorES1_S1_iib
fun:_ZN7TQClassC1EPKcsRKSt9type_infoP16TVirtualIsAProxyPFvPvR16TMemberInspectorES1_S1_ii
fun:_ZNK4ROOT20TQObjectInitBehavior11CreateClassEPKcsRKSt9type_infoP16TVirtualIsAProxyPFvPvR16TMemberInspectorES2_S2_ii
fun:_ZN4ROOT17TGenericClassInfo8GetClassEv
fun:_ZN12TApplication10DictionaryEv
fun:_ZNK5TROOT9LoadClassEPKcb
fun:_ZN6TClass8GetClassEPKcbb
fun:_ZN10TBaseClass15GetClassPointerEb
fun:_ZN8TQObject23CollectClassSignalListsER5TListP6TClass
}
{
root_jets_5
Memcheck:Leak
match-leak-kinds: definite
fun:_Znwm
fun:_ZL19G__G__Base2_15_0_33P8G__valuePKcP8G__parami
fun:_ZN4Cint19G__ExceptionWrapperEPFiP8G__valuePKcP8G__paramiES1_PcS5_i
fun:G__exec_asm
fun:_ZL12G__exec_loopPKcPcRKSt4listI18G__FastAllocStringSaIS3_EE.constprop.42
fun:G__exec_statement
fun:G__interpret_func
fun:G__getfunction
fun:G__getitem
fun:G__getexpr
fun:G__calc_internal
fun:G__process_cmd
}
{
root_jets_6
Memcheck:Leak
match-leak-kinds: possible
fun:_Znwm
fun:_ZNSs4_Rep9_S_createEmmRKSaIcE
fun:_ZNSs12_S_constructIPKcEEPcT_S3_RKSaIcESt20forward_iterator_tag
fun:_ZNSsC1EPKcRKSaIcE
fun:_ZN6TClass8AddClassEPS_
fun:_ZN6TClass4InitEPKcsPKSt9type_infoP16TVirtualIsAProxyPFvPvR16TMemberInspectorES1_S1_iib
fun:_ZN6TClassC1EPKcsRKSt9type_infoP16TVirtualIsAProxyPFvPvR16TMemberInspectorES1_S1_iib
fun:_ZN4ROOT11CreateClassEPKcsRKSt9type_infoP16TVirtualIsAProxyPFvPvR16TMemberInspectorES1_S1_ii
fun:_ZN4ROOT17TGenericClassInfo8GetClassEv
fun:_ZNK5TROOT9LoadClassEPKcb
fun:_ZN6TClass8GetClassEPKcbb
fun:_ZN5TROOT13IgnoreIncludeEPKcS1_
}
{
root_jets_7
Memcheck:Leak
match-leak-kinds: possible
fun:_Znwm
fun:_ZNSs4_Rep9_S_createEmmRKSaIcE
fun:_ZNSs12_S_constructIPKcEEPcT_S3_RKSaIcESt20forward_iterator_tag
fun:_ZNSsC1EPKcRKSaIcE
fun:_ZN6TClass8AddClassEPS_
fun:_ZN6TClass4InitEPKcsPKSt9type_infoP16TVirtualIsAProxyPFvPvR16TMemberInspectorES1_S1_iib
fun:_ZN6TClassC1EPKcsRKSt9type_infoP16TVirtualIsAProxyPFvPvR16TMemberInspectorES1_S1_iib
fun:_ZN4ROOT11CreateClassEPKcsRKSt9type_infoP16TVirtualIsAProxyPFvPvR16TMemberInspectorES1_S1_ii
fun:_ZN4ROOT17TGenericClassInfo8GetClassEv
fun:_ZN3TH110DictionaryEv
fun:_ZNK5TROOT9LoadClassEPKcb
fun:_ZN6TClass8GetClassEPKcbb
}
{
root_jets_8
Memcheck:Leak
match-leak-kinds: possible
fun:_Znwm
fun:_ZNSs4_Rep9_S_createEmmRKSaIcE
fun:_ZNSs12_S_constructIPKcEEPcT_S3_RKSaIcESt20forward_iterator_tag
fun:_ZNSsC1EPKcRKSaIcE
fun:_ZN6TClass8AddClassEPS_
fun:_ZN6TClass4InitEPKcsPKSt9type_infoP16TVirtualIsAProxyPFvPvR16TMemberInspectorES1_S1_iib
fun:_ZN6TClassC1EPKcsRKSt9type_infoP16TVirtualIsAProxyPFvPvR16TMemberInspectorES1_S1_iib
fun:_ZN4ROOT11CreateClassEPKcsRKSt9type_infoP16TVirtualIsAProxyPFvPvR16TMemberInspectorES1_S1_ii
fun:_ZN4ROOT17TGenericClassInfo8GetClassEv
fun:_ZN3TH210DictionaryEv
fun:_ZNK5TROOT9LoadClassEPKcb
fun:_ZN6TClass8GetClassEPKcbb
}
{
root_jets_9
Memcheck:Leak
match-leak-kinds: possible
fun:_Znwm
fun:_ZNSs4_Rep9_S_createEmmRKSaIcE
fun:_ZNSs12_S_constructIPKcEEPcT_S3_RKSaIcESt20forward_iterator_tag
fun:_ZNSsC1EPKcRKSaIcE
fun:_ZN6TClass8AddClassEPS_
fun:_ZN6TClass4InitEPKcsPKSt9type_infoP16TVirtualIsAProxyPFvPvR16TMemberInspectorES1_S1_iib
fun:_ZN6TClassC1EPKcsRKSt9type_infoP16TVirtualIsAProxyPFvPvR16TMemberInspectorES1_S1_iib
fun:_ZN4ROOT11CreateClassEPKcsRKSt9type_infoP16TVirtualIsAProxyPFvPvR16TMemberInspectorES1_S1_ii
fun:_ZN4ROOT17TGenericClassInfo8GetClassEv
fun:_ZN3TF110DictionaryEv
fun:_ZNK5TROOT9LoadClassEPKcb
fun:_ZN6TClass8GetClassEPKcbb
}
{
root_jets_10
Memcheck:Leak
match-leak-kinds: possible
fun:_Znwm
fun:_ZNSs4_Rep9_S_createEmmRKSaIcE
fun:_ZNSs12_S_constructIPKcEEPcT_S3_RKSaIcESt20forward_iterator_tag
fun:_ZNSsC1EPKcRKSaIcE
fun:_ZN9TClassRefC1EPKc
fun:_ZN11TTreePlayerC1Ev
fun:_ZN4ROOTL15new_TTreePlayerEPv
fun:_ZNK6TClass3NewENS_8ENewTypeE
fun:_ZN18TVirtualTreePlayer10TreePlayerEP5TTree
fun:_ZN5TTree9GetPlayerEv
fun:_ZN5TTree7ProcessEP9TSelectorPKcxx
fun:_ZN18AliAnalysisManager13StartAnalysisEPKcP5TTreexx
}
{
root_jets_11
Memcheck:Leak
match-leak-kinds: possible
fun:_Znwm
fun:_ZNSs4_Rep9_S_createEmmRKSaIcE
fun:_ZNSs12_S_constructIPKcEEPcT_S3_RKSaIcESt20forward_iterator_tag
fun:_ZNSsC1EPKcRKSaIcE
fun:_ZN6TClass8AddClassEPS_
fun:_ZN6TClass4InitEPKcsPKSt9type_infoP16TVirtualIsAProxyPFvPvR16TMemberInspectorES1_S1_iib
fun:_ZN6TClassC1EPKcsRKSt9type_infoP16TVirtualIsAProxyPFvPvR16TMemberInspectorES1_S1_iib
fun:_ZN4ROOT11CreateClassEPKcsRKSt9type_infoP16TVirtualIsAProxyPFvPvR16TMemberInspectorES1_S1_ii
fun:_ZN4ROOT17TGenericClassInfo8GetClassEv
fun:_ZN4TH1D10DictionaryEv
fun:_ZNK5TROOT9LoadClassEPKcb
fun:_ZN6TClass8GetClassEPKcbb
}
{
root_jets_12
Memcheck:Leak
match-leak-kinds: possible
fun:_Znwm
fun:_ZNSs4_Rep9_S_createEmmRKSaIcE
fun:_ZNSs12_S_constructIPKcEEPcT_S3_RKSaIcESt20forward_iterator_tag
fun:_ZNSsC1EPKcRKSaIcE
fun:_ZN6TClass8AddClassEPS_
fun:_ZN6TClass4InitEPKcsPKSt9type_infoP16TVirtualIsAProxyPFvPvR16TMemberInspectorES1_S1_iib
fun:_ZN6TClassC1EPKcsRKSt9type_infoP16TVirtualIsAProxyPFvPvR16TMemberInspectorES1_S1_iib
fun:_ZN4ROOT11CreateClassEPKcsRKSt9type_infoP16TVirtualIsAProxyPFvPvR16TMemberInspectorES1_S1_ii
fun:_ZN4ROOT17TGenericClassInfo8GetClassEv
fun:_ZN4TH2D10DictionaryEv
fun:_ZNK5TROOT9LoadClassEPKcb
fun:_ZN6TClass8GetClassEPKcbb
}
{
root_jets_13
Memcheck:Leak
match-leak-kinds: possible
fun:_Znwm
fun:_ZNSs4_Rep9_S_createEmmRKSaIcE
fun:_ZNSs12_S_constructIPKcEEPcT_S3_RKSaIcESt20forward_iterator_tag
fun:_ZNSsC1EPKcRKSaIcE
fun:_ZN6TClass8AddClassEPS_
fun:_ZN6TClass4InitEPKcsPKSt9type_infoP16TVirtualIsAProxyPFvPvR16TMemberInspectorES1_S1_iib
fun:_ZN6TClassC1EPKcsRKSt9type_infoP16TVirtualIsAProxyPFvPvR16TMemberInspectorES1_S1_iib
fun:_ZN4ROOT11CreateClassEPKcsRKSt9type_infoP16TVirtualIsAProxyPFvPvR16TMemberInspectorES1_S1_ii
fun:_ZN4ROOT17TGenericClassInfo8GetClassEv
fun:_ZN4TRef10DictionaryEv
fun:_ZNK5TROOT9LoadClassEPKcb
fun:_ZN6TClass8GetClassEPKcbb
}
{
root_jets_14
Memcheck:Leak
match-leak-kinds: possible
fun:_Znwm
fun:_ZNSs4_Rep9_S_createEmmRKSaIcE
fun:_ZNSs12_S_constructIPKcEEPcT_S3_RKSaIcESt20forward_iterator_tag
fun:_ZNSsC1EPKcRKSaIcE
fun:_ZN6TClass8AddClassEPS_
fun:_ZN6TClass4InitEPKcsPKSt9type_infoP16TVirtualIsAProxyPFvPvR16TMemberInspectorES1_S1_iib
fun:_ZN6TClassC1EPKcsRKSt9type_infoP16TVirtualIsAProxyPFvPvR16TMemberInspectorES1_S1_iib
fun:_ZN4ROOT11CreateClassEPKcsRKSt9type_infoP16TVirtualIsAProxyPFvPvR16TMemberInspectorES1_S1_ii
fun:_ZN4ROOT17TGenericClassInfo8GetClassEv
fun:_ZN4TH2F10DictionaryEv
fun:_ZNK5TROOT9LoadClassEPKcb
fun:_ZN6TClass8GetClassEPKcbb
}
{
root_jets_15
Memcheck:Leak
match-leak-kinds: possible
fun:_Znwm
fun:_ZNSs4_Rep9_S_createEmmRKSaIcE
fun:_ZNSs9_M_mutateEmmm
fun:_ZNSs15_M_replace_safeEmmPKcm
fun:_ZN9TClassRef6AssignEP6TClass
fun:_ZN4ROOT14TSchemaRuleSet8SetClassEP6TClass
fun:_ZN6TClass14GetSchemaRulesEb
fun:_ZN4ROOT17TGenericClassInfo13CreateRuleSetERSt6vectorINS_13TSchemaHelperESaIS2_EEb
fun:_ZN4ROOT17TGenericClassInfo8GetClassEv
fun:_ZN5TTree10DictionaryEv
fun:_ZNK5TROOT9LoadClassEPKcb
fun:_ZN6TClass8GetClassEPKcbb
}
{
root_jets_16
Memcheck:Leak
match-leak-kinds: possible
fun:_Znwm
fun:_ZNSs4_Rep9_S_createEmmRKSaIcE
fun:_ZNSs12_S_constructIPKcEEPcT_S3_RKSaIcESt20forward_iterator_tag
fun:_ZNSsC1EPKcRKSaIcE
fun:_ZN6TClass8AddClassEPS_
fun:_ZN6TClass4InitEPKcsPKSt9type_infoP16TVirtualIsAProxyPFvPvR16TMemberInspectorES1_S1_iib
fun:_ZN6TClassC1EPKcsRKSt9type_infoP16TVirtualIsAProxyPFvPvR16TMemberInspectorES1_S1_iib
fun:_ZN4ROOT11CreateClassEPKcsRKSt9type_infoP16TVirtualIsAProxyPFvPvR16TMemberInspectorES1_S1_ii
fun:_ZN4ROOT17TGenericClassInfo8GetClassEv
fun:_ZN4TH1F10DictionaryEv
fun:_ZNK5TROOT9LoadClassEPKcb
fun:_ZN6TClass8GetClassEPKcbb
}
{
root_jets_17
Memcheck:Leak
match-leak-kinds: possible
fun:_Znwm
fun:_ZNSs4_Rep9_S_createEmmRKSaIcE
fun:_ZNSs12_S_constructIPKcEEPcT_S3_RKSaIcESt20forward_iterator_tag
fun:_ZNSsC1EPKcRKSaIcE
fun:_ZN6TClass8AddClassEPS_
fun:_ZN6TClass4InitEPKcsPKSt9type_infoP16TVirtualIsAProxyPFvPvR16TMemberInspectorES1_S1_iib
fun:_ZN6TClassC1EPKcsRKSt9type_infoP16TVirtualIsAProxyPFvPvR16TMemberInspectorES1_S1_iib
fun:_ZN4ROOT11CreateClassEPKcsRKSt9type_infoP16TVirtualIsAProxyPFvPvR16TMemberInspectorES1_S1_ii
fun:_ZN4ROOT17TGenericClassInfo8GetClassEv
fun:_ZN4TH1I10DictionaryEv
fun:_ZNK5TROOT9LoadClassEPKcb
fun:_ZN6TClass8GetClassEPKcbb
}
{
root_jets_18
Memcheck:Leak
match-leak-kinds: possible
fun:_Znwm
fun:_ZNSs4_Rep9_S_createEmmRKSaIcE
fun:_ZNSs12_S_constructIPKcEEPcT_S3_RKSaIcESt20forward_iterator_tag
fun:_ZNSsC1EPKcRKSaIcE
fun:_ZN6TClass8AddClassEPS_
fun:_ZN6TClass4InitEPKcsPKSt9type_infoP16TVirtualIsAProxyPFvPvR16TMemberInspectorES1_S1_iib
fun:_ZN6TClassC1EPKcsRKSt9type_infoP16TVirtualIsAProxyPFvPvR16TMemberInspectorES1_S1_iib
fun:_ZN4ROOT11CreateClassEPKcsRKSt9type_infoP16TVirtualIsAProxyPFvPvR16TMemberInspectorES1_S1_ii
fun:_ZN4ROOT17TGenericClassInfo8GetClassEv
fun:_ZN4TH2I10DictionaryEv
fun:_ZNK5TROOT9LoadClassEPKcb
fun:_ZN6TClass8GetClassEPKcbb
}
{
root_jets_19
Memcheck:Leak
match-leak-kinds: possible
fun:_Znwm
fun:_ZNSs4_Rep9_S_createEmmRKSaIcE
fun:_ZNSs12_S_constructIPKcEEPcT_S3_RKSaIcESt20forward_iterator_tag
fun:_ZNSsC1EPKcRKSaIcE
fun:_ZN6TClass8AddClassEPS_
fun:_ZN6TClass4InitEPKcsPKSt9type_infoP16TVirtualIsAProxyPFvPvR16TMemberInspectorES1_S1_iib
fun:_ZN6TClassC1EPKcsRKSt9type_infoP16TVirtualIsAProxyPFvPvR16TMemberInspectorES1_S1_iib
fun:_ZN4ROOT11CreateClassEPKcsRKSt9type_infoP16TVirtualIsAProxyPFvPvR16TMemberInspectorES1_S1_ii
fun:_ZN4ROOT17TGenericClassInfo8GetClassEv
fun:_ZN4TKey10DictionaryEv
fun:_ZNK5TROOT9LoadClassEPKcb
fun:_ZN6TClass8GetClassEPKcbb
}
{
root_jets_20
Memcheck:Leak
match-leak-kinds: possible
fun:_Znwm
fun:_ZNSs4_Rep9_S_createEmmRKSaIcE
fun:_ZNSs12_S_constructIPKcEEPcT_S3_RKSaIcESt20forward_iterator_tag
fun:_ZNSsC1EPKcRKSaIcE
fun:_ZN6TClass8AddClassEPS_
fun:_ZN6TClass4InitEPKcsPKSt9type_infoP16TVirtualIsAProxyPFvPvR16TMemberInspectorES1_S1_iib
fun:_ZN6TClassC1EPKcsRKSt9type_infoP16TVirtualIsAProxyPFvPvR16TMemberInspectorES1_S1_iib
fun:_ZN4ROOT11CreateClassEPKcsRKSt9type_infoP16TVirtualIsAProxyPFvPvR16TMemberInspectorES1_S1_ii
fun:_ZN4ROOT17TGenericClassInfo8GetClassEv
fun:_ZN5TList10DictionaryEv
fun:_ZNK5TROOT9LoadClassEPKcb
fun:_ZN6TClass8GetClassEPKcbb
}
{
root_jets_21
Memcheck:Leak
match-leak-kinds: possible
fun:_Znwm
fun:_ZNSs4_Rep9_S_createEmmRKSaIcE
fun:_ZNSs9_M_mutateEmmm
fun:_ZNSs15_M_replace_safeEmmPKcm
fun:_ZN9TClassRef6AssignEP6TClass
fun:_ZN10TBaseClass15GetClassPointerEb
fun:_ZN6TClass12GetBaseClassEPKS_
fun:_ZN6TClass12GetBaseClassEPKS_
fun:_ZNK6TClass12InheritsFromEPKS_
fun:_ZNK6TClass8PropertyEv
fun:_ZNK6TClass9IsForeignEv
fun:_ZN6TClass13PostLoadCheckEv
}
{
root_jets_22
Memcheck:Leak
match-leak-kinds: possible
fun:_Znwm
fun:_ZNSs4_Rep9_S_createEmmRKSaIcE
fun:_ZNSs12_S_constructIPKcEEPcT_S3_RKSaIcESt20forward_iterator_tag
fun:_ZNSsC1EPKcRKSaIcE
fun:_ZN6TClass8AddClassEPS_
fun:_ZN6TClass4InitEPKcsPKSt9type_infoP16TVirtualIsAProxyPFvPvR16TMemberInspectorES1_S1_iib
fun:_ZN6TClassC1EPKcsRKSt9type_infoP16TVirtualIsAProxyPFvPvR16TMemberInspectorES1_S1_iib
fun:_ZN4ROOT11CreateClassEPKcsRKSt9type_infoP16TVirtualIsAProxyPFvPvR16TMemberInspectorES1_S1_ii
fun:_ZN4ROOT17TGenericClassInfo8GetClassEv
fun:_ZN5TAxis10DictionaryEv
fun:_ZNK5TROOT9LoadClassEPKcb
fun:_ZN6TClass8GetClassEPKcbb
}
{
root_jets_23
Memcheck:Leak
match-leak-kinds: possible
fun:_Znwm
fun:_ZNSs4_Rep9_S_createEmmRKSaIcE
fun:_ZNSs12_S_constructIPKcEEPcT_S3_RKSaIcESt20forward_iterator_tag
fun:_ZNSsC1EPKcRKSaIcE
fun:_ZN6TClass8AddClassEPS_
fun:_ZN6TClass4InitEPKcsPKSt9type_infoP16TVirtualIsAProxyPFvPvR16TMemberInspectorES1_S1_iib
fun:_ZN6TClassC1EPKcsRKSt9type_infoP16TVirtualIsAProxyPFvPvR16TMemberInspectorES1_S1_iib
fun:_ZN4ROOT11CreateClassEPKcsRKSt9type_infoP16TVirtualIsAProxyPFvPvR16TMemberInspectorES1_S1_ii
fun:_ZN4ROOT17TGenericClassInfo8GetClassEv
fun:_ZN5TBits10DictionaryEv
fun:_ZNK5TROOT9LoadClassEPKcb
fun:_ZN6TClass8GetClassEPKcbb
}
{
root_jets_24
Memcheck:Leak
match-leak-kinds: possible
fun:_Znwm
fun:_ZNSs4_Rep9_S_createEmmRKSaIcE
fun:_ZNSs12_S_constructIPKcEEPcT_S3_RKSaIcESt20forward_iterator_tag
fun:_ZNSsC1EPKcRKSaIcE
fun:_ZN6TClass8AddClassEPS_
fun:_ZN6TClass4InitEPKcsPKSt9type_infoP16TVirtualIsAProxyPFvPvR16TMemberInspectorES1_S1_iib
fun:_ZN6TClassC1EPKcsRKSt9type_infoP16TVirtualIsAProxyPFvPvR16TMemberInspectorES1_S1_iib
fun:_ZN4ROOT11CreateClassEPKcsRKSt9type_infoP16TVirtualIsAProxyPFvPvR16TMemberInspectorES1_S1_ii
fun:_ZN4ROOT17TGenericClassInfo8GetClassEv
fun:_ZN5TTree10DictionaryEv
fun:_ZNK5TROOT9LoadClassEPKcb
fun:_ZN6TClass8GetClassEPKcbb
}
{
root_jets_25
Memcheck:Leak
match-leak-kinds: possible
fun:_Znwm
fun:_ZNSs4_Rep9_S_createEmmRKSaIcE
fun:_ZNSs12_S_constructIPKcEEPcT_S3_RKSaIcESt20forward_iterator_tag
fun:_ZNSsC1EPKcRKSaIcE
fun:_ZN6TClass8AddClassEPS_
fun:_ZN6TClass4InitEPKcsPKSt9type_infoP16TVirtualIsAProxyPFvPvR16TMemberInspectorES1_S1_iib
fun:_ZN6TClassC1EPKcsRKSt9type_infoP16TVirtualIsAProxyPFvPvR16TMemberInspectorES1_S1_iib
fun:_ZN4ROOT11CreateClassEPKcsRKSt9type_infoP16TVirtualIsAProxyPFvPvR16TMemberInspectorES1_S1_ii
fun:_ZN4ROOT17TGenericClassInfo8GetClassEv
fun:_ZN5TLeaf10DictionaryEv
fun:_ZNK5TROOT9LoadClassEPKcb
fun:_ZN6TClass8GetClassEPKcbb
}
{
root_jets_26
Memcheck:Leak
match-leak-kinds: possible
fun:_Znwm
fun:_ZNSs4_Rep9_S_createEmmRKSaIcE
fun:_ZNSs9_M_mutateEmmm
fun:_ZNSs15_M_replace_safeEmmPKcm
fun:_ZN9TClassRef6AssignEP6TClass
fun:_ZN19TGenCollectionProxy5ValueC1ERKSsb
fun:_ZL14R__CreateValueRKSsb
fun:_ZN19TGenCollectionProxy12InitializeExEb
fun:_ZNK19TGenCollectionProxy13GetValueClassEv
fun:_ZN14TBuildRealData7InspectEP6TClassPKcS3_PKv
fun:_ZN9TRefTable11ShowMembersER16TMemberInspector
fun:_ZNK6TClass15CallShowMembersEPvR16TMemberInspectori
}
{
root_jets_27
Memcheck:Leak
match-leak-kinds: possible
fun:_Znwm
fun:_ZNSs4_Rep9_S_createEmmRKSaIcE
fun:_ZNSs9_M_mutateEmmm
fun:_ZNSs15_M_replace_safeEmmPKcm
fun:_ZN9TClassRef6AssignEP6TClass
fun:_ZN19TGenCollectionProxy5ValueC1ERKSsb
fun:_ZL14R__CreateValueRKSsb
fun:_ZN19TGenCollectionProxy12InitializeExEb
fun:_ZN22TGenCollectionStreamer17ReadBufferDefaultER7TBufferPvPK6TClass
fun:_ZN11TBufferFile13ReadFastArrayEPvPK6TClassiP15TMemberStreamerS3_
fun:_ZN20TStreamerInfoActions7ReadSTLIXadL_ZNS_26ReadSTLMemberWiseSameClassER7TBufferPvPKNS_14TConfigurationEsEEXadL_ZNS_26ReadSTLObjectWiseFastArrayES2_S3_S6_sjEEEEiS2_S3_S6_
fun:_ZN11TBufferFile13ApplySequenceERKN20TStreamerInfoActions15TActionSequenceEPv
}
{
root_jets_28
Memcheck:Leak
match-leak-kinds: possible
fun:_Znwm
fun:_ZNSs4_Rep9_S_createEmmRKSaIcE
fun:_ZNSs12_S_constructIPKcEEPcT_S3_RKSaIcESt20forward_iterator_tag
fun:_ZNSsC1EPKcRKSaIcE
fun:_ZN6TClass8AddClassEPS_
fun:_ZN6TClass4InitEPKcsPKSt9type_infoP16TVirtualIsAProxyPFvPvR16TMemberInspectorES1_S1_iib
fun:_ZN6TClassC1EPKcsRKSt9type_infoP16TVirtualIsAProxyPFvPvR16TMemberInspectorES1_S1_iib
fun:_ZN7TQClassC1EPKcsRKSt9type_infoP16TVirtualIsAProxyPFvPvR16TMemberInspectorES1_S1_ii
fun:_ZNK4ROOT20TQObjectInitBehavior11CreateClassEPKcsRKSt9type_infoP16TVirtualIsAProxyPFvPvR16TMemberInspectorES2_S2_ii
fun:_ZN4ROOT17TGenericClassInfo8GetClassEv
fun:_ZN5TRint5ClassEv
fun:_ZN8TQObject4EmitEPKcl
}
{
root_jets_29
Memcheck:Leak
match-leak-kinds: possible
fun:_Znam
fun:_ZN7TString7ReplaceEiiPKci
fun:_ZN6TNamed8SetTitleEPKc
fun:_ZN6TClass4InitEPKcsPKSt9type_infoP16TVirtualIsAProxyPFvPvR16TMemberInspectorES1_S1_iib
fun:_ZN6TClassC1EPKcsRKSt9type_infoP16TVirtualIsAProxyPFvPvR16TMemberInspectorES1_S1_iib
fun:_ZN7TQClassC1EPKcsRKSt9type_infoP16TVirtualIsAProxyPFvPvR16TMemberInspectorES1_S1_ii
fun:_ZNK4ROOT20TQObjectInitBehavior11CreateClassEPKcsRKSt9type_infoP16TVirtualIsAProxyPFvPvR16TMemberInspectorES2_S2_ii
fun:_ZN4ROOT17TGenericClassInfo8GetClassEv
fun:_ZN14TSignalHandler5ClassEv
fun:_ZN8TQObject4EmitEPKc
fun:_ZN5TRintC1EPKcPiPPcPvib
fun:main
}
{
root_jets_30
Memcheck:Leak
match-leak-kinds: possible
fun:_Znwm
fun:_ZN5TList7NewLinkEP7TObjectP8TObjLink
fun:_ZN5TList7AddLastEP7TObject
fun:_ZN5TCint23CreateListOfBaseClassesEP6TClass
fun:_ZN6TClass14GetListOfBasesEv
fun:_ZN8TQObject23CollectClassSignalListsER5TListP6TClass
fun:_ZN8TQObject4EmitEPKc
fun:_ZN5TRintC1EPKcPiPPcPvib
fun:main
}
{
root_jets_31
Memcheck:Leak
match-leak-kinds: possible
fun:_Znam
fun:_ZN7TString7ReplaceEiiPKci
fun:_ZN6TNamed8SetTitleEPKc
fun:_ZN6TClass4InitEPKcsPKSt9type_infoP16TVirtualIsAProxyPFvPvR16TMemberInspectorES1_S1_iib
fun:_ZN6TClassC1EPKcsRKSt9type_infoP16TVirtualIsAProxyPFvPvR16TMemberInspectorES1_S1_iib
fun:_ZN7TQClassC1EPKcsRKSt9type_infoP16TVirtualIsAProxyPFvPvR16TMemberInspectorES1_S1_ii
fun:_ZNK4ROOT20TQObjectInitBehavior11CreateClassEPKcsRKSt9type_infoP16TVirtualIsAProxyPFvPvR16TMemberInspectorES2_S2_ii
fun:_ZN4ROOT17TGenericClassInfo8GetClassEv
fun:_ZN14TSysEvtHandler10DictionaryEv
fun:_ZNK5TROOT9LoadClassEPKcb
fun:_ZN6TClass8GetClassEPKcbb
fun:_ZN10TBaseClass15GetClassPointerEb
}
{
root_jets_32
Memcheck:Leak
match-leak-kinds: possible
fun:_Znwm
fun:_ZN5TList7NewLinkEP7TObjectP8TObjLink
fun:_ZN5TList7AddLastEP7TObject
fun:_ZN5TCint23CreateListOfBaseClassesEP6TClass
fun:_ZN6TClass14GetListOfBasesEv
fun:_ZN8TQObject23CollectClassSignalListsER5TListP6TClass
fun:_ZN8TQObject4EmitEPKc
fun:_ZN5TRintC1EPKcPiPPcPvib
fun:main
}
{
root_jets_33
Memcheck:Leak
match-leak-kinds: possible
fun:_Znwm
fun:_ZNSs4_Rep9_S_createEmmRKSaIcE
fun:_ZNSs12_S_constructIPKcEEPcT_S3_RKSaIcESt20forward_iterator_tag
fun:_ZNSsC1EPKcRKSaIcE
fun:_ZN6TClass8AddClassEPS_
fun:_ZN6TClass4InitEPKcsPKSt9type_infoP16TVirtualIsAProxyPFvPvR16TMemberInspectorES1_S1_iib
fun:_ZN6TClassC1EPKcsRKSt9type_infoP16TVirtualIsAProxyPFvPvR16TMemberInspectorES1_S1_iib
fun:_ZN4ROOT11CreateClassEPKcsRKSt9type_infoP16TVirtualIsAProxyPFvPvR16TMemberInspectorES1_S1_ii
fun:_ZN4ROOT17TGenericClassInfo8GetClassEv
fun:_ZN6TNamed10DictionaryEv
fun:_ZNK5TROOT9LoadClassEPKcb
fun:_ZN6TClass8GetClassEPKcbb
}
{
root_jets_34
Memcheck:Leak
match-leak-kinds: possible
fun:_Znwm
fun:_ZNSs4_Rep9_S_createEmmRKSaIcE
fun:_ZNSs12_S_constructIPKcEEPcT_S3_RKSaIcESt20forward_iterator_tag
fun:_ZNSsC1EPKcRKSaIcE
fun:_ZN6TClass8AddClassEPS_
fun:_ZN6TClass4InitEPKcsPKSt9type_infoP16TVirtualIsAProxyPFvPvR16TMemberInspectorES1_S1_iib
fun:_ZN6TClassC1EPKcsRKSt9type_infoP16TVirtualIsAProxyPFvPvR16TMemberInspectorES1_S1_iib
fun:_ZN4ROOT11CreateClassEPKcsRKSt9type_infoP16TVirtualIsAProxyPFvPvR16TMemberInspectorES1_S1_ii
fun:_ZN4ROOT17TGenericClassInfo8GetClassEv
fun:_ZN6TClass5ClassEv
fun:_ZN11TBufferFile9MapObjectEPK7TObjectj
fun:_ZN11TBufferFile9ReadClassEPK6TClassPj
}
{
root_jets_35
Memcheck:Leak
match-leak-kinds: possible
fun:_Znwm
fun:_ZNSs4_Rep9_S_createEmmRKSaIcE
fun:_ZNSs9_M_mutateEmmm
fun:_ZNSs15_M_replace_safeEmmPKcm
fun:_ZN9TClassRef6AssignEP6TClass
fun:_ZN10TBaseClass15GetClassPointerEb
fun:_ZN6TClass12GetBaseClassEPKS_
fun:_ZNK6TClass12InheritsFromEPKS_
fun:_ZN11TBufferFile9ReadClassEPK6TClassPj
fun:_ZN11TBufferFile13ReadObjectAnyEPK6TClass
fun:_ZrsI7TObjectER7TBufferS2_RPT_
fun:_ZN5TList8StreamerER7TBuffer
}
{
root_jets_36
Memcheck:Leak
match-leak-kinds: possible
fun:_Znwm
fun:_ZNSs4_Rep9_S_createEmmRKSaIcE
fun:_ZNSs12_S_constructIPKcEEPcT_S3_RKSaIcESt20forward_iterator_tag
fun:_ZNSsC1EPKcRKSaIcE
fun:_ZN6TClass8AddClassEPS_
fun:_ZN6TClass4InitEPKcsPKSt9type_infoP16TVirtualIsAProxyPFvPvR16TMemberInspectorES1_S1_iib
fun:_ZN6TClassC1EPKcsRKSt9type_infoP16TVirtualIsAProxyPFvPvR16TMemberInspectorES1_S1_iib
fun:_ZN4ROOT11CreateClassEPKcsRKSt9type_infoP16TVirtualIsAProxyPFvPvR16TMemberInspectorES1_S1_ii
fun:_ZN4ROOT17TGenericClassInfo8GetClassEv
fun:_ZN6TArray10DictionaryEv
fun:_ZNK5TROOT9LoadClassEPKcb
fun:_ZN6TClass8GetClassEPKcbb
}
{
root_jets_37
Memcheck:Leak
match-leak-kinds: possible
fun:_Znwm
fun:_ZNSs4_Rep9_S_createEmmRKSaIcE
fun:_ZNSs9_M_mutateEmmm
fun:_ZNSs15_M_replace_safeEmmPKcm
fun:_ZN9TClassRef6AssignEP6TClass
fun:_ZN10TBaseClass15GetClassPointerEb
fun:_ZN6TClass12GetBaseClassEPKS_
fun:_ZNK6TClass12InheritsFromEPKS_
fun:_ZN14TBuildRealData7InspectEP6TClassPKcS3_PKv
fun:_ZN5TAxis11ShowMembersER16TMemberInspector
fun:_ZN3TH111ShowMembersER16TMemberInspector
fun:_ZN4TH1F11ShowMembersER16TMemberInspector
}
{
root_jets_38
Memcheck:Leak
match-leak-kinds: possible
fun:_Znam
fun:_ZN7TString7ReplaceEiiPKci
fun:_ZN13TStreamerInfo7CompileEv
fun:_ZN13TStreamerInfo8BuildOldEv
fun:_ZNK6TClass15GetStreamerInfoEi
fun:_ZN13TStreamerInfo8BuildOldEv
fun:_ZN11TBufferFile15ReadClassBufferEPK6TClassPvS2_
fun:_ZN11TBufferFile13ReadFastArrayEPPvPK6TClassibP15TMemberStreamerS4_
fun:_ZN13TStreamerInfo10ReadBufferIPPcEEiR7TBufferRKT_iiii
fun:_ZN20TStreamerInfoActions17GenericReadActionER7TBufferPvPKNS_14TConfigurationE
fun:_ZN11TBufferFile13ApplySequenceERKN20TStreamerInfoActions15TActionSequenceEPv
fun:_ZN11TBufferFile15ReadClassBufferEPK6TClassPvS2_
}
{
root_jets_39
Memcheck:Leak
match-leak-kinds: possible
fun:_Znwm
fun:_ZNSs4_Rep9_S_createEmmRKSaIcE
fun:_ZNSs9_M_mutateEmmm
fun:_ZNSs15_M_replace_safeEmmPKcm
fun:_ZN9TClassRef6AssignEP6TClass
fun:_ZN10TBaseClass15GetClassPointerEb
fun:_ZN6TClass12GetBaseClassEPKS_
fun:_ZNK6TClass12InheritsFromEPKS_
fun:_ZN14TBuildRealData7InspectEP6TClassPKcS3_PKv
fun:_ZN5TAxis11ShowMembersER16TMemberInspector
fun:_ZN3TH111ShowMembersER16TMemberInspector
fun:_ZN4TH2F11ShowMembersER16TMemberInspector
}
{
root_jets_40
Memcheck:Leak
match-leak-kinds: possible
fun:_Znam
fun:_ZN7TString7ReplaceEiiPKci
fun:_ZN13TStreamerInfo7CompileEv
fun:_ZN13TStreamerInfo8BuildOldEv
fun:_ZN11TBufferFile15ReadClassBufferEPK6TClassPvS2_
fun:_ZN12AliTOFHeader8StreamerER7TBuffer
fun:_ZN11TBufferFile13ReadObjectAnyEPK6TClass
fun:_ZrsI7TObjectER7TBufferS2_RPT_
fun:_ZN5TList8StreamerER7TBuffer
fun:_ZN11TBufferFile13ReadObjectAnyEPK6TClass
fun:_ZN11TBufferFile13ReadFastArrayEPPvPK6TClassibP15TMemberStreamerS4_
fun:_ZN13TStreamerInfo10ReadBufferIPPcEEiR7TBufferRKT_iiii
}
{
root_jets_41
Memcheck:Leak
match-leak-kinds: possible
fun:_Znam
fun:_ZN7TString7ReplaceEiiPKci
fun:_ZN6TNamed8SetTitleEPKc
fun:_ZN6TClass4InitEPKcsPKSt9type_infoP16TVirtualIsAProxyPFvPvR16TMemberInspectorES1_S1_iib
fun:_ZN6TClassC1EPKcsRKSt9type_infoP16TVirtualIsAProxyPFvPvR16TMemberInspectorES1_S1_iib
fun:_ZN7TQClassC1EPKcsRKSt9type_infoP16TVirtualIsAProxyPFvPvR16TMemberInspectorES1_S1_ii
fun:_ZNK4ROOT20TQObjectInitBehavior11CreateClassEPKcsRKSt9type_infoP16TVirtualIsAProxyPFvPvR16TMemberInspectorES2_S2_ii
fun:_ZN4ROOT17TGenericClassInfo8GetClassEv
fun:_ZN15TMessageHandler5ClassEv
fun:_ZN8TQObject4EmitEPKc
fun:_ZN15TMessageHandler6NotifyEv
fun:_ZN15TMessageHandler13HandleMessageEiPK7TObject
}
{
root_jets_42
Memcheck:Leak
match-leak-kinds: possible
fun:_Znwm
fun:_ZN5TList7NewLinkEP7TObjectP8TObjLink
fun:_ZN5TList7AddLastEP7TObject
fun:_ZN5TCint23CreateListOfBaseClassesEP6TClass
fun:_ZN6TClass14GetListOfBasesEv
fun:_ZN8TQObject23CollectClassSignalListsER5TListP6TClass
fun:_ZN8TQObject4EmitEPKc
fun:_ZN15TMessageHandler6NotifyEv
fun:_ZN15TMessageHandler13HandleMessageEiPK7TObject
fun:_ZN5TROOT7MessageEiPK7TObject
fun:_ZNK7TObject5ErrorEPKcS1_z
fun:_ZN11TBufferFile13ReadObjectAnyEPK6TClass
}
{
root_jets_43
Memcheck:Leak
match-leak-kinds: possible
fun:_Znwm
fun:_ZN5TList7NewLinkEP7TObjectP8TObjLink
fun:_ZN5TList7AddLastEP7TObject
fun:_ZN5TCint23CreateListOfBaseClassesEP6TClass
fun:_ZN6TClass14GetListOfBasesEv
fun:_ZN8TQObject23CollectClassSignalListsER5TListP6TClass
fun:_ZN8TQObject4EmitEPKc
fun:_ZN15TMessageHandler6NotifyEv
fun:_ZN15TMessageHandler13HandleMessageEiPK7TObject
fun:_ZN5TROOT7MessageEiPK7TObject
fun:_ZNK7TObject5ErrorEPKcS1_z
fun:_ZN11TBufferFile13ReadObjectAnyEPK6TClass
}
{
root_jets_44
Memcheck:Leak
match-leak-kinds: possible
fun:_Znwm
fun:_ZNSs4_Rep9_S_createEmmRKSaIcE
fun:_ZNSs9_M_mutateEmmm
fun:_ZNSs15_M_replace_safeEmmPKcm
fun:_ZN9TClassRef6AssignEP6TClass
fun:_ZN10TBaseClass15GetClassPointerEb
fun:_ZN6TClass12GetBaseClassEPKS_
fun:_ZNK6TClass12InheritsFromEPKS_
fun:_ZN14TBuildRealData7InspectEP6TClassPKcS3_PKv
fun:_ZN5TAxis11ShowMembersER16TMemberInspector
fun:_ZN3TH111ShowMembersER16TMemberInspector
fun:_ZN4TH2D11ShowMembersER16TMemberInspector
}
{
root_jets_45
Memcheck:Leak
match-leak-kinds: possible
fun:_Znwm
fun:_ZNSs4_Rep9_S_createEmmRKSaIcE
fun:_ZNSs12_S_constructIPKcEEPcT_S3_RKSaIcESt20forward_iterator_tag
fun:_ZNSsC1EPKcRKSaIcE
fun:_ZN6TClass8AddClassEPS_
fun:_ZN6TClass4InitEPKcsPKSt9type_infoP16TVirtualIsAProxyPFvPvR16TMemberInspectorES1_S1_iib
fun:_ZN6TClassC1EPKcsRKSt9type_infoP16TVirtualIsAProxyPFvPvR16TMemberInspectorES1_S1_iib
fun:_ZN4ROOT11CreateClassEPKcsRKSt9type_infoP16TVirtualIsAProxyPFvPvR16TMemberInspectorES1_S1_ii
fun:_ZN4ROOT17TGenericClassInfo8GetClassEv
fun:_ZN6TChain5ClassEv
fun:_ZN18AliAnalysisManager20SetInputEventHandlerEP16AliVEventHandler
fun:_ZL23G__G__ANALYSIS_208_0_80P8G__valuePKcP8G__parami
}
{
root_jets_46
Memcheck:Leak
match-leak-kinds: possible
fun:_Znwm
fun:_ZNSs4_Rep9_S_createEmmRKSaIcE
fun:_ZNSs9_M_mutateEmmm
fun:_ZNSs15_M_replace_safeEmmPKcm
fun:_ZN9TClassRef6AssignEP6TClass
fun:_ZN10TBaseClass15GetClassPointerEb
fun:_ZN6TClass12GetBaseClassEPKS_
fun:_ZNK6TClass12InheritsFromEPKS_
fun:_ZN14TBuildRealData7InspectEP6TClassPKcS3_PKv
fun:_ZN5TAxis11ShowMembersER16TMemberInspector
fun:_ZN3TH111ShowMembersER16TMemberInspector
fun:_ZN4TH1D11ShowMembersER16TMemberInspector
}
{
root_jets_47
Memcheck:Leak
match-leak-kinds: possible
fun:_Znwm
fun:_ZN5TList7NewLinkEP7TObjectP8TObjLink
fun:_ZN5TList7AddLastEP7TObject
fun:_ZN5TCint23CreateListOfBaseClassesEP6TClass
fun:_ZN6TClass14GetListOfBasesEv
fun:_ZN8TQObject23CollectClassSignalListsER5TListP6TClass
fun:_ZN8TQObject4EmitEPKcl
fun:_ZN12TApplication9TerminateEi
fun:_ZN5TRint3RunEb
fun:main
}
{
root_jets_48
Memcheck:Leak
match-leak-kinds: possible
fun:_Znam
fun:_ZN7TString7ReplaceEiiPKci
fun:_ZN6TNamed8SetTitleEPKc
fun:_ZN6TClass4InitEPKcsPKSt9type_infoP16TVirtualIsAProxyPFvPvR16TMemberInspectorES1_S1_iib
fun:_ZN6TClassC1EPKcsRKSt9type_infoP16TVirtualIsAProxyPFvPvR16TMemberInspectorES1_S1_iib
fun:_ZN7TQClassC1EPKcsRKSt9type_infoP16TVirtualIsAProxyPFvPvR16TMemberInspectorES1_S1_ii
fun:_ZNK4ROOT20TQObjectInitBehavior11CreateClassEPKcsRKSt9type_infoP16TVirtualIsAProxyPFvPvR16TMemberInspectorES2_S2_ii
fun:_ZN4ROOT17TGenericClassInfo8GetClassEv
fun:_ZN12TApplication10DictionaryEv
fun:_ZNK5TROOT9LoadClassEPKcb
fun:_ZN6TClass8GetClassEPKcbb
fun:_ZN10TBaseClass15GetClassPointerEb
}
{
root_jets_49
Memcheck:Leak
match-leak-kinds: definite
fun:_Znwm
fun:_ZN8TStorage11ObjectAllocEm
fun:_ZN4TMap3AddEP7TObjectS1_
fun:_ZN5TFile12SetCacheReadEP14TFileCacheReadP7TObjectNS_12ECacheActionE
fun:_ZN14TFileCacheReadC1EP5TFileiP7TObject
fun:_ZN10TTreeCacheC1EP5TTreei
fun:_ZN5TTree12SetCacheSizeEx
fun:_ZN6TChain12SetCacheSizeEx
fun:_ZN18AliAnalysisManager15CreateReadCacheEv
fun:_ZN18AliAnalysisManager4InitEP5TTree
fun:_ZN19AliAnalysisSelector4InitEP5TTree
fun:_ZN11TTreePlayer7ProcessEP9TSelectorPKcxx
}
{
root_jets_50
Memcheck:Leak
match-leak-kinds: possible
fun:_Znwm
fun:_ZNSs4_Rep9_S_createEmmRKSaIcE
fun:_ZNSs12_S_constructIPKcEEPcT_S3_RKSaIcESt20forward_iterator_tag
fun:_ZNSsC1EPKcRKSaIcE
fun:_ZN6TClass8AddClassEPS_
fun:_ZN6TClass4InitEPKcsPKSt9type_infoP16TVirtualIsAProxyPFvPvR16TMemberInspectorES1_S1_iib
fun:_ZN6TClassC1EPKcsRKSt9type_infoP16TVirtualIsAProxyPFvPvR16TMemberInspectorES1_S1_iib
fun:_ZN4ROOT11CreateClassEPKcsRKSt9type_infoP16TVirtualIsAProxyPFvPvR16TMemberInspectorES1_S1_ii
fun:_ZN4ROOT17TGenericClassInfo8GetClassEv
fun:_ZN7TObject5ClassEv
fun:_ZNK6TClass8PropertyEv
fun:_ZNK6TClass9IsForeignEv
}
{
root_jets_51
Memcheck:Leak
match-leak-kinds: possible
fun:_Znwm
fun:_ZNSs4_Rep9_S_createEmmRKSaIcE
fun:_ZNSs9_M_mutateEmmm
fun:_ZNSs15_M_replace_safeEmmPKcm
fun:_ZN9TClassRef6AssignEP6TClass
fun:_ZN10TBaseClass15GetClassPointerEb
fun:_ZN8TQObject23CollectClassSignalListsER5TListP6TClass
fun:_ZN8TQObject23CollectClassSignalListsER5TListP6TClass
fun:_ZN8TQObject4EmitEPKc
fun:_ZN5TRintC1EPKcPiPPcPvib
fun:main
}
{
root_jets_52
Memcheck:Leak
match-leak-kinds: possible
fun:_Znwm
fun:_ZNSs4_Rep9_S_createEmmRKSaIcE
fun:_ZNSs12_S_constructIPKcEEPcT_S3_RKSaIcESt20forward_iterator_tag
fun:_ZNSsC1EPKcRKSaIcE
fun:_ZN6TClass8AddClassEPS_
fun:_ZN6TClass4InitEPKcsPKSt9type_infoP16TVirtualIsAProxyPFvPvR16TMemberInspectorES1_S1_iib
fun:_ZN6TClassC1EPKcsRKSt9type_infoP16TVirtualIsAProxyPFvPvR16TMemberInspectorES1_S1_iib
fun:_ZN4ROOT11CreateClassEPKcsRKSt9type_infoP16TVirtualIsAProxyPFvPvR16TMemberInspectorES1_S1_ii
fun:_ZN4ROOT17TGenericClassInfo8GetClassEv
fun:_ZN7TString10DictionaryEv
fun:_ZNK5TROOT9LoadClassEPKcb
fun:_ZN6TClass8GetClassEPKcbb
}
{
root_jets_53
Memcheck:Leak
match-leak-kinds: possible
fun:_Znwm
fun:_ZNSs4_Rep9_S_createEmmRKSaIcE
fun:_ZNSs12_S_constructIPKcEEPcT_S3_RKSaIcESt20forward_iterator_tag
fun:_ZNSsC1EPKcRKSaIcE
fun:_ZN6TClass8AddClassEPS_
fun:_ZN6TClass4InitEPKcsPKSt9type_infoP16TVirtualIsAProxyPFvPvR16TMemberInspectorES1_S1_iib
fun:_ZN6TClassC1EPKcsRKSt9type_infoP16TVirtualIsAProxyPFvPvR16TMemberInspectorES1_S1_iib
fun:_ZN4ROOT11CreateClassEPKcsRKSt9type_infoP16TVirtualIsAProxyPFvPvR16TMemberInspectorES1_S1_ii
fun:_ZN4ROOT17TGenericClassInfo8GetClassEv
fun:_ZN7TArrayD10DictionaryEv
fun:_ZNK5TROOT9LoadClassEPKcb
fun:_ZN6TClass8GetClassEPKcbb
}
{
root_jets_54
Memcheck:Leak
match-leak-kinds: possible
fun:_Znwm
fun:_ZNSs4_Rep9_S_createEmmRKSaIcE
fun:_ZNSs12_S_constructIPKcEEPcT_S3_RKSaIcESt20forward_iterator_tag
fun:_ZNSsC1EPKcRKSaIcE
fun:_ZN6TClass8AddClassEPS_
fun:_ZN6TClass4InitEPKcsPKSt9type_infoP16TVirtualIsAProxyPFvPvR16TMemberInspectorES1_S1_iib
fun:_ZN6TClassC1EPKcsRKSt9type_infoP16TVirtualIsAProxyPFvPvR16TMemberInspectorES1_S1_iib
fun:_ZN4ROOT11CreateClassEPKcsRKSt9type_infoP16TVirtualIsAProxyPFvPvR16TMemberInspectorES1_S1_ii
fun:_ZN4ROOT17TGenericClassInfo8GetClassEv
fun:_ZN7TArrayF10DictionaryEv
fun:_ZNK5TROOT9LoadClassEPKcb
fun:_ZN6TClass8GetClassEPKcbb
}
{
root_jets_55
Memcheck:Leak
match-leak-kinds: possible
fun:_Znwm
fun:_ZNSs4_Rep9_S_createEmmRKSaIcE
fun:_ZNSs12_S_constructIPKcEEPcT_S3_RKSaIcESt20forward_iterator_tag
fun:_ZNSsC1EPKcRKSaIcE
fun:_ZN6TClass8AddClassEPS_
fun:_ZN6TClass4InitEPKcsPKSt9type_infoP16TVirtualIsAProxyPFvPvR16TMemberInspectorES1_S1_iib
fun:_ZN6TClassC1EPKcsRKSt9type_infoP16TVirtualIsAProxyPFvPvR16TMemberInspectorES1_S1_iib
fun:_ZN4ROOT11CreateClassEPKcsRKSt9type_infoP16TVirtualIsAProxyPFvPvR16TMemberInspectorES1_S1_ii
fun:_ZN4ROOT17TGenericClassInfo8GetClassEv
fun:_ZN7TArrayI10DictionaryEv
fun:_ZNK5TROOT9LoadClassEPKcb
fun:_ZN6TClass8GetClassEPKcbb
}
{
root_jets_56
Memcheck:Leak
match-leak-kinds: possible
fun:_Znwm
fun:_ZNSs4_Rep9_S_createEmmRKSaIcE
fun:_ZNSs12_S_constructIPKcEEPcT_S3_RKSaIcESt20forward_iterator_tag
fun:_ZNSsC1EPKcRKSaIcE
fun:_ZN6TClass8AddClassEPS_
fun:_ZN6TClass4InitEPKcsPKSt9type_infoP16TVirtualIsAProxyPFvPvR16TMemberInspectorES1_S1_iib
fun:_ZN6TClassC1EPKcsRKSt9type_infoP16TVirtualIsAProxyPFvPvR16TMemberInspectorES1_S1_iib
fun:_ZN4ROOT11CreateClassEPKcsRKSt9type_infoP16TVirtualIsAProxyPFvPvR16TMemberInspectorES1_S1_ii
fun:_ZN4ROOT17TGenericClassInfo8GetClassEv
fun:_ZN7AliVZDC10DictionaryEv
fun:_ZNK5TROOT9LoadClassEPKcb
fun:_ZN6TClass8GetClassEPKcbb
}
{
root_jets_57
Memcheck:Leak
match-leak-kinds: possible
fun:_Znwm
fun:_ZNSs4_Rep9_S_createEmmRKSaIcE
fun:_ZNSs12_S_constructIPKcEEPcT_S3_RKSaIcESt20forward_iterator_tag
fun:_ZNSsC1EPKcRKSaIcE
fun:_ZN6TClass8AddClassEPS_
fun:_ZN6TClass4InitEPKcsPKSt9type_infoP16TVirtualIsAProxyPFvPvR16TMemberInspectorES1_S1_iib
fun:_ZN6TClassC1EPKcsRKSt9type_infoP16TVirtualIsAProxyPFvPvR16TMemberInspectorES1_S1_iib
fun:_ZN4ROOT11CreateClassEPKcsRKSt9type_infoP16TVirtualIsAProxyPFvPvR16TMemberInspectorES1_S1_ii
fun:_ZN4ROOT17TGenericClassInfo8GetClassEv
fun:_ZN7TBranch10DictionaryEv
fun:_ZNK5TROOT9LoadClassEPKcb
fun:_ZN6TClass8GetClassEPKcbb
}
{
root_jets_58
Memcheck:Leak
match-leak-kinds: possible
fun:_Znwm
fun:_ZNSs4_Rep9_S_createEmmRKSaIcE
fun:_ZNSs12_S_constructIPKcEEPcT_S3_RKSaIcESt20forward_iterator_tag
fun:_ZNSsC1EPKcRKSaIcE
fun:_ZN6TClass8AddClassEPS_
fun:_ZN6TClass4InitEPKcsPKSt9type_infoP16TVirtualIsAProxyPFvPvR16TMemberInspectorES1_S1_iib
fun:_ZN6TClassC1EPKcsRKSt9type_infoP16TVirtualIsAProxyPFvPvR16TMemberInspectorES1_S1_iib
fun:_ZN4ROOT11CreateClassEPKcsRKSt9type_infoP16TVirtualIsAProxyPFvPvR16TMemberInspectorES1_S1_ii
fun:_ZN4ROOT17TGenericClassInfo8GetClassEv
fun:_ZN7TFolder10DictionaryEv
fun:_ZNK5TROOT9LoadClassEPKcb
fun:_ZN6TClass8GetClassEPKcbb
}
{
root_jets_59
Memcheck:Leak
match-leak-kinds: possible
fun:_Znwm
fun:_ZNSs4_Rep9_S_createEmmRKSaIcE
fun:_ZNSs9_M_mutateEmmm
fun:_ZNSs15_M_replace_safeEmmPKcm
fun:_ZN9TClassRef6AssignEP6TClass
fun:_ZN10TBaseClass15GetClassPointerEb
fun:_ZN6TClass12GetBaseClassEPKS_
fun:_ZN6TClass12GetBaseClassEPKS_
fun:_ZNK6TClass12InheritsFromEPKS_
fun:_ZN14TBuildRealData7InspectEP6TClassPKcS3_PKv
fun:_ZN4ROOT21TClassRef_ShowMembersEPvR16TMemberInspector
fun:_ZNK6TClass15CallShowMembersEPvR16TMemberInspectori
}
{
root_jets_60
Memcheck:Leak
match-leak-kinds: possible
fun:_Znwm
fun:_ZNSs4_Rep9_S_createEmmRKSaIcE
fun:_ZNSs9_M_mutateEmmm
fun:_ZNSs15_M_replace_safeEmmPKcm
fun:_ZN9TClassRef6AssignEP6TClass
fun:_ZN10TBaseClass15GetClassPointerEb
fun:_ZN6TClass12GetBaseClassEPKS_
fun:_ZNK6TClass12InheritsFromEPKS_
fun:_ZN14TBuildRealData7InspectEP6TClassPKcS3_PKv
fun:_ZN7TArrayD11ShowMembersER16TMemberInspector
fun:_ZN5TAxis11ShowMembersER16TMemberInspector
fun:_ZNK6TClass15CallShowMembersEPvR16TMemberInspectori
}
{
root_jets_61
Memcheck:Leak
match-leak-kinds: possible
fun:_Znwm
fun:_ZNSs4_Rep9_S_createEmmRKSaIcE
fun:_ZNSs12_S_constructIPKcEEPcT_S3_RKSaIcESt20forward_iterator_tag
fun:_ZNSsC1EPKcRKSaIcE
fun:_ZN6TClass8AddClassEPS_
fun:_ZN6TClass4InitEPKcsPKSt9type_infoP16TVirtualIsAProxyPFvPvR16TMemberInspectorES1_S1_iib
fun:_ZN6TClassC1EPKcsRKSt9type_infoP16TVirtualIsAProxyPFvPvR16TMemberInspectorES1_S1_iib
fun:_ZN4ROOT11CreateClassEPKcsRKSt9type_infoP16TVirtualIsAProxyPFvPvR16TMemberInspectorES1_S1_ii
fun:_ZN4ROOT17TGenericClassInfo8GetClassEv
fun:_ZN7TBasket10DictionaryEv
fun:_ZNK5TROOT9LoadClassEPKcb
fun:_ZN6TClass8GetClassEPKcbb
}
{
root_jets_62
Memcheck:Leak
match-leak-kinds: possible
fun:_Znwm
fun:_ZNSs4_Rep9_S_createEmmRKSaIcE
fun:_ZNSs9_M_mutateEmmm
fun:_ZNSs15_M_replace_safeEmmPKcm
fun:_ZN9TClassRef6AssignEP6TClass
fun:_ZN10TBaseClass15GetClassPointerEb
fun:_ZN8TQObject23CollectClassSignalListsER5TListP6TClass
fun:_ZN8TQObject23CollectClassSignalListsER5TListP6TClass
fun:_ZN8TQObject4EmitEPKcl
fun:_ZN12TApplication9TerminateEi
fun:_ZN5TRint3RunEb
fun:main
}
{
root_jets_63
Memcheck:Leak
match-leak-kinds: possible
fun:_Znwm
fun:_ZNSs4_Rep9_S_createEmmRKSaIcE
fun:_ZNSs12_S_constructIPKcEEPcT_S3_RKSaIcESt20forward_iterator_tag
fun:_ZNSsC1EPKcRKSaIcE
fun:_ZN6TClass8AddClassEPS_
fun:_ZN6TClass4InitEPKcsPKSt9type_infoP16TVirtualIsAProxyPFvPvR16TMemberInspectorES1_S1_iib
fun:_ZN6TClassC1EPKcsRKSt9type_infoP16TVirtualIsAProxyPFvPvR16TMemberInspectorES1_S1_iib
fun:_ZN7TQClassC1EPKcsRKSt9type_infoP16TVirtualIsAProxyPFvPvR16TMemberInspectorES1_S1_ii
fun:_ZNK4ROOT20TQObjectInitBehavior11CreateClassEPKcsRKSt9type_infoP16TVirtualIsAProxyPFvPvR16TMemberInspectorES2_S2_ii
fun:_ZN4ROOT17TGenericClassInfo8GetClassEv
fun:_ZN8TQObject10DictionaryEv
fun:_ZNK5TROOT9LoadClassEPKcb
}
{
root_jets_64
Memcheck:Leak
match-leak-kinds: possible
fun:_Znwm
fun:_ZNSs4_Rep9_S_createEmmRKSaIcE
fun:_ZNSs12_S_constructIPKcEEPcT_S3_RKSaIcESt20forward_iterator_tag
fun:_ZNSsC1EPKcRKSaIcE
fun:_ZN6TClass8AddClassEPS_
fun:_ZN6TClass4InitEPKcsPKSt9type_infoP16TVirtualIsAProxyPFvPvR16TMemberInspectorES1_S1_iib
fun:_ZN6TClassC1EPKcsRKSt9type_infoP16TVirtualIsAProxyPFvPvR16TMemberInspectorES1_S1_iib
fun:_ZN4ROOT11CreateClassEPKcsRKSt9type_infoP16TVirtualIsAProxyPFvPvR16TMemberInspectorES1_S1_ii
fun:_ZN4ROOT17TGenericClassInfo8GetClassEv
fun:_ZN8TAttLine10DictionaryEv
fun:_ZNK5TROOT9LoadClassEPKcb
fun:_ZN6TClass8GetClassEPKcbb
}
{
root_jets_65
Memcheck:Leak
match-leak-kinds: possible
fun:_Znwm
fun:_ZNSs4_Rep9_S_createEmmRKSaIcE
fun:_ZNSs12_S_constructIPKcEEPcT_S3_RKSaIcESt20forward_iterator_tag
fun:_ZNSsC1EPKcRKSaIcE
fun:_ZN6TClass8AddClassEPS_
fun:_ZN6TClass4InitEPKcsPKSt9type_infoP16TVirtualIsAProxyPFvPvR16TMemberInspectorES1_S1_iib
fun:_ZN6TClassC1EPKcsRKSt9type_infoP16TVirtualIsAProxyPFvPvR16TMemberInspectorES1_S1_iib
fun:_ZN4ROOT11CreateClassEPKcsRKSt9type_infoP16TVirtualIsAProxyPFvPvR16TMemberInspectorES1_S1_ii
fun:_ZN4ROOT17TGenericClassInfo8GetClassEv
fun:_ZN8TAttFill10DictionaryEv
fun:_ZNK5TROOT9LoadClassEPKcb
fun:_ZN6TClass8GetClassEPKcbb
}
{
root_jets_66
Memcheck:Leak
match-leak-kinds: possible
fun:_Znwm
fun:_ZNSs4_Rep9_S_createEmmRKSaIcE
fun:_ZNSs12_S_constructIPKcEEPcT_S3_RKSaIcESt20forward_iterator_tag
fun:_ZNSsC1EPKcRKSaIcE
fun:_ZN6TClass8AddClassEPS_
fun:_ZN6TClass4InitEPKcsPKSt9type_infoP16TVirtualIsAProxyPFvPvR16TMemberInspectorES1_S1_iib
fun:_ZN6TClassC1EPKcsRKSt9type_infoP16TVirtualIsAProxyPFvPvR16TMemberInspectorES1_S1_iib
fun:_ZN4ROOT11CreateClassEPKcsRKSt9type_infoP16TVirtualIsAProxyPFvPvR16TMemberInspectorES1_S1_ii
fun:_ZN4ROOT17TGenericClassInfo8GetClassEv
fun:_ZN8TAttAxis10DictionaryEv
fun:_ZNK5TROOT9LoadClassEPKcb
fun:_ZN6TClass8GetClassEPKcbb
}
{
root_jets_67
Memcheck:Leak
match-leak-kinds: possible
fun:_Znwm
fun:_ZNSs4_Rep9_S_createEmmRKSaIcE
fun:_ZNSs12_S_constructIPKcEEPcT_S3_RKSaIcESt20forward_iterator_tag
fun:_ZNSsC1EPKcRKSaIcE
fun:_ZN6TClass8AddClassEPS_
fun:_ZN6TClass4InitEPKcsPKSt9type_infoP16TVirtualIsAProxyPFvPvR16TMemberInspectorES1_S1_iib
fun:_ZN6TClassC1EPKcsRKSt9type_infoP16TVirtualIsAProxyPFvPvR16TMemberInspectorES1_S1_iib
fun:_ZN4ROOT11CreateClassEPKcsRKSt9type_infoP16TVirtualIsAProxyPFvPvR16TMemberInspectorES1_S1_ii
fun:_ZN4ROOT17TGenericClassInfo8GetClassEv
fun:_ZN8TVector210DictionaryEv
fun:_ZNK5TROOT9LoadClassEPKcb
fun:_ZN6TClass8GetClassEPKcbb
}
{
root_jets_68
Memcheck:Leak
match-leak-kinds: possible
fun:_Znwm
fun:_ZNSs4_Rep9_S_createEmmRKSaIcE
fun:_ZNSs9_M_mutateEmmm
fun:_ZNSs15_M_replace_safeEmmPKcm
fun:_ZN9TClassRef6AssignEP6TClass
fun:_ZN4ROOT14TSchemaRuleSet8SetClassEP6TClass
fun:_ZN6TClass14GetSchemaRulesEb
fun:_ZN4ROOT17TGenericClassInfo13CreateRuleSetERSt6vectorINS_13TSchemaHelperESaIS2_EEb
fun:_ZN4ROOT17TGenericClassInfo8GetClassEv
fun:_ZN9AliAODPid10DictionaryEv
fun:_ZNK5TROOT9LoadClassEPKcb
fun:_ZN6TClass8GetClassEPKcbb
}
{
root_jets_69
Memcheck:Leak
match-leak-kinds: possible
fun:_Znwm
fun:_ZNSs4_Rep9_S_createEmmRKSaIcE
fun:_ZNSs12_S_constructIPKcEEPcT_S3_RKSaIcESt20forward_iterator_tag
fun:_ZNSsC1EPKcRKSaIcE
fun:_ZN6TClass8AddClassEPS_
fun:_ZN6TClass4InitEPKcsPKSt9type_infoP16TVirtualIsAProxyPFvPvR16TMemberInspectorES1_S1_iib
fun:_ZN6TClassC1EPKcsRKSt9type_infoP16TVirtualIsAProxyPFvPvR16TMemberInspectorES1_S1_iib
fun:_ZN4ROOT11CreateClassEPKcsRKSt9type_infoP16TVirtualIsAProxyPFvPvR16TMemberInspectorES1_S1_ii
fun:_ZN4ROOT17TGenericClassInfo8GetClassEv
fun:_ZN8AliAODv010DictionaryEv
fun:_ZNK5TROOT9LoadClassEPKcb
fun:_ZN6TClass8GetClassEPKcbb
}
{
root_jets_70
Memcheck:Leak
match-leak-kinds: possible
fun:_Znwm
fun:_ZNSs4_Rep9_S_createEmmRKSaIcE
fun:_ZNSs12_S_constructIPKcEEPcT_S3_RKSaIcESt20forward_iterator_tag
fun:_ZNSsC1EPKcRKSaIcE
fun:_ZN6TClass8AddClassEPS_
fun:_ZN6TClass4InitEPKcsPKSt9type_infoP16TVirtualIsAProxyPFvPvR16TMemberInspectorES1_S1_iib
fun:_ZN6TClassC1EPKcsRKSt9type_infoP16TVirtualIsAProxyPFvPvR16TMemberInspectorES1_S1_iib
fun:_ZN4ROOT11CreateClassEPKcsRKSt9type_infoP16TVirtualIsAProxyPFvPvR16TMemberInspectorES1_S1_ii
fun:_ZN4ROOT17TGenericClassInfo8GetClassEv
fun:_ZN8TVector310DictionaryEv
fun:_ZNK5TROOT9LoadClassEPKcb
fun:_ZN6TClass8GetClassEPKcbb
}
{
root_jets_71
Memcheck:Leak
match-leak-kinds: possible
fun:_Znwm
fun:_ZNSs4_Rep9_S_createEmmRKSaIcE
fun:_ZNSs12_S_constructIPKcEEPcT_S3_RKSaIcESt20forward_iterator_tag
fun:_ZNSsC1EPKcRKSaIcE
fun:_ZN6TClass8AddClassEPS_
fun:_ZN6TClass4InitEPKcsPKSt9type_infoP16TVirtualIsAProxyPFvPvR16TMemberInspectorES1_S1_iib
fun:_ZN6TClassC1EPKcsRKSt9type_infoP16TVirtualIsAProxyPFvPvR16TMemberInspectorES1_S1_iib
fun:_ZN4ROOT11CreateClassEPKcsRKSt9type_infoP16TVirtualIsAProxyPFvPvR16TMemberInspectorES1_S1_ii
fun:_ZN4ROOT17TGenericClassInfo8GetClassEv
fun:_ZN8TFormula10DictionaryEv
fun:_ZNK5TROOT9LoadClassEPKcb
fun:_ZN6TClass8GetClassEPKcbb
}
{
root_jets_72
Memcheck:Leak
match-leak-kinds: possible
fun:_Znwm
fun:_ZNSs4_Rep9_S_createEmmRKSaIcE
fun:_ZNSs12_S_constructIPKcEEPcT_S3_RKSaIcESt20forward_iterator_tag
fun:_ZNSsC1EPKcRKSaIcE
fun:_ZN6TClass8AddClassEPS_
fun:_ZN6TClass4InitEPKcsPKSt9type_infoP16TVirtualIsAProxyPFvPvR16TMemberInspectorES1_S1_iib
fun:_ZN6TClassC1EPKcsRKSt9type_infoP16TVirtualIsAProxyPFvPvR16TMemberInspectorES1_S1_iib
fun:_ZN4ROOT11CreateClassEPKcsRKSt9type_infoP16TVirtualIsAProxyPFvPvR16TMemberInspectorES1_S1_ii
fun:_ZN4ROOT17TGenericClassInfo8GetClassEv
fun:_ZN8AliVCuts10DictionaryEv
fun:_ZNK5TROOT9LoadClassEPKcb
fun:_ZN6TClass8GetClassEPKcbb
}
{
root_jets_73
Memcheck:Leak
match-leak-kinds: possible
fun:_Znwm
fun:_ZNSs4_Rep9_S_createEmmRKSaIcE
fun:_ZNSs9_M_mutateEmmm
fun:_ZNSs15_M_replace_safeEmmPKcm
fun:_ZN9TClassRef6AssignEP6TClass
fun:_ZN6TClass19AdoptReferenceProxyEP16TVirtualRefProxy
fun:_ZN11TTreePlayerC1Ev
fun:_ZN4ROOTL15new_TTreePlayerEPv
fun:_ZNK6TClass3NewENS_8ENewTypeE
fun:_ZN18TVirtualTreePlayer10TreePlayerEP5TTree
fun:_ZN5TTree9GetPlayerEv
fun:_ZN5TTree7ProcessEP9TSelectorPKcxx
}
{
root_jets_74
Memcheck:Leak
match-leak-kinds: possible
fun:_Znwm
fun:_ZNSs4_Rep9_S_createEmmRKSaIcE
fun:_ZNSs12_S_constructIPKcEEPcT_S3_RKSaIcESt20forward_iterator_tag
fun:_ZNSsC1EPKcRKSaIcE
fun:_ZN6TClass8AddClassEPS_
fun:_ZN6TClass4InitEPKcsPKSt9type_infoP16TVirtualIsAProxyPFvPvR16TMemberInspectorES1_S1_iib
fun:_ZN6TClassC1EPKcsRKSt9type_infoP16TVirtualIsAProxyPFvPvR16TMemberInspectorES1_S1_iib
fun:_ZN4ROOT11CreateClassEPKcsRKSt9type_infoP16TVirtualIsAProxyPFvPvR16TMemberInspectorES1_S1_ii
fun:_ZN4ROOT17TGenericClassInfo8GetClassEv
fun:_ZN9TObjArray10DictionaryEv
fun:_ZN6TClass8GetClassERKSt9type_infobb
fun:_ZrsI9TObjArrayER7TBufferS2_RPT_
}
{
root_jets_75
Memcheck:Leak
match-leak-kinds: possible
fun:_Znwm
fun:_ZNSs4_Rep9_S_createEmmRKSaIcE
fun:_ZNSs12_S_constructIPKcEEPcT_S3_RKSaIcESt20forward_iterator_tag
fun:_ZNSsC1EPKcRKSaIcE
fun:_ZN6TClass8AddClassEPS_
fun:_ZN6TClass4InitEPKcsPKSt9type_infoP16TVirtualIsAProxyPFvPvR16TMemberInspectorES1_S1_iib
fun:_ZN6TClassC1EPKcsRKSt9type_infoP16TVirtualIsAProxyPFvPvR16TMemberInspectorES1_S1_iib
fun:_ZN4ROOT11CreateClassEPKcsRKSt9type_infoP16TVirtualIsAProxyPFvPvR16TMemberInspectorES1_S1_ii
fun:_ZN4ROOT17TGenericClassInfo8GetClassEv
fun:_ZN9THashList10DictionaryEv
fun:_ZNK5TROOT9LoadClassEPKcb
fun:_ZN6TClass8GetClassEPKcbb
}
{
root_jets_76
Memcheck:Leak
match-leak-kinds: possible
fun:_Znwm
fun:_ZNSs4_Rep9_S_createEmmRKSaIcE
fun:_ZNSs12_S_constructIPKcEEPcT_S3_RKSaIcESt20forward_iterator_tag
fun:_ZNSsC1EPKcRKSaIcE
fun:_ZN6TClass8AddClassEPS_
fun:_ZN6TClass4InitEPKcsPKSt9type_infoP16TVirtualIsAProxyPFvPvR16TMemberInspectorES1_S1_iib
fun:_ZN6TClassC1EPKcsRKSt9type_infoP16TVirtualIsAProxyPFvPvR16TMemberInspectorES1_S1_iib
fun:_ZN4ROOT11CreateClassEPKcsRKSt9type_infoP16TVirtualIsAProxyPFvPvR16TMemberInspectorES1_S1_ii
fun:_ZN4ROOT17TGenericClassInfo8GetClassEv
fun:_ZN9AliVTrack10DictionaryEv
fun:_ZNK5TROOT9LoadClassEPKcb
fun:_ZN6TClass8GetClassEPKcbb
}
{
root_jets_77
Memcheck:Leak
match-leak-kinds: possible
fun:_Znwm
fun:_ZNSs4_Rep9_S_createEmmRKSaIcE
fun:_ZNSs12_S_constructIPKcEEPcT_S3_RKSaIcESt20forward_iterator_tag
fun:_ZNSsC1EPKcRKSaIcE
fun:_ZN6TClass8AddClassEPS_
fun:_ZN6TClass4InitEPKcsPKSt9type_infoP16TVirtualIsAProxyPFvPvR16TMemberInspectorES1_S1_iib
fun:_ZN6TClassC1EPKcsRKSt9type_infoP16TVirtualIsAProxyPFvPvR16TMemberInspectorES1_S1_iib
fun:_ZN4ROOT11CreateClassEPKcsRKSt9type_infoP16TVirtualIsAProxyPFvPvR16TMemberInspectorES1_S1_ii
fun:_ZN4ROOT17TGenericClassInfo8GetClassEv
fun:_ZN9AliAODPid10DictionaryEv
fun:_ZNK5TROOT9LoadClassEPKcb
fun:_ZN6TClass8GetClassEPKcbb
}
{
root_jets_78
Memcheck:Leak
match-leak-kinds: possible
fun:_Znwm
fun:_ZNSs4_Rep9_S_createEmmRKSaIcE
fun:_ZNSs12_S_constructIPKcEEPcT_S3_RKSaIcESt20forward_iterator_tag
fun:_ZNSsC1EPKcRKSaIcE
fun:_ZN6TClass8AddClassEPS_
fun:_ZN6TClass4InitEPKcsPKSt9type_infoP16TVirtualIsAProxyPFvPvR16TMemberInspectorES1_S1_iib
fun:_ZN6TClassC1EPKcsRKSt9type_infoP16TVirtualIsAProxyPFvPvR16TMemberInspectorES1_S1_iib
fun:_ZN4ROOT11CreateClassEPKcsRKSt9type_infoP16TVirtualIsAProxyPFvPvR16TMemberInspectorES1_S1_ii
fun:_ZN4ROOT17TGenericClassInfo8GetClassEv
fun:_ZN9TRefArray10DictionaryEv
fun:_ZNK5TROOT9LoadClassEPKcb
fun:_ZN6TClass8GetClassEPKcbb
}
{
root_jets_79
Memcheck:Leak
match-leak-kinds: possible
fun:_Znwm
fun:_ZNSs4_Rep9_S_createEmmRKSaIcE
fun:_ZNSs12_S_constructIPKcEEPcT_S3_RKSaIcESt20forward_iterator_tag
fun:_ZNSsC1EPKcRKSaIcE
fun:_ZN6TClass8AddClassEPS_
fun:_ZN6TClass4InitEPKcsPKSt9type_infoP16TVirtualIsAProxyPFvPvR16TMemberInspectorES1_S1_iib
fun:_ZN6TClassC1EPKcsRKSt9type_infoP16TVirtualIsAProxyPFvPvR16TMemberInspectorES1_S1_iib
fun:_ZN4ROOT11CreateClassEPKcsRKSt9type_infoP16TVirtualIsAProxyPFvPvR16TMemberInspectorES1_S1_ii
fun:_ZN4ROOT17TGenericClassInfo8GetClassEv
fun:_ZN9AliAODJet10DictionaryEv
fun:_ZNK5TROOT9LoadClassEPKcb
fun:_ZN6TClass8GetClassEPKcbb
}
{
root_jets_80
Memcheck:Leak
match-leak-kinds: possible
fun:_Znwm
fun:_ZNSs4_Rep9_S_createEmmRKSaIcE
fun:_ZNSs12_S_constructIPKcEEPcT_S3_RKSaIcESt20forward_iterator_tag
fun:_ZNSsC1EPKcRKSaIcE
fun:_ZN6TClass8AddClassEPS_
fun:_ZN6TClass4InitEPKcsPKSt9type_infoP16TVirtualIsAProxyPFvPvR16TMemberInspectorES1_S1_iib
fun:_ZN6TClassC1EPKcsRKSt9type_infoP16TVirtualIsAProxyPFvPvR16TMemberInspectorES1_S1_iib
fun:_ZN4ROOT11CreateClassEPKcsRKSt9type_infoP16TVirtualIsAProxyPFvPvR16TMemberInspectorES1_S1_ii
fun:_ZN4ROOT17TGenericClassInfo8GetClassEv
fun:_ZN9AliVVZERO10DictionaryEv
fun:_ZNK5TROOT9LoadClassEPKcb
fun:_ZN6TClass8GetClassEPKcbb
}
{
root_jets_81
Memcheck:Leak
match-leak-kinds: possible
fun:_Znwm
fun:_ZNSs4_Rep9_S_createEmmRKSaIcE
fun:_ZNSs12_S_constructIPKcEEPcT_S3_RKSaIcESt20forward_iterator_tag
fun:_ZNSsC1EPKcRKSaIcE
fun:_ZN6TClass8AddClassEPS_
fun:_ZN6TClass4InitEPKcsPKSt9type_infoP16TVirtualIsAProxyPFvPvR16TMemberInspectorES1_S1_iib
fun:_ZN6TClassC1EPKcsRKSt9type_infoP16TVirtualIsAProxyPFvPvR16TMemberInspectorES1_S1_iib
fun:_ZN4ROOT11CreateClassEPKcsRKSt9type_infoP16TVirtualIsAProxyPFvPvR16TMemberInspectorES1_S1_ii
fun:_ZN4ROOT17TGenericClassInfo8GetClassEv
fun:_ZN9AliAODZDC10DictionaryEv
fun:_ZNK5TROOT9LoadClassEPKcb
fun:_ZN6TClass8GetClassEPKcbb
}
{
root_jets_82
Memcheck:Leak
match-leak-kinds: possible
fun:_Znwm
fun:_ZNSs4_Rep9_S_createEmmRKSaIcE
fun:_ZNSs12_S_constructIPKcEEPcT_S3_RKSaIcESt20forward_iterator_tag
fun:_ZNSsC1EPKcRKSaIcE
fun:_ZN6TClass8AddClassEPS_
fun:_ZN6TClass4InitEPKcsPKSt9type_infoP16TVirtualIsAProxyPFvPvR16TMemberInspectorES1_S1_iib
fun:_ZN6TClassC1EPKcsRKSt9type_infoP16TVirtualIsAProxyPFvPvR16TMemberInspectorES1_S1_iib
fun:_ZN4ROOT11CreateClassEPKcsRKSt9type_infoP16TVirtualIsAProxyPFvPvR16TMemberInspectorES1_S1_ii
fun:_ZN4ROOT17TGenericClassInfo8GetClassEv
fun:_ZN9TRefTable10DictionaryEv
fun:_ZNK5TROOT9LoadClassEPKcb
fun:_ZN6TClass8GetClassEPKcbb
}
{
root_jets_83
Memcheck:Leak
match-leak-kinds: possible
fun:_Znwm
fun:_ZNSs4_Rep9_S_createEmmRKSaIcE
fun:_ZNSs12_S_constructIPKcEEPcT_S3_RKSaIcESt20forward_iterator_tag
fun:_ZNSsC1EPKcRKSaIcE
fun:_ZN6TClass8AddClassEPS_
fun:_ZN6TClass4InitEPKcsPKSt9type_infoP16TVirtualIsAProxyPFvPvR16TMemberInspectorES1_S1_iib
fun:_ZN6TClassC1EPKcsRKSt9type_infoP16TVirtualIsAProxyPFvPvR16TMemberInspectorES1_S1_iib
fun:_ZN4ROOT11CreateClassEPKcsRKSt9type_infoP16TVirtualIsAProxyPFvPvR16TMemberInspectorES1_S1_ii
fun:_ZN4ROOT17TGenericClassInfo8GetClassEv
fun:_ZN9AliVEvent10DictionaryEv
fun:_ZNK5TROOT9LoadClassEPKcb
fun:_ZN6TClass8GetClassEPKcbb
}
{
root_jets_84
Memcheck:Leak
match-leak-kinds: possible
fun:_Znwm
fun:_ZNSs4_Rep9_S_createEmmRKSaIcE
fun:_ZNSs9_M_mutateEmmm
fun:_ZNSs15_M_replace_safeEmmPKcm
fun:_ZN19TGenCollectionProxyC1ERKN4ROOT20TCollectionProxyInfoEP6TClass
fun:_ZN23TCollectionProxyFactory16GenExplicitProxyERKN4ROOT20TCollectionProxyInfoEP6TClass
fun:_ZN6TClass18SetCollectionProxyERKN4ROOT20TCollectionProxyInfoE
fun:_ZN4ROOT17TGenericClassInfo8GetClassEv
fun:_ZNK5TROOT9LoadClassEPKcb
fun:_ZN6TClass8GetClassEPKcbb
fun:_ZN14TBuildRealData7InspectEP6TClassPKcS3_PKv
fun:_ZN14TBranchElement11ShowMembersER16TMemberInspector
}
{
root_jets_85
Memcheck:Leak
match-leak-kinds: possible
fun:_Znwm
fun:_ZNSs4_Rep9_S_createEmmRKSaIcE
fun:_ZNSs12_S_constructIPKcEEPcT_S3_RKSaIcESt20forward_iterator_tag
fun:_ZNSsC1EPKcRKSaIcE
fun:_ZN6TClass8AddClassEPS_
fun:_ZN6TClass4InitEPKcsPKSt9type_infoP16TVirtualIsAProxyPFvPvR16TMemberInspectorES1_S1_iib
fun:_ZN6TClassC1EPKcsRKSt9type_infoP16TVirtualIsAProxyPFvPvR16TMemberInspectorES1_S1_iib
fun:_ZN4ROOT11CreateClassEPKcsRKSt9type_infoP16TVirtualIsAProxyPFvPvR16TMemberInspectorES1_S1_ii
fun:_ZN4ROOT17TGenericClassInfo8GetClassEv
fun:_ZN10TObjString5ClassEv
fun:_ZNK10TObjString7CompareEPK7TObject
fun:_ZN11TSortedList3AddEP7TObject
}
{
root_jets_86
Memcheck:Leak
match-leak-kinds: possible
fun:_Znwm
fun:_ZNSs4_Rep9_S_createEmmRKSaIcE
fun:_ZNSs12_S_constructIPKcEEPcT_S3_RKSaIcESt20forward_iterator_tag
fun:_ZNSsC1EPKcRKSaIcE
fun:_ZN6TClass8AddClassEPS_
fun:_ZN6TClass4InitEPKcsPKSt9type_infoP16TVirtualIsAProxyPFvPvR16TMemberInspectorES1_S1_iib
fun:_ZN6TClassC1EPKcsRKSt9type_infoP16TVirtualIsAProxyPFvPvR16TMemberInspectorES1_S1_iib
fun:_ZN4ROOT11CreateClassEPKcsRKSt9type_infoP16TVirtualIsAProxyPFvPvR16TMemberInspectorES1_S1_ii
fun:_ZN4ROOT17TGenericClassInfo8GetClassEv
fun:_ZN10TAttMarker10DictionaryEv
fun:_ZNK5TROOT9LoadClassEPKcb
fun:_ZN6TClass8GetClassEPKcbb
}
{
root_jets_87
Memcheck:Leak
match-leak-kinds: possible
fun:_Znwm
fun:_ZNSs4_Rep9_S_createEmmRKSaIcE
fun:_ZNSs12_S_constructIPKcEEPcT_S3_RKSaIcESt20forward_iterator_tag
fun:_ZNSsC1EPKcRKSaIcE
fun:_ZN6TClass8AddClassEPS_
fun:_ZN6TClass4InitEPKcsPKSt9type_infoP16TVirtualIsAProxyPFvPvR16TMemberInspectorES1_S1_iib
fun:_ZN6TClassC1EPKcsRKSt9type_infoP16TVirtualIsAProxyPFvPvR16TMemberInspectorES1_S1_iib
fun:_ZN4ROOT11CreateClassEPKcsRKSt9type_infoP16TVirtualIsAProxyPFvPvR16TMemberInspectorES1_S1_ii
fun:_ZN4ROOT17TGenericClassInfo8GetClassEv
fun:_ZN10AliVHeader10DictionaryEv
fun:_ZNK5TROOT9LoadClassEPKcb
fun:_ZN6TClass8GetClassEPKcbb
}
{
root_jets_88
Memcheck:Leak
match-leak-kinds: possible
fun:_Znwm
fun:_ZNSs4_Rep9_S_createEmmRKSaIcE
fun:_ZNSs12_S_constructIPKcEEPcT_S3_RKSaIcESt20forward_iterator_tag
fun:_ZNSsC1EPKcRKSaIcE
fun:_ZN6TClass8AddClassEPS_
fun:_ZN6TClass4InitEPKcsPKSt9type_infoP16TVirtualIsAProxyPFvPvR16TMemberInspectorES1_S1_iib
fun:_ZN6TClassC1EPKcsRKSt9type_infoP16TVirtualIsAProxyPFvPvR16TMemberInspectorES1_S1_iib
fun:_ZN4ROOT11CreateClassEPKcsRKSt9type_infoP16TVirtualIsAProxyPFvPvR16TMemberInspectorES1_S1_ii
fun:_ZN4ROOT17TGenericClassInfo8GetClassEv
fun:_ZN10TGeoMatrix10DictionaryEv
fun:_ZNK5TROOT9LoadClassEPKcb
fun:_ZN6TClass8GetClassEPKcbb
}
{
root_jets_89
Memcheck:Leak
match-leak-kinds: possible
fun:_Znwm
fun:_ZNSs4_Rep9_S_createEmmRKSaIcE
fun:_ZNSs12_S_constructIPKcEEPcT_S3_RKSaIcESt20forward_iterator_tag
fun:_ZNSsC1EPKcRKSaIcE
fun:_ZN6TClass8AddClassEPS_
fun:_ZN6TClass4InitEPKcsPKSt9type_infoP16TVirtualIsAProxyPFvPvR16TMemberInspectorES1_S1_iib
fun:_ZN6TClassC1EPKcsRKSt9type_infoP16TVirtualIsAProxyPFvPvR16TMemberInspectorES1_S1_iib
fun:_ZN4ROOT11CreateClassEPKcsRKSt9type_infoP16TVirtualIsAProxyPFvPvR16TMemberInspectorES1_S1_ii
fun:_ZN4ROOT17TGenericClassInfo8GetClassEv
fun:_ZN10AliVVertex10DictionaryEv
fun:_ZNK5TROOT9LoadClassEPKcb
fun:_ZN6TClass8GetClassEPKcbb
}
{
root_jets_90
Memcheck:Leak
match-leak-kinds: possible
fun:_Znwm
fun:_ZNSs4_Rep9_S_createEmmRKSaIcE
fun:_ZNSs12_S_constructIPKcEEPcT_S3_RKSaIcESt20forward_iterator_tag
fun:_ZNSsC1EPKcRKSaIcE
fun:_ZN6TClass8AddClassEPS_
fun:_ZN6TClass4InitEPKcsPKSt9type_infoP16TVirtualIsAProxyPFvPvR16TMemberInspectorES1_S1_iib
fun:_ZN6TClassC1EPKcsRKSt9type_infoP16TVirtualIsAProxyPFvPvR16TMemberInspectorES1_S1_iib
fun:_ZN4ROOT11CreateClassEPKcsRKSt9type_infoP16TVirtualIsAProxyPFvPvR16TMemberInspectorES1_S1_ii
fun:_ZN4ROOT17TGenericClassInfo8GetClassEv
fun:_ZN10TProcessID10DictionaryEv
fun:_ZNK5TROOT9LoadClassEPKcb
fun:_ZN6TClass8GetClassEPKcbb
}
{
root_jets_91
Memcheck:Leak
match-leak-kinds: possible
fun:_Znwm
fun:_ZNSs4_Rep9_S_createEmmRKSaIcE
fun:_ZNSs12_S_constructIPKcEEPcT_S3_RKSaIcESt20forward_iterator_tag
fun:_ZNSsC1EPKcRKSaIcE
fun:_ZN6TClass8AddClassEPS_
fun:_ZN6TClass4InitEPKcsPKSt9type_infoP16TVirtualIsAProxyPFvPvR16TMemberInspectorES1_S1_iib
fun:_ZN6TClassC1EPKcsRKSt9type_infoP16TVirtualIsAProxyPFvPvR16TMemberInspectorES1_S1_iib
fun:_ZN4ROOT11CreateClassEPKcsRKSt9type_infoP16TVirtualIsAProxyPFvPvR16TMemberInspectorES1_S1_ii
fun:_ZN4ROOT17TGenericClassInfo8GetClassEv
fun:_ZN10TBranchRef10DictionaryEv
fun:_ZNK5TROOT9LoadClassEPKcb
fun:_ZN6TClass8GetClassEPKcbb
}
{
root_jets_92
Memcheck:Leak
match-leak-kinds: possible
fun:_Znwm
fun:_ZNSs4_Rep9_S_createEmmRKSaIcE
fun:_ZNSs9_M_mutateEmmm
fun:_ZNSs15_M_replace_safeEmmPKcm
fun:_ZN9TClassRef6AssignEP6TClass
fun:_ZN10TBaseClass15GetClassPointerEb
fun:_ZN8TQObject23CollectClassSignalListsER5TListP6TClass
fun:_ZN8TQObject4EmitEPKcl
fun:_ZN12TApplication9TerminateEi
fun:_ZN5TRint3RunEb
fun:main
}
{
root_jets_93
Memcheck:Leak
match-leak-kinds: possible
fun:_Znwm
fun:_ZNSs4_Rep9_S_createEmmRKSaIcE
fun:_ZNSs12_S_constructIPKcEEPcT_S3_RKSaIcESt20forward_iterator_tag
fun:_ZNSsC1EPKcRKSaIcE
fun:_ZN6TClass8AddClassEPS_
fun:_ZN6TClass4InitEPKcsPKSt9type_infoP16TVirtualIsAProxyPFvPvR16TMemberInspectorES1_S1_iib
fun:_ZN6TClassC1EPKcsRKSt9type_infoP16TVirtualIsAProxyPFvPvR16TMemberInspectorES1_S1_iib
fun:_ZN4ROOT11CreateClassEPKcsRKSt9type_infoP16TVirtualIsAProxyPFvPvR16TMemberInspectorES1_S1_ii
fun:_ZN4ROOT17TGenericClassInfo8GetClassEv
fun:_ZN11TCollection10DictionaryEv
fun:_ZNK5TROOT9LoadClassEPKcb
fun:_ZN6TClass8GetClassEPKcbb
}
{
root_jets_94
Memcheck:Leak
match-leak-kinds: possible
fun:_Znwm
fun:_ZNSs4_Rep9_S_createEmmRKSaIcE
fun:_ZNSs12_S_constructIPKcEEPcT_S3_RKSaIcESt20forward_iterator_tag
fun:_ZNSsC1EPKcRKSaIcE
fun:_ZN6TClass8AddClassEPS_
fun:_ZN6TClass4InitEPKcsPKSt9type_infoP16TVirtualIsAProxyPFvPvR16TMemberInspectorES1_S1_iib
fun:_ZN6TClassC1EPKcsRKSt9type_infoP16TVirtualIsAProxyPFvPvR16TMemberInspectorES1_S1_iib
fun:_ZN4ROOT11CreateClassEPKcsRKSt9type_infoP16TVirtualIsAProxyPFvPvR16TMemberInspectorES1_S1_ii
fun:_ZN4ROOT17TGenericClassInfo8GetClassEv
fun:_ZN11TGeoHMatrix10DictionaryEv
fun:_ZNK5TROOT9LoadClassEPKcb
fun:_ZN6TClass8GetClassEPKcbb
}
{
root_jets_95
Memcheck:Leak
match-leak-kinds: possible
fun:_Znwm
fun:_ZNSs4_Rep9_S_createEmmRKSaIcE
fun:_ZNSs12_S_constructIPKcEEPcT_S3_RKSaIcESt20forward_iterator_tag
fun:_ZNSsC1EPKcRKSaIcE
fun:_ZN6TClass8AddClassEPS_
fun:_ZN6TClass4InitEPKcsPKSt9type_infoP16TVirtualIsAProxyPFvPvR16TMemberInspectorES1_S1_iib
fun:_ZN6TClassC1EPKcsRKSt9type_infoP16TVirtualIsAProxyPFvPvR16TMemberInspectorES1_S1_iib
fun:_ZN4ROOT11CreateClassEPKcsRKSt9type_infoP16TVirtualIsAProxyPFvPvR16TMemberInspectorES1_S1_ii
fun:_ZN4ROOT17TGenericClassInfo8GetClassEv
fun:_ZN11AliAODTrack10DictionaryEv
fun:_ZNK5TROOT9LoadClassEPKcb
fun:_ZN6TClass8GetClassEPKcbb
}
{
root_jets_96
Memcheck:Leak
match-leak-kinds: possible
fun:_Znwm
fun:_ZNSs4_Rep9_S_createEmmRKSaIcE
fun:_ZNSs12_S_constructIPKcEEPcT_S3_RKSaIcESt20forward_iterator_tag
fun:_ZNSsC1EPKcRKSaIcE
fun:_ZN6TClass8AddClassEPS_
fun:_ZN6TClass4InitEPKcsPKSt9type_infoP16TVirtualIsAProxyPFvPvR16TMemberInspectorES1_S1_iib
fun:_ZN6TClassC1EPKcsRKSt9type_infoP16TVirtualIsAProxyPFvPvR16TMemberInspectorES1_S1_iib
fun:_ZN4ROOT11CreateClassEPKcsRKSt9type_infoP16TVirtualIsAProxyPFvPvR16TMemberInspectorES1_S1_ii
fun:_ZN4ROOT17TGenericClassInfo8GetClassEv
fun:_ZN11AliVCluster10DictionaryEv
fun:_ZNK5TROOT9LoadClassEPKcb
fun:_ZN6TClass8GetClassEPKcbb
}
{
root_jets_97
Memcheck:Leak
match-leak-kinds: possible
fun:_Znwm
fun:_ZNSs4_Rep9_S_createEmmRKSaIcE
fun:_ZNSs12_S_constructIPKcEEPcT_S3_RKSaIcESt20forward_iterator_tag
fun:_ZNSsC1EPKcRKSaIcE
fun:_ZN6TClass8AddClassEPS_
fun:_ZN6TClass4InitEPKcsPKSt9type_infoP16TVirtualIsAProxyPFvPvR16TMemberInspectorES1_S1_iib
fun:_ZN6TClassC1EPKcsRKSt9type_infoP16TVirtualIsAProxyPFvPvR16TMemberInspectorES1_S1_iib
fun:_ZN4ROOT11CreateClassEPKcsRKSt9type_infoP16TVirtualIsAProxyPFvPvR16TMemberInspectorES1_S1_ii
fun:_ZN4ROOT17TGenericClassInfo8GetClassEv
fun:_ZN11AliAODTZERO10DictionaryEv
fun:_ZNK5TROOT9LoadClassEPKcb
fun:_ZN6TClass8GetClassEPKcbb
}
{
root_jets_98
Memcheck:Leak
match-leak-kinds: possible
fun:_Znwm
fun:_ZNSs4_Rep9_S_createEmmRKSaIcE
fun:_ZNSs12_S_constructIPKcEEPcT_S3_RKSaIcESt20forward_iterator_tag
fun:_ZNSsC1EPKcRKSaIcE
fun:_ZN6TClass8AddClassEPS_
fun:_ZN6TClass4InitEPKcsPKSt9type_infoP16TVirtualIsAProxyPFvPvR16TMemberInspectorES1_S1_iib
fun:_ZN6TClassC1EPKcsRKSt9type_infoP16TVirtualIsAProxyPFvPvR16TMemberInspectorES1_S1_iib
fun:_ZN4ROOT11CreateClassEPKcsRKSt9type_infoP16TVirtualIsAProxyPFvPvR16TMemberInspectorES1_S1_ii
fun:_ZN4ROOT17TGenericClassInfo8GetClassEv
fun:_ZN11AliAODVZERO10DictionaryEv
fun:_ZNK5TROOT9LoadClassEPKcb
fun:_ZN6TClass8GetClassEPKcbb
}
{
root_jets_99
Memcheck:Leak
match-leak-kinds: possible
fun:_Znwm
fun:_ZNSs4_Rep9_S_createEmmRKSaIcE
fun:_ZNSs12_S_constructIPKcEEPcT_S3_RKSaIcESt20forward_iterator_tag
fun:_ZNSsC1EPKcRKSaIcE
fun:_ZN6TClass8AddClassEPS_
fun:_ZN6TClass4InitEPKcsPKSt9type_infoP16TVirtualIsAProxyPFvPvR16TMemberInspectorES1_S1_iib
fun:_ZN6TClassC1EPKcsRKSt9type_infoP16TVirtualIsAProxyPFvPvR16TMemberInspectorES1_S1_iib
fun:_ZN4ROOT11CreateClassEPKcsRKSt9type_infoP16TVirtualIsAProxyPFvPvR16TMemberInspectorES1_S1_ii
fun:_ZN4ROOT17TGenericClassInfo8GetClassEv
fun:_ZN11AliAODEvent10DictionaryEv
fun:_ZNK5TROOT9LoadClassEPKcb
fun:_ZN6TClass8GetClassEPKcbb
}
{
root_jets_100
Memcheck:Leak
match-leak-kinds: possible
fun:_Znwm
fun:_ZNSs4_Rep9_S_createEmmRKSaIcE
fun:_ZNSs12_S_constructIPKcEEPcT_S3_RKSaIcESt20forward_iterator_tag
fun:_ZNSsC1EPKcRKSaIcE
fun:_ZN6TClass8AddClassEPS_
fun:_ZN6TClass4InitEPKcsPKSt9type_infoP16TVirtualIsAProxyPFvPvR16TMemberInspectorES1_S1_iib
fun:_ZN6TClassC1EPKcsRKSt9type_infoP16TVirtualIsAProxyPFvPvR16TMemberInspectorES1_S1_iib
fun:_ZN4ROOT11CreateClassEPKcsRKSt9type_infoP16TVirtualIsAProxyPFvPvR16TMemberInspectorES1_S1_ii
fun:_ZN4ROOT17TGenericClassInfo8GetClassEv
fun:_ZN11TBufferFile5ClassEv
fun:_ZNK7TObject9ClassNameEv
fun:_ZNK7TObject7DoErrorEiPKcS1_P13__va_list_tag
}
{
root_jets_101
Memcheck:Leak
match-leak-kinds: possible
fun:_Znwm
fun:_ZNSs4_Rep9_S_createEmmRKSaIcE
fun:_ZNSs12_S_constructIPKcEEPcT_S3_RKSaIcESt20forward_iterator_tag
fun:_ZNSsC1EPKcRKSaIcE
fun:_ZN6TClass8AddClassEPS_
fun:_ZN6TClass4InitEPKcsPKSt9type_infoP16TVirtualIsAProxyPFvPvR16TMemberInspectorES1_S1_iib
fun:_ZN6TClassC1EPKcsRKSt9type_infoP16TVirtualIsAProxyPFvPvR16TMemberInspectorES1_S1_iib
fun:_ZN4ROOT11CreateClassEPKcsRKSt9type_infoP16TVirtualIsAProxyPFvPvR16TMemberInspectorES1_S1_ii
fun:_ZN4ROOT17TGenericClassInfo8GetClassEv
fun:_ZN11TTreePlayer10DictionaryEv
fun:_ZNK5TROOT9LoadClassEPKcb
fun:_ZN14TPluginHandler10LoadPluginEv
}
{
root_jets_102
Memcheck:Leak
match-leak-kinds: possible
fun:_Znwm
fun:_ZNSs4_Rep9_S_createEmmRKSaIcE
fun:_ZNSs9_M_mutateEmmm
fun:_ZNSs15_M_replace_safeEmmPKcm
fun:_ZN9TClassRef6AssignEP6TClass
fun:_ZN10TBaseClass15GetClassPointerEb
fun:_ZN8TQObject23CollectClassSignalListsER5TListP6TClass
fun:_ZN8TQObject4EmitEPKc
fun:_ZN5TRintC1EPKcPiPPcPvib
fun:main
}
{
root_jets_103
Memcheck:Leak
match-leak-kinds: possible
fun:_Znwm
fun:_ZNSs4_Rep9_S_createEmmRKSaIcE
fun:_ZNSs12_S_constructIPKcEEPcT_S3_RKSaIcESt20forward_iterator_tag
fun:_ZNSsC1EPKcRKSaIcE
fun:_ZN6TClass8AddClassEPS_
fun:_ZN6TClass4InitEPKcsPKSt9type_infoP16TVirtualIsAProxyPFvPvR16TMemberInspectorES1_S1_iib
fun:_ZN6TClassC1EPKcsRKSt9type_infoP16TVirtualIsAProxyPFvPvR16TMemberInspectorES1_S1_iib
fun:_ZN7TQClassC1EPKcsRKSt9type_infoP16TVirtualIsAProxyPFvPvR16TMemberInspectorES1_S1_ii
fun:_ZNK4ROOT20TQObjectInitBehavior11CreateClassEPKcsRKSt9type_infoP16TVirtualIsAProxyPFvPvR16TMemberInspectorES2_S2_ii
fun:_ZN4ROOT17TGenericClassInfo8GetClassEv
fun:_ZN12TFileHandler5ClassEv
fun:_ZN8TQObject4EmitEPKc
}
{
root_jets_104
Memcheck:Leak
match-leak-kinds: possible
fun:_Znwm
fun:_ZNSs4_Rep9_S_createEmmRKSaIcE
fun:_ZNSs9_M_mutateEmmm
fun:_ZNSs15_M_replace_safeEmmPKcm
fun:_ZN9TClassRef6AssignEP6TClass
fun:_ZN10TBaseClass15GetClassPointerEb
fun:_ZN8TQObject23CollectClassSignalListsER5TListP6TClass
fun:_ZN8TQObject4EmitEPKc
fun:_ZN5TRintC1EPKcPiPPcPvib
fun:main
}
{
root_jets_105
Memcheck:Leak
match-leak-kinds: possible
fun:_Znwm
fun:_ZNSs4_Rep9_S_createEmmRKSaIcE
fun:_ZNSs9_M_mutateEmmm
fun:_ZNSs15_M_replace_safeEmmPKcm
fun:_ZN9TClassRef6AssignEP6TClass
fun:_ZN10TBaseClass15GetClassPointerEb
fun:_ZN6TClass12GetBaseClassEPKS_
fun:_ZNK6TClass12InheritsFromEPKS_
fun:_ZNK6TClass8PropertyEv
fun:_ZNK6TClass9IsForeignEv
fun:_ZN6TClass13PostLoadCheckEv
fun:_ZN6TClass8GetClassERKSt9type_infobb
}
{
root_jets_106
Memcheck:Leak
match-leak-kinds: possible
fun:_Znwm
fun:_ZNSs4_Rep9_S_createEmmRKSaIcE
fun:_ZNSs12_S_constructIPKcEEPcT_S3_RKSaIcESt20forward_iterator_tag
fun:_ZNSsC1EPKcRKSaIcE
fun:_ZN6TClass8AddClassEPS_
fun:_ZN6TClass4InitEPKcsPKSt9type_infoP16TVirtualIsAProxyPFvPvR16TMemberInspectorES1_S1_iib
fun:_ZN6TClassC1EPKcsRKSt9type_infoP16TVirtualIsAProxyPFvPvR16TMemberInspectorES1_S1_iib
fun:_ZN4ROOT11CreateClassEPKcsRKSt9type_infoP16TVirtualIsAProxyPFvPvR16TMemberInspectorES1_S1_ii
fun:_ZN4ROOT17TGenericClassInfo8GetClassEv
fun:_ZN12TStreamerSTL10DictionaryEv
fun:_ZNK5TROOT9LoadClassEPKcb
fun:_ZN6TClass8GetClassEPKcbb
}
{
root_jets_107
Memcheck:Leak
match-leak-kinds: possible
fun:_Znwm
fun:_ZNSs4_Rep9_S_createEmmRKSaIcE
fun:_ZNSs12_S_constructIPKcEEPcT_S3_RKSaIcESt20forward_iterator_tag
fun:_ZNSsC1EPKcRKSaIcE
fun:_ZN6TClass8AddClassEPS_
fun:_ZN6TClass4InitEPKcsPKSt9type_infoP16TVirtualIsAProxyPFvPvR16TMemberInspectorES1_S1_iib
fun:_ZN6TClassC1EPKcsRKSt9type_infoP16TVirtualIsAProxyPFvPvR16TMemberInspectorES1_S1_iib
fun:_ZN4ROOT11CreateClassEPKcsRKSt9type_infoP16TVirtualIsAProxyPFvPvR16TMemberInspectorES1_S1_ii
fun:_ZN4ROOT17TGenericClassInfo8GetClassEv
fun:_ZN12AliAODHeader10DictionaryEv
fun:_ZNK5TROOT9LoadClassEPKcb
fun:_ZN6TClass8GetClassEPKcbb
}
{
root_jets_108
Memcheck:Leak
match-leak-kinds: possible
fun:_Znwm
fun:_ZNSs4_Rep9_S_createEmmRKSaIcE
fun:_ZNSs12_S_constructIPKcEEPcT_S3_RKSaIcESt20forward_iterator_tag
fun:_ZNSsC1EPKcRKSaIcE
fun:_ZN6TClass8AddClassEPS_
fun:_ZN6TClass4InitEPKcsPKSt9type_infoP16TVirtualIsAProxyPFvPvR16TMemberInspectorES1_S1_iib
fun:_ZN6TClassC1EPKcsRKSt9type_infoP16TVirtualIsAProxyPFvPvR16TMemberInspectorES1_S1_iib
fun:_ZN4ROOT11CreateClassEPKcsRKSt9type_infoP16TVirtualIsAProxyPFvPvR16TMemberInspectorES1_S1_ii
fun:_ZN4ROOT17TGenericClassInfo8GetClassEv
fun:_ZN12TClonesArray10DictionaryEv
fun:_ZNK5TROOT9LoadClassEPKcb
fun:_ZN6TClass8GetClassEPKcbb
}
{
root_jets_109
Memcheck:Leak
match-leak-kinds: possible
fun:_Znwm
fun:_ZNSs4_Rep9_S_createEmmRKSaIcE
fun:_ZNSs12_S_constructIPKcEEPcT_S3_RKSaIcESt20forward_iterator_tag
fun:_ZNSsC1EPKcRKSaIcE
fun:_ZN6TClass8AddClassEPS_
fun:_ZN6TClass4InitEPKcsPKSt9type_infoP16TVirtualIsAProxyPFvPvR16TMemberInspectorES1_S1_iib
fun:_ZN6TClassC1EPKcsRKSt9type_infoP16TVirtualIsAProxyPFvPvR16TMemberInspectorES1_S1_iib
fun:_ZN4ROOT11CreateClassEPKcsRKSt9type_infoP16TVirtualIsAProxyPFvPvR16TMemberInspectorES1_S1_ii
fun:_ZN4ROOT17TGenericClassInfo8GetClassEv
fun:_ZN12AliVParticle10DictionaryEv
fun:_ZNK5TROOT9LoadClassEPKcb
fun:_ZN6TClass8GetClassEPKcbb
}
{
root_jets_110
Memcheck:Leak
match-leak-kinds: possible
fun:_Znwm
fun:_ZNSs4_Rep9_S_createEmmRKSaIcE
fun:_ZNSs12_S_constructIPKcEEPcT_S3_RKSaIcESt20forward_iterator_tag
fun:_ZNSsC1EPKcRKSaIcE
fun:_ZN6TClass8AddClassEPS_
fun:_ZN6TClass4InitEPKcsPKSt9type_infoP16TVirtualIsAProxyPFvPvR16TMemberInspectorES1_S1_iib
fun:_ZN6TClassC1EPKcsRKSt9type_infoP16TVirtualIsAProxyPFvPvR16TMemberInspectorES1_S1_iib
fun:_ZN4ROOT11CreateClassEPKcsRKSt9type_infoP16TVirtualIsAProxyPFvPvR16TMemberInspectorES1_S1_ii
fun:_ZN4ROOT17TGenericClassInfo8GetClassEv
fun:_ZN12AliAODVertex10DictionaryEv
fun:_ZNK5TROOT9LoadClassEPKcb
fun:_ZN6TClass8GetClassEPKcbb
}
{
root_jets_111
Memcheck:Leak
match-leak-kinds: possible
fun:_Znwm
fun:_ZNSs4_Rep9_S_createEmmRKSaIcE
fun:_ZNSs12_S_constructIPKcEEPcT_S3_RKSaIcESt20forward_iterator_tag
fun:_ZNSsC1EPKcRKSaIcE
fun:_ZN6TClass8AddClassEPS_
fun:_ZN6TClass4InitEPKcsPKSt9type_infoP16TVirtualIsAProxyPFvPvR16TMemberInspectorES1_S1_iib
fun:_ZN6TClassC1EPKcsRKSt9type_infoP16TVirtualIsAProxyPFvPvR16TMemberInspectorES1_S1_iib
fun:_ZN4ROOT11CreateClassEPKcsRKSt9type_infoP16TVirtualIsAProxyPFvPvR16TMemberInspectorES1_S1_ii
fun:_ZN4ROOT17TGenericClassInfo8GetClassEv
fun:_ZN12AliAODDimuon10DictionaryEv
fun:_ZNK5TROOT9LoadClassEPKcb
fun:_ZN6TClass8GetClassEPKcbb
}
{
root_jets_112
Memcheck:Leak
match-leak-kinds: possible
fun:_Znwm
fun:_ZNSs4_Rep9_S_createEmmRKSaIcE
fun:_ZNSs12_S_constructIPKcEEPcT_S3_RKSaIcESt20forward_iterator_tag
fun:_ZNSsC1EPKcRKSaIcE
fun:_ZN6TClass8AddClassEPS_
fun:_ZN6TClass4InitEPKcsPKSt9type_infoP16TVirtualIsAProxyPFvPvR16TMemberInspectorES1_S1_iib
fun:_ZN6TClassC1EPKcsRKSt9type_infoP16TVirtualIsAProxyPFvPvR16TMemberInspectorES1_S1_iib
fun:_ZN4ROOT11CreateClassEPKcsRKSt9type_infoP16TVirtualIsAProxyPFvPvR16TMemberInspectorES1_S1_ii
fun:_ZN4ROOT17TGenericClassInfo8GetClassEv
fun:_ZN12AliTOFHeader10DictionaryEv
fun:_ZNK5TROOT9LoadClassEPKcb
fun:_ZN6TClass8GetClassEPKcbb
}
{
root_jets_113
Memcheck:Leak
match-leak-kinds: possible
fun:_Znwm
fun:_ZNSs4_Rep9_S_createEmmRKSaIcE
fun:_ZNSs12_S_constructIPKcEEPcT_S3_RKSaIcESt20forward_iterator_tag
fun:_ZNSsC1EPKcRKSaIcE
fun:_ZN6TClass8AddClassEPS_
fun:_ZN6TClass4InitEPKcsPKSt9type_infoP16TVirtualIsAProxyPFvPvR16TMemberInspectorES1_S1_iib
fun:_ZN6TClassC1EPKcsRKSt9type_infoP16TVirtualIsAProxyPFvPvR16TMemberInspectorES1_S1_iib
fun:_ZN4ROOT11CreateClassEPKcsRKSt9type_infoP16TVirtualIsAProxyPFvPvR16TMemberInspectorES1_S1_ii
fun:_ZN4ROOT17TGenericClassInfo8GetClassEv
fun:_ZN12TLeafElement10DictionaryEv
fun:_ZNK5TROOT9LoadClassEPKcb
fun:_ZN6TClass8GetClassEPKcbb
}
{
root_jets_114
Memcheck:Leak
match-leak-kinds: possible
fun:_Znwm
fun:_ZNSs4_Rep9_S_createEmmRKSaIcE
fun:_ZNSs9_M_mutateEmmm
fun:_ZNSs15_M_replace_safeEmmPKcm
fun:_ZN19TGenCollectionProxyC1ERKN4ROOT20TCollectionProxyInfoEP6TClass
fun:_ZN23TCollectionProxyFactory16GenExplicitProxyERKN4ROOT20TCollectionProxyInfoEP6TClass
fun:_ZN6TClass18SetCollectionProxyERKN4ROOT20TCollectionProxyInfoE
fun:_ZN4ROOT17TGenericClassInfo8GetClassEv
fun:_ZNK5TROOT9LoadClassEPKcb
fun:_ZN6TClass8GetClassEPKcbb
fun:_ZN14TBuildRealData7InspectEP6TClassPKcS3_PKv
fun:_ZN9TRefTable11ShowMembersER16TMemberInspector
}
{
root_jets_115
Memcheck:Leak
match-leak-kinds: possible
fun:_Znwm
fun:_ZNSs4_Rep9_S_createEmmRKSaIcE
fun:_ZNSs12_S_constructIPKcEEPcT_S3_RKSaIcESt20forward_iterator_tag
fun:_ZNSsC1EPKcRKSaIcE
fun:_ZN6TClass8AddClassEPS_
fun:_ZN6TClass4InitEPKcsPKSt9type_infoP16TVirtualIsAProxyPFvPvR16TMemberInspectorES1_S1_iib
fun:_ZN6TClassC1EPKcsRKSt9type_infoP16TVirtualIsAProxyPFvPvR16TMemberInspectorES1_S1_iib
fun:_ZN7TQClassC1EPKcsRKSt9type_infoP16TVirtualIsAProxyPFvPvR16TMemberInspectorES1_S1_ii
fun:_ZNK4ROOT20TQObjectInitBehavior11CreateClassEPKcsRKSt9type_infoP16TVirtualIsAProxyPFvPvR16TMemberInspectorES2_S2_ii
fun:_ZN4ROOT17TGenericClassInfo8GetClassEv
fun:_ZN12TApplication10DictionaryEv
fun:_ZNK5TROOT9LoadClassEPKcb
}
{
root_jets_116
Memcheck:Leak
match-leak-kinds: possible
fun:_Znwm
fun:_ZN5TCint23CreateListOfBaseClassesEP6TClass
fun:_ZN6TClass14GetListOfBasesEv
fun:_ZN8TQObject23CollectClassSignalListsER5TListP6TClass
fun:_ZN8TQObject4EmitEPKc
fun:_ZN5TRintC1EPKcPiPPcPvib
fun:main
}
{
root_jets_117
Memcheck:Leak
match-leak-kinds: possible
fun:_Znwm
fun:_ZN5TCint23CreateListOfBaseClassesEP6TClass
fun:_ZN6TClass14GetListOfBasesEv
fun:_ZN8TQObject23CollectClassSignalListsER5TListP6TClass
fun:_ZN8TQObject4EmitEPKc
fun:_ZN5TRintC1EPKcPiPPcPvib
fun:main
}
{
root_jets_118
Memcheck:Leak
match-leak-kinds: possible
fun:_Znwm
fun:_ZNSs4_Rep9_S_createEmmRKSaIcE
fun:_ZNSs12_S_constructIPKcEEPcT_S3_RKSaIcESt20forward_iterator_tag
fun:_ZNSsC1EPKcRKSaIcE
fun:_ZN6TClass8AddClassEPS_
fun:_ZN6TClass4InitEPKcsPKSt9type_infoP16TVirtualIsAProxyPFvPvR16TMemberInspectorES1_S1_iib
fun:_ZN6TClassC1EPKcsRKSt9type_infoP16TVirtualIsAProxyPFvPvR16TMemberInspectorES1_S1_iib
fun:_ZN4ROOT11CreateClassEPKcsRKSt9type_infoP16TVirtualIsAProxyPFvPvR16TMemberInspectorES1_S1_ii
fun:_ZN4ROOT17TGenericClassInfo8GetClassEv
fun:_ZN13TStreamerInfo10DictionaryEv
fun:_ZNK5TROOT9LoadClassEPKcb
fun:_ZN6TClass8GetClassEPKcbb
}
{
root_jets_119
Memcheck:Leak
match-leak-kinds: possible
fun:_Znwm
fun:_ZNSs4_Rep9_S_createEmmRKSaIcE
fun:_ZNSs12_S_constructIPKcEEPcT_S3_RKSaIcESt20forward_iterator_tag
fun:_ZNSsC1EPKcRKSaIcE
fun:_ZN6TClass8AddClassEPS_
fun:_ZN6TClass4InitEPKcsPKSt9type_infoP16TVirtualIsAProxyPFvPvR16TMemberInspectorES1_S1_iib
fun:_ZN6TClassC1EPKcsRKSt9type_infoP16TVirtualIsAProxyPFvPvR16TMemberInspectorES1_S1_iib
fun:_ZN4ROOT11CreateClassEPKcsRKSt9type_infoP16TVirtualIsAProxyPFvPvR16TMemberInspectorES1_S1_ii
fun:_ZN4ROOT17TGenericClassInfo8GetClassEv
fun:_ZN13TStreamerBase10DictionaryEv
fun:_ZNK5TROOT9LoadClassEPKcb
fun:_ZN6TClass8GetClassEPKcbb
}
{
root_jets_120
Memcheck:Leak
match-leak-kinds: possible
fun:_Znwm
fun:_ZNSs4_Rep9_S_createEmmRKSaIcE
fun:_ZNSs12_S_constructIPKcEEPcT_S3_RKSaIcESt20forward_iterator_tag
fun:_ZNSsC1EPKcRKSaIcE
fun:_ZN6TClass8AddClassEPS_
fun:_ZN6TClass4InitEPKcsPKSt9type_infoP16TVirtualIsAProxyPFvPvR16TMemberInspectorES1_S1_iib
fun:_ZN6TClassC1EPKcsRKSt9type_infoP16TVirtualIsAProxyPFvPvR16TMemberInspectorES1_S1_iib
fun:_ZN4ROOT11CreateClassEPKcsRKSt9type_infoP16TVirtualIsAProxyPFvPvR16TMemberInspectorES1_S1_ii
fun:_ZN4ROOT17TGenericClassInfo8GetClassEv
fun:_ZN13TStreamerLoop10DictionaryEv
fun:_ZNK5TROOT9LoadClassEPKcb
fun:_ZN6TClass8GetClassEPKcbb
}
{
root_jets_121
Memcheck:Leak
match-leak-kinds: possible
fun:_Znwm
fun:_ZNSs4_Rep9_S_createEmmRKSaIcE
fun:_ZNSs12_S_constructIPKcEEPcT_S3_RKSaIcESt20forward_iterator_tag
fun:_ZNSsC1EPKcRKSaIcE
fun:_ZN6TClass8AddClassEPS_
fun:_ZN6TClass4InitEPKcsPKSt9type_infoP16TVirtualIsAProxyPFvPvR16TMemberInspectorES1_S1_iib
fun:_ZN6TClassC1EPKcsRKSt9type_infoP16TVirtualIsAProxyPFvPvR16TMemberInspectorES1_S1_iib
fun:_ZN4ROOT11CreateClassEPKcsRKSt9type_infoP16TVirtualIsAProxyPFvPvR16TMemberInspectorES1_S1_ii
fun:_ZN4ROOT17TGenericClassInfo8GetClassEv
fun:_ZN13AliCentrality10DictionaryEv
fun:_ZNK5TROOT9LoadClassEPKcb
fun:_ZN6TClass8GetClassEPKcbb
}
{
root_jets_122
Memcheck:Leak
match-leak-kinds: possible
fun:_Znwm
fun:_ZNSs4_Rep9_S_createEmmRKSaIcE
fun:_ZNSs12_S_constructIPKcEEPcT_S3_RKSaIcESt20forward_iterator_tag
fun:_ZNSsC1EPKcRKSaIcE
fun:_ZN6TClass8AddClassEPS_
fun:_ZN6TClass4InitEPKcsPKSt9type_infoP16TVirtualIsAProxyPFvPvR16TMemberInspectorES1_S1_iib
fun:_ZN6TClassC1EPKcsRKSt9type_infoP16TVirtualIsAProxyPFvPvR16TMemberInspectorES1_S1_iib
fun:_ZN4ROOT11CreateClassEPKcsRKSt9type_infoP16TVirtualIsAProxyPFvPvR16TMemberInspectorES1_S1_ii
fun:_ZN4ROOT17TGenericClassInfo8GetClassEv
fun:_ZN13AliEventplane10DictionaryEv
fun:_ZNK5TROOT9LoadClassEPKcb
fun:_ZN6TClass8GetClassEPKcbb
}
{
root_jets_123
Memcheck:Leak
match-leak-kinds: possible
fun:_Znwm
fun:_ZNSs4_Rep9_S_createEmmRKSaIcE
fun:_ZNSs12_S_constructIPKcEEPcT_S3_RKSaIcESt20forward_iterator_tag
fun:_ZNSsC1EPKcRKSaIcE
fun:_ZN6TClass8AddClassEPS_
fun:_ZN6TClass4InitEPKcsPKSt9type_infoP16TVirtualIsAProxyPFvPvR16TMemberInspectorES1_S1_iib
fun:_ZN6TClassC1EPKcsRKSt9type_infoP16TVirtualIsAProxyPFvPvR16TMemberInspectorES1_S1_iib
fun:_ZN4ROOT11CreateClassEPKcsRKSt9type_infoP16TVirtualIsAProxyPFvPvR16TMemberInspectorES1_S1_ii
fun:_ZN4ROOT17TGenericClassInfo8GetClassEv
fun:_ZN13AliAODcascade10DictionaryEv
fun:_ZNK5TROOT9LoadClassEPKcb
fun:_ZN6TClass8GetClassEPKcbb
}
{
root_jets_124
Memcheck:Leak
match-leak-kinds: possible
fun:_Znwm
fun:_ZNSs4_Rep9_S_createEmmRKSaIcE
fun:_ZNSs12_S_constructIPKcEEPcT_S3_RKSaIcESt20forward_iterator_tag
fun:_ZNSsC1EPKcRKSaIcE
fun:_ZN6TClass8AddClassEPS_
fun:_ZN6TClass4InitEPKcsPKSt9type_infoP16TVirtualIsAProxyPFvPvR16TMemberInspectorES1_S1_iib
fun:_ZN6TClassC1EPKcsRKSt9type_infoP16TVirtualIsAProxyPFvPvR16TMemberInspectorES1_S1_iib
fun:_ZN4ROOT11CreateClassEPKcsRKSt9type_infoP16TVirtualIsAProxyPFvPvR16TMemberInspectorES1_S1_ii
fun:_ZN4ROOT17TGenericClassInfo8GetClassEv
fun:_ZN13AliVCaloCells10DictionaryEv
fun:_ZNK5TROOT9LoadClassEPKcb
fun:_ZN6TClass8GetClassEPKcbb
}
{
root_jets_125
Memcheck:Leak
match-leak-kinds: possible
fun:_Znwm
fun:_ZNSs4_Rep9_S_createEmmRKSaIcE
fun:_ZNSs12_S_constructIPKcEEPcT_S3_RKSaIcESt20forward_iterator_tag
fun:_ZNSsC1EPKcRKSaIcE
fun:_ZN6TClass8AddClassEPS_
fun:_ZN6TClass4InitEPKcsPKSt9type_infoP16TVirtualIsAProxyPFvPvR16TMemberInspectorES1_S1_iib
fun:_ZN6TClassC1EPKcsRKSt9type_infoP16TVirtualIsAProxyPFvPvR16TMemberInspectorES1_S1_iib
fun:_ZN4ROOT11CreateClassEPKcsRKSt9type_infoP16TVirtualIsAProxyPFvPvR16TMemberInspectorES1_S1_ii
fun:_ZN4ROOT17TGenericClassInfo8GetClassEv
fun:_ZN13AliAODCluster10DictionaryEv
fun:_ZNK5TROOT9LoadClassEPKcb
fun:_ZN6TClass8GetClassEPKcbb
}
{
root_jets_126
Memcheck:Leak
match-leak-kinds: possible
fun:_Znwm
fun:_ZNSs4_Rep9_S_createEmmRKSaIcE
fun:_ZNSs12_S_constructIPKcEEPcT_S3_RKSaIcESt20forward_iterator_tag
fun:_ZNSsC1EPKcRKSaIcE
fun:_ZN6TClass8AddClassEPS_
fun:_ZN6TClass4InitEPKcsPKSt9type_infoP16TVirtualIsAProxyPFvPvR16TMemberInspectorES1_S1_iib
fun:_ZN6TClassC1EPKcsRKSt9type_infoP16TVirtualIsAProxyPFvPvR16TMemberInspectorES1_S1_iib
fun:_ZN4ROOT11CreateClassEPKcsRKSt9type_infoP16TVirtualIsAProxyPFvPvR16TMemberInspectorES1_S1_ii
fun:_ZN4ROOT17TGenericClassInfo8GetClassEv
fun:_ZN13AliESDpidCuts10DictionaryEv
fun:_ZNK5TROOT9LoadClassEPKcb
fun:_ZN6TClass8GetClassEPKcbb
}
{
root_jets_127
Memcheck:Leak
match-leak-kinds: possible
fun:_Znwm
fun:_ZNSs4_Rep9_S_createEmmRKSaIcE
fun:_ZNSs12_S_constructIPKcEEPcT_S3_RKSaIcESt20forward_iterator_tag
fun:_ZNSsC1EPKcRKSaIcE
fun:_ZN6TClass8AddClassEPS_
fun:_ZN6TClass4InitEPKcsPKSt9type_infoP16TVirtualIsAProxyPFvPvR16TMemberInspectorES1_S1_iib
fun:_ZN6TClassC1EPKcsRKSt9type_infoP16TVirtualIsAProxyPFvPvR16TMemberInspectorES1_S1_iib
fun:_ZN4ROOT11CreateClassEPKcsRKSt9type_infoP16TVirtualIsAProxyPFvPvR16TMemberInspectorES1_S1_ii
fun:_ZN4ROOT17TGenericClassInfo8GetClassEv
fun:_ZNK5TROOT9LoadClassEPKcb
fun:_ZN6TClass8GetClassEPKcbb
fun:_ZN13TStreamerInfo10BuildCheckEv
}
{
root_jets_128
Memcheck:Leak
match-leak-kinds: possible
fun:_Znwm
fun:_ZNSs4_Rep9_S_createEmmRKSaIcE
fun:_ZNSs12_S_constructIPKcEEPcT_S3_RKSaIcESt20forward_iterator_tag
fun:_ZNSsC1EPKcRKSaIcE
fun:_ZN6TClass8AddClassEPS_
fun:_ZN6TClass4InitEPKcsPKSt9type_infoP16TVirtualIsAProxyPFvPvR16TMemberInspectorES1_S1_iib
fun:_ZN6TClassC1EPKcsRKSt9type_infoP16TVirtualIsAProxyPFvPvR16TMemberInspectorES1_S1_iib
fun:_ZN4ROOT11CreateClassEPKcsRKSt9type_infoP16TVirtualIsAProxyPFvPvR16TMemberInspectorES1_S1_ii
fun:_ZN4ROOT17TGenericClassInfo8GetClassEv
fun:_ZN13TVirtualIndex10DictionaryEv
fun:_ZNK5TROOT9LoadClassEPKcb
fun:_ZN6TClass8GetClassEPKcbb
}
{
root_jets_129
Memcheck:Leak
match-leak-kinds: possible
fun:_Znwm
fun:_ZN5TCint23CreateListOfBaseClassesEP6TClass
fun:_ZN6TClass14GetListOfBasesEv
fun:_ZN8TQObject23CollectClassSignalListsER5TListP6TClass
fun:_ZN8TQObject4EmitEPKcl
fun:_ZN12TApplication9TerminateEi
fun:_ZN5TRint3RunEb
fun:main
}
{
root_jets_130
Memcheck:Leak
match-leak-kinds: possible
fun:_Znwm
fun:_ZNSs4_Rep9_S_createEmmRKSaIcE
fun:_ZNSs12_S_constructIPKcEEPcT_S3_RKSaIcESt20forward_iterator_tag
fun:_ZNSsC1EPKcRKSaIcE
fun:_ZN6TClass8AddClassEPS_
fun:_ZN6TClass4InitEPKcsPKSt9type_infoP16TVirtualIsAProxyPFvPvR16TMemberInspectorES1_S1_iib
fun:_ZN6TClassC1EPKcsRKSt9type_infoP16TVirtualIsAProxyPFvPvR16TMemberInspectorES1_S1_iib
fun:_ZN7TQClassC1EPKcsRKSt9type_infoP16TVirtualIsAProxyPFvPvR16TMemberInspectorES1_S1_ii
fun:_ZNK4ROOT20TQObjectInitBehavior11CreateClassEPKcsRKSt9type_infoP16TVirtualIsAProxyPFvPvR16TMemberInspectorES2_S2_ii
fun:_ZN4ROOT17TGenericClassInfo8GetClassEv
fun:_ZN14TSignalHandler5ClassEv
fun:_ZN8TQObject4EmitEPKc
}
{
root_jets_131
Memcheck:Leak
match-leak-kinds: possible
fun:_Znwm
fun:_ZNSs4_Rep9_S_createEmmRKSaIcE
fun:_ZNSs12_S_constructIPKcEEPcT_S3_RKSaIcESt20forward_iterator_tag
fun:_ZNSsC1EPKcRKSaIcE
fun:_ZN6TClass8AddClassEPS_
fun:_ZN6TClass4InitEPKcsPKSt9type_infoP16TVirtualIsAProxyPFvPvR16TMemberInspectorES1_S1_iib
fun:_ZN6TClassC1EPKcsRKSt9type_infoP16TVirtualIsAProxyPFvPvR16TMemberInspectorES1_S1_iib
fun:_ZN7TQClassC1EPKcsRKSt9type_infoP16TVirtualIsAProxyPFvPvR16TMemberInspectorES1_S1_ii
fun:_ZNK4ROOT20TQObjectInitBehavior11CreateClassEPKcsRKSt9type_infoP16TVirtualIsAProxyPFvPvR16TMemberInspectorES2_S2_ii
fun:_ZN4ROOT17TGenericClassInfo8GetClassEv
fun:_ZN14TSysEvtHandler10DictionaryEv
fun:_ZNK5TROOT9LoadClassEPKcb
}
{
root_jets_132
Memcheck:Leak
match-leak-kinds: possible
fun:_Znwm
fun:_ZNSs4_Rep9_S_createEmmRKSaIcE
fun:_ZNSs12_S_constructIPKcEEPcT_S3_RKSaIcESt20forward_iterator_tag
fun:_ZNSsC1EPKcRKSaIcE
fun:_ZN6TClass8AddClassEPS_
fun:_ZN6TClass4InitEPKcsPKSt9type_infoP16TVirtualIsAProxyPFvPvR16TMemberInspectorES1_S1_iib
fun:_ZN6TClassC1EPKcsRKSt9type_infoP16TVirtualIsAProxyPFvPvR16TMemberInspectorES1_S1_iib
fun:_ZN4ROOT11CreateClassEPKcsRKSt9type_infoP16TVirtualIsAProxyPFvPvR16TMemberInspectorES1_S1_ii
fun:_ZN4ROOT17TGenericClassInfo8GetClassEv
fun:_ZN14TSeqCollection10DictionaryEv
fun:_ZNK5TROOT9LoadClassEPKcb
fun:_ZN6TClass8GetClassEPKcbb
}
{
root_jets_133
Memcheck:Leak
match-leak-kinds: possible
fun:_Znwm
fun:_ZNSs4_Rep9_S_createEmmRKSaIcE
fun:_ZNSs12_S_constructIPKcEEPcT_S3_RKSaIcESt20forward_iterator_tag
fun:_ZNSsC1EPKcRKSaIcE
fun:_ZN6TClass8AddClassEPS_
fun:_ZN6TClass4InitEPKcsPKSt9type_infoP16TVirtualIsAProxyPFvPvR16TMemberInspectorES1_S1_iib
fun:_ZN6TClassC1EPKcsRKSt9type_infoP16TVirtualIsAProxyPFvPvR16TMemberInspectorES1_S1_iib
fun:_ZN4ROOT11CreateClassEPKcsRKSt9type_infoP16TVirtualIsAProxyPFvPvR16TMemberInspectorES1_S1_ii
fun:_ZN4ROOT17TGenericClassInfo8GetClassEv
fun:_ZN14TDirectoryFile5ClassEv
fun:_ZN4TKey17ReadObjWithBufferEPc
fun:_ZN5TFile19GetStreamerInfoListEv
}
{
root_jets_134
Memcheck:Leak
match-leak-kinds: possible
fun:_Znwm
fun:_ZNSs4_Rep9_S_createEmmRKSaIcE
fun:_ZNSs12_S_constructIPKcEEPcT_S3_RKSaIcESt20forward_iterator_tag
fun:_ZNSsC1EPKcRKSaIcE
fun:_ZN6TClass8AddClassEPS_
fun:_ZN6TClass4InitEPKcsPKSt9type_infoP16TVirtualIsAProxyPFvPvR16TMemberInspectorES1_S1_iib
fun:_ZN6TClassC1EPKcsRKSt9type_infoP16TVirtualIsAProxyPFvPvR16TMemberInspectorES1_S1_iib
fun:_ZN4ROOT11CreateClassEPKcsRKSt9type_infoP16TVirtualIsAProxyPFvPvR16TMemberInspectorES1_S1_ii
fun:_ZN4ROOT17TGenericClassInfo8GetClassEv
fun:_ZN14AliTPCdEdxInfo10DictionaryEv
fun:_ZNK5TROOT9LoadClassEPKcb
fun:_ZN6TClass8GetClassEPKcbb
}
{
root_jets_135
Memcheck:Leak
match-leak-kinds: possible
fun:_Znwm
fun:_ZNSs4_Rep9_S_createEmmRKSaIcE
fun:_ZNSs12_S_constructIPKcEEPcT_S3_RKSaIcESt20forward_iterator_tag
fun:_ZNSsC1EPKcRKSaIcE
fun:_ZN6TClass8AddClassEPS_
fun:_ZN6TClass4InitEPKcsPKSt9type_infoP16TVirtualIsAProxyPFvPvR16TMemberInspectorES1_S1_iib
fun:_ZN6TClassC1EPKcsRKSt9type_infoP16TVirtualIsAProxyPFvPvR16TMemberInspectorES1_S1_iib
fun:_ZN4ROOT11CreateClassEPKcsRKSt9type_infoP16TVirtualIsAProxyPFvPvR16TMemberInspectorES1_S1_ii
fun:_ZN4ROOT17TGenericClassInfo8GetClassEv
fun:_ZN14TLorentzVector10DictionaryEv
fun:_ZNK5TROOT9LoadClassEPKcb
fun:_ZN6TClass8GetClassEPKcbb
}
{
root_jets_136
Memcheck:Leak
match-leak-kinds: possible
fun:_Znwm
fun:_ZNSs4_Rep9_S_createEmmRKSaIcE
fun:_ZNSs12_S_constructIPKcEEPcT_S3_RKSaIcESt20forward_iterator_tag
fun:_ZNSsC1EPKcRKSaIcE
fun:_ZN6TClass8AddClassEPS_
fun:_ZN6TClass4InitEPKcsPKSt9type_infoP16TVirtualIsAProxyPFvPvR16TMemberInspectorES1_S1_iib
fun:_ZN6TClassC1EPKcsRKSt9type_infoP16TVirtualIsAProxyPFvPvR16TMemberInspectorES1_S1_iib
fun:_ZN4ROOT11CreateClassEPKcsRKSt9type_infoP16TVirtualIsAProxyPFvPvR16TMemberInspectorES1_S1_ii
fun:_ZN4ROOT17TGenericClassInfo8GetClassEv
fun:_ZN14AliAODMCHeader10DictionaryEv
fun:_ZNK5TROOT9LoadClassEPKcb
fun:_ZN6TClass8GetClassEPKcbb
}
{
root_jets_137
Memcheck:Leak
match-leak-kinds: possible
fun:_Znwm
fun:_ZNSs4_Rep9_S_createEmmRKSaIcE
fun:_ZNSs12_S_constructIPKcEEPcT_S3_RKSaIcESt20forward_iterator_tag
fun:_ZNSsC1EPKcRKSaIcE
fun:_ZN6TClass8AddClassEPS_
fun:_ZN6TClass4InitEPKcsPKSt9type_infoP16TVirtualIsAProxyPFvPvR16TMemberInspectorES1_S1_iib
fun:_ZN6TClassC1EPKcsRKSt9type_infoP16TVirtualIsAProxyPFvPvR16TMemberInspectorES1_S1_iib
fun:_ZN4ROOT11CreateClassEPKcsRKSt9type_infoP16TVirtualIsAProxyPFvPvR16TMemberInspectorES1_S1_ii
fun:_ZN4ROOT17TGenericClassInfo8GetClassEv
fun:_ZN14TBranchElement10DictionaryEv
fun:_ZNK5TROOT9LoadClassEPKcb
fun:_ZN6TClass8GetClassEPKcbb
}
{
root_jets_138
Memcheck:Leak
match-leak-kinds: possible
fun:_Znwm
fun:_ZNSs4_Rep9_S_createEmmRKSaIcE
fun:_ZNSs9_M_mutateEmmm
fun:_ZNSs15_M_replace_safeEmmPKcm
fun:_ZN9TClassRef6AssignEP6TClass
fun:_ZN4ROOT14TSchemaRuleSet8SetClassEP6TClass
fun:_ZN6TClass14GetSchemaRulesEb
fun:_ZN6TClass7AddRuleEPKc
fun:_ZNK6TClass31GetStreamerInfoAbstractEmulatedEi
fun:_ZN6TClass21BuildEmulatedRealDataEPKclPS_
fun:_ZN6TClass21BuildEmulatedRealDataEPKclPS_
fun:_ZN6TClass21BuildEmulatedRealDataEPKclPS_
}
{
root_jets_139
Memcheck:Leak
match-leak-kinds: possible
fun:_Znwm
fun:_ZNSs4_Rep9_S_createEmmRKSaIcE
fun:_ZNSs12_S_constructIPKcEEPcT_S3_RKSaIcESt20forward_iterator_tag
fun:_ZNSsC1EPKcRKSaIcE
fun:_ZN6TClass8AddClassEPS_
fun:_ZN6TClass4InitEPKcsPKSt9type_infoP16TVirtualIsAProxyPFvPvR16TMemberInspectorES1_S1_iib
fun:_ZN6TClassC1EPKcsRKSt9type_infoP16TVirtualIsAProxyPFvPvR16TMemberInspectorES1_S1_iib
fun:_ZN4ROOT11CreateClassEPKcsRKSt9type_infoP16TVirtualIsAProxyPFvPvR16TMemberInspectorES1_S1_ii
fun:_ZN4ROOT17TGenericClassInfo8GetClassEv
fun:_ZN15TStreamerObject10DictionaryEv
fun:_ZNK5TROOT9LoadClassEPKcb
fun:_ZN6TClass8GetClassEPKcbb
}
{
root_jets_140
Memcheck:Leak
match-leak-kinds: possible
fun:_Znwm
fun:_ZNSs4_Rep9_S_createEmmRKSaIcE
fun:_ZNSs12_S_constructIPKcEEPcT_S3_RKSaIcESt20forward_iterator_tag
fun:_ZNSsC1EPKcRKSaIcE
fun:_ZN6TClass8AddClassEPS_
fun:_ZN6TClass4InitEPKcsPKSt9type_infoP16TVirtualIsAProxyPFvPvR16TMemberInspectorES1_S1_iib
fun:_ZN6TClassC1EPKcsRKSt9type_infoP16TVirtualIsAProxyPFvPvR16TMemberInspectorES1_S1_iib
fun:_ZN4ROOT11CreateClassEPKcsRKSt9type_infoP16TVirtualIsAProxyPFvPvR16TMemberInspectorES1_S1_ii
fun:_ZN4ROOT17TGenericClassInfo8GetClassEv
fun:_ZN15TStreamerString10DictionaryEv
fun:_ZNK5TROOT9LoadClassEPKcb
fun:_ZN6TClass8GetClassEPKcbb
}
{
root_jets_141
Memcheck:Leak
match-leak-kinds: possible
fun:_Znwm
fun:_ZNSs4_Rep9_S_createEmmRKSaIcE
fun:_ZNSs12_S_constructIPKcEEPcT_S3_RKSaIcESt20forward_iterator_tag
fun:_ZNSsC1EPKcRKSaIcE
fun:_ZN6TClass8AddClassEPS_
fun:_ZN6TClass4InitEPKcsPKSt9type_infoP16TVirtualIsAProxyPFvPvR16TMemberInspectorES1_S1_iib
fun:_ZN6TClassC1EPKcsRKSt9type_infoP16TVirtualIsAProxyPFvPvR16TMemberInspectorES1_S1_iib
fun:_ZN4ROOT11CreateClassEPKcsRKSt9type_infoP16TVirtualIsAProxyPFvPvR16TMemberInspectorES1_S1_ii
fun:_ZN4ROOT17TGenericClassInfo8GetClassEv
fun:_ZN15AliAODRecoDecay10DictionaryEv
fun:_ZNK5TROOT9LoadClassEPKcb
fun:_ZN6TClass8GetClassEPKcbb
}
{
root_jets_142
Memcheck:Leak
match-leak-kinds: possible
fun:_Znwm
fun:_ZNSs4_Rep9_S_createEmmRKSaIcE
fun:_ZNSs12_S_constructIPKcEEPcT_S3_RKSaIcESt20forward_iterator_tag
fun:_ZNSsC1EPKcRKSaIcE
fun:_ZN6TClass8AddClassEPS_
fun:_ZN6TClass4InitEPKcsPKSt9type_infoP16TVirtualIsAProxyPFvPvR16TMemberInspectorES1_S1_iib
fun:_ZN6TClassC1EPKcsRKSt9type_infoP16TVirtualIsAProxyPFvPvR16TMemberInspectorES1_S1_iib
fun:_ZN4ROOT11CreateClassEPKcsRKSt9type_infoP16TVirtualIsAProxyPFvPvR16TMemberInspectorES1_S1_ii
fun:_ZN4ROOT17TGenericClassInfo8GetClassEv
fun:_ZN15AliAODTracklets10DictionaryEv
fun:_ZNK5TROOT9LoadClassEPKcb
fun:_ZN6TClass8GetClassEPKcbb
}
{
root_jets_143
Memcheck:Leak
match-leak-kinds: possible
fun:_Znwm
fun:_ZNSs4_Rep9_S_createEmmRKSaIcE
fun:_ZNSs12_S_constructIPKcEEPcT_S3_RKSaIcESt20forward_iterator_tag
fun:_ZNSsC1EPKcRKSaIcE
fun:_ZN6TClass8AddClassEPS_
fun:_ZN6TClass4InitEPKcsPKSt9type_infoP16TVirtualIsAProxyPFvPvR16TMemberInspectorES1_S1_iib
fun:_ZN6TClassC1EPKcsRKSt9type_infoP16TVirtualIsAProxyPFvPvR16TMemberInspectorES1_S1_iib
fun:_ZN4ROOT11CreateClassEPKcsRKSt9type_infoP16TVirtualIsAProxyPFvPvR16TMemberInspectorES1_S1_ii
fun:_ZN4ROOT17TGenericClassInfo8GetClassEv
fun:_ZN15AliAODCaloCells10DictionaryEv
fun:_ZNK5TROOT9LoadClassEPKcb
fun:_ZN6TClass8GetClassEPKcbb
}
{
root_jets_144
Memcheck:Leak
match-leak-kinds: possible
fun:_Znwm
fun:_ZNSs4_Rep9_S_createEmmRKSaIcE
fun:_ZNSs12_S_constructIPKcEEPcT_S3_RKSaIcESt20forward_iterator_tag
fun:_ZNSsC1EPKcRKSaIcE
fun:_ZN6TClass8AddClassEPS_
fun:_ZN6TClass4InitEPKcsPKSt9type_infoP16TVirtualIsAProxyPFvPvR16TMemberInspectorES1_S1_iib
fun:_ZN6TClassC1EPKcsRKSt9type_infoP16TVirtualIsAProxyPFvPvR16TMemberInspectorES1_S1_iib
fun:_ZN4ROOT11CreateClassEPKcsRKSt9type_infoP16TVirtualIsAProxyPFvPvR16TMemberInspectorES1_S1_ii
fun:_ZN4ROOT17TGenericClassInfo8GetClassEv
fun:_ZN15AliVCaloTrigger10DictionaryEv
fun:_ZNK5TROOT9LoadClassEPKcb
fun:_ZN6TClass8GetClassEPKcbb
}
{
root_jets_145
Memcheck:Leak
match-leak-kinds: possible
fun:_Znwm
fun:_ZNSs4_Rep9_S_createEmmRKSaIcE
fun:_ZNSs12_S_constructIPKcEEPcT_S3_RKSaIcESt20forward_iterator_tag
fun:_ZNSsC1EPKcRKSaIcE
fun:_ZN6TClass8AddClassEPS_
fun:_ZN6TClass4InitEPKcsPKSt9type_infoP16TVirtualIsAProxyPFvPvR16TMemberInspectorES1_S1_iib
fun:_ZN6TClassC1EPKcsRKSt9type_infoP16TVirtualIsAProxyPFvPvR16TMemberInspectorES1_S1_iib
fun:_ZN4ROOT11CreateClassEPKcsRKSt9type_infoP16TVirtualIsAProxyPFvPvR16TMemberInspectorES1_S1_ii
fun:_ZN4ROOT17TGenericClassInfo8GetClassEv
fun:_ZN15AliESDtrackCuts10DictionaryEv
fun:_ZNK5TROOT9LoadClassEPKcb
fun:_ZN6TClass8GetClassEPKcbb
}
{
root_jets_146
Memcheck:Leak
match-leak-kinds: possible
fun:_Znwm
fun:_ZNSs4_Rep9_S_createEmmRKSaIcE
fun:_ZNSs12_S_constructIPKcEEPcT_S3_RKSaIcESt20forward_iterator_tag
fun:_ZNSsC1EPKcRKSaIcE
fun:_ZN6TClass8AddClassEPS_
fun:_ZN6TClass4InitEPKcsPKSt9type_infoP16TVirtualIsAProxyPFvPvR16TMemberInspectorES1_S1_iib
fun:_ZN6TClassC1EPKcsRKSt9type_infoP16TVirtualIsAProxyPFvPvR16TMemberInspectorES1_S1_iib
fun:_ZN4ROOT11CreateClassEPKcsRKSt9type_infoP16TVirtualIsAProxyPFvPvR16TMemberInspectorES1_S1_ii
fun:_ZN4ROOT17TGenericClassInfo8GetClassEv
fun:_ZN15AliAnalysisCuts10DictionaryEv
fun:_ZNK5TROOT9LoadClassEPKcb
fun:_ZN6TClass8GetClassEPKcbb
}
{
root_jets_147
Memcheck:Leak
match-leak-kinds: possible
fun:_Znwm
fun:_ZNSs4_Rep9_S_createEmmRKSaIcE
fun:_ZNSs12_S_constructIPKcEEPcT_S3_RKSaIcESt20forward_iterator_tag
fun:_ZNSsC1EPKcRKSaIcE
fun:_ZN6TClass8AddClassEPS_
fun:_ZN6TClass4InitEPKcsPKSt9type_infoP16TVirtualIsAProxyPFvPvR16TMemberInspectorES1_S1_iib
fun:_ZN6TClassC1EPKcsRKSt9type_infoP16TVirtualIsAProxyPFvPvR16TMemberInspectorES1_S1_iib
fun:_ZN7TQClassC1EPKcsRKSt9type_infoP16TVirtualIsAProxyPFvPvR16TMemberInspectorES1_S1_ii
fun:_ZNK4ROOT20TQObjectInitBehavior11CreateClassEPKcsRKSt9type_infoP16TVirtualIsAProxyPFvPvR16TMemberInspectorES2_S2_ii
fun:_ZN4ROOT17TGenericClassInfo8GetClassEv
fun:_ZN15TMessageHandler5ClassEv
fun:_ZN8TQObject4EmitEPKc
}
{
root_jets_148
Memcheck:Leak
match-leak-kinds: possible
fun:_Znwm
fun:_ZNSs4_Rep9_S_createEmmRKSaIcE
fun:_ZNSs12_S_constructIPKcEEPcT_S3_RKSaIcESt20forward_iterator_tag
fun:_ZNSsC1EPKcRKSaIcE
fun:_ZN6TClass8AddClassEPS_
fun:_ZN6TClass4InitEPKcsPKSt9type_infoP16TVirtualIsAProxyPFvPvR16TMemberInspectorES1_S1_iib
fun:_ZN6TClassC1EPKcsRKSt9type_infoP16TVirtualIsAProxyPFvPvR16TMemberInspectorES1_S1_iib
fun:_ZN4ROOT11CreateClassEPKcsRKSt9type_infoP16TVirtualIsAProxyPFvPvR16TMemberInspectorES1_S1_ii
fun:_ZN4ROOT17TGenericClassInfo8GetClassEv
fun:_ZN16TStreamerElement5ClassEv
fun:_ZN13TStreamerInfo5BuildEv
fun:_ZN11TBufferFile15ReadClassBufferEPK6TClassPvS2_
}
{
root_jets_149
Memcheck:Leak
match-leak-kinds: possible
fun:_Znwm
fun:_ZNSs4_Rep9_S_createEmmRKSaIcE
fun:_ZNSs12_S_constructIPKcEEPcT_S3_RKSaIcESt20forward_iterator_tag
fun:_ZNSsC1EPKcRKSaIcE
fun:_ZN6TClass8AddClassEPS_
fun:_ZN6TClass4InitEPKcsPKSt9type_infoP16TVirtualIsAProxyPFvPvR16TMemberInspectorES1_S1_iib
fun:_ZN6TClassC1EPKcsRKSt9type_infoP16TVirtualIsAProxyPFvPvR16TMemberInspectorES1_S1_iib
fun:_ZN4ROOT11CreateClassEPKcsRKSt9type_infoP16TVirtualIsAProxyPFvPvR16TMemberInspectorES1_S1_ii
fun:_ZN4ROOT17TGenericClassInfo8GetClassEv
fun:_ZN16AliAODFmdCluster10DictionaryEv
fun:_ZNK5TROOT9LoadClassEPKcb
fun:_ZN6TClass8GetClassEPKcbb
}
{
root_jets_150
Memcheck:Leak
match-leak-kinds: possible
fun:_Znwm
fun:_ZNSs4_Rep9_S_createEmmRKSaIcE
fun:_ZNSs12_S_constructIPKcEEPcT_S3_RKSaIcESt20forward_iterator_tag
fun:_ZNSsC1EPKcRKSaIcE
fun:_ZN6TClass8AddClassEPS_
fun:_ZN6TClass4InitEPKcsPKSt9type_infoP16TVirtualIsAProxyPFvPvR16TMemberInspectorES1_S1_iib
fun:_ZN6TClassC1EPKcsRKSt9type_infoP16TVirtualIsAProxyPFvPvR16TMemberInspectorES1_S1_iib
fun:_ZN4ROOT11CreateClassEPKcsRKSt9type_infoP16TVirtualIsAProxyPFvPvR16TMemberInspectorES1_S1_ii
fun:_ZN4ROOT17TGenericClassInfo8GetClassEv
fun:_ZN16AliAODPmdCluster10DictionaryEv
fun:_ZNK5TROOT9LoadClassEPKcb
fun:_ZN6TClass8GetClassEPKcbb
}
{
root_jets_151
Memcheck:Leak
match-leak-kinds: possible
fun:_Znwm
fun:_ZNSs4_Rep9_S_createEmmRKSaIcE
fun:_ZNSs12_S_constructIPKcEEPcT_S3_RKSaIcESt20forward_iterator_tag
fun:_ZNSsC1EPKcRKSaIcE
fun:_ZN6TClass8AddClassEPS_
fun:_ZN6TClass4InitEPKcsPKSt9type_infoP16TVirtualIsAProxyPFvPvR16TMemberInspectorES1_S1_iib
fun:_ZN6TClassC1EPKcsRKSt9type_infoP16TVirtualIsAProxyPFvPvR16TMemberInspectorES1_S1_iib
fun:_ZN4ROOT11CreateClassEPKcsRKSt9type_infoP16TVirtualIsAProxyPFvPvR16TMemberInspectorES1_S1_ii
fun:_ZN4ROOT17TGenericClassInfo8GetClassEv
fun:_ZN16AliAODHMPIDrings10DictionaryEv
fun:_ZNK5TROOT9LoadClassEPKcb
fun:_ZN6TClass8GetClassEPKcbb
}
{
root_jets_152
Memcheck:Leak
match-leak-kinds: possible
fun:_Znwm
fun:_ZNSs4_Rep9_S_createEmmRKSaIcE
fun:_ZNSs12_S_constructIPKcEEPcT_S3_RKSaIcESt20forward_iterator_tag
fun:_ZNSsC1EPKcRKSaIcE
fun:_ZN6TClass8AddClassEPS_
fun:_ZN6TClass4InitEPKcsPKSt9type_infoP16TVirtualIsAProxyPFvPvR16TMemberInspectorES1_S1_iib
fun:_ZN6TClassC1EPKcsRKSt9type_infoP16TVirtualIsAProxyPFvPvR16TMemberInspectorES1_S1_iib
fun:_ZN4ROOT11CreateClassEPKcsRKSt9type_infoP16TVirtualIsAProxyPFvPvR16TMemberInspectorES1_S1_ii
fun:_ZN4ROOT17TGenericClassInfo8GetClassEv
fun:_ZN16AliAODMCParticle10DictionaryEv
fun:_ZNK5TROOT9LoadClassEPKcb
fun:_ZN6TClass8GetClassEPKcbb
}
{
root_jets_153
Memcheck:Leak
match-leak-kinds: possible
fun:_Znwm
fun:_ZNSs4_Rep9_S_createEmmRKSaIcE
fun:_ZNSs12_S_constructIPKcEEPcT_S3_RKSaIcESt20forward_iterator_tag
fun:_ZNSsC1EPKcRKSaIcE
fun:_ZN6TClass8AddClassEPS_
fun:_ZN6TClass4InitEPKcsPKSt9type_infoP16TVirtualIsAProxyPFvPvR16TMemberInspectorES1_S1_iib
fun:_ZN6TClassC1EPKcsRKSt9type_infoP16TVirtualIsAProxyPFvPvR16TMemberInspectorES1_S1_iib
fun:_ZN4ROOT11CreateClassEPKcsRKSt9type_infoP16TVirtualIsAProxyPFvPvR16TMemberInspectorES1_S1_ii
fun:_ZN4ROOT17TGenericClassInfo8GetClassEv
fun:_ZN17AliAODCaloCluster10DictionaryEv
fun:_ZNK5TROOT9LoadClassEPKcb
fun:_ZN6TClass8GetClassEPKcbb
}
{
root_jets_154
Memcheck:Leak
match-leak-kinds: possible
fun:_Znwm
fun:_ZNSs4_Rep9_S_createEmmRKSaIcE
fun:_ZNSs12_S_constructIPKcEEPcT_S3_RKSaIcESt20forward_iterator_tag
fun:_ZNSsC1EPKcRKSaIcE
fun:_ZN6TClass8AddClassEPS_
fun:_ZN6TClass4InitEPKcsPKSt9type_infoP16TVirtualIsAProxyPFvPvR16TMemberInspectorES1_S1_iib
fun:_ZN6TClassC1EPKcsRKSt9type_infoP16TVirtualIsAProxyPFvPvR16TMemberInspectorES1_S1_iib
fun:_ZN4ROOT11CreateClassEPKcsRKSt9type_infoP16TVirtualIsAProxyPFvPvR16TMemberInspectorES1_S1_ii
fun:_ZN4ROOT17TGenericClassInfo8GetClassEv
fun:_ZN17AliAODCaloTrigger10DictionaryEv
fun:_ZNK5TROOT9LoadClassEPKcb
fun:_ZN6TClass8GetClassEPKcbb
}
{
root_jets_155
Memcheck:Leak
match-leak-kinds: possible
fun:_Znwm
fun:_ZNSs4_Rep9_S_createEmmRKSaIcE
fun:_ZNSs12_S_constructIPKcEEPcT_S3_RKSaIcESt20forward_iterator_tag
fun:_ZNSsC1EPKcRKSaIcE
fun:_ZN6TClass8AddClassEPS_
fun:_ZN6TClass4InitEPKcsPKSt9type_infoP16TVirtualIsAProxyPFvPvR16TMemberInspectorES1_S1_iib
fun:_ZN6TClassC1EPKcsRKSt9type_infoP16TVirtualIsAProxyPFvPvR16TMemberInspectorES1_S1_iib
fun:_ZN4ROOT11CreateClassEPKcsRKSt9type_infoP16TVirtualIsAProxyPFvPvR16TMemberInspectorES1_S1_ii
fun:_ZN4ROOT17TGenericClassInfo8GetClassEv
fun:_ZN17AliTOFTriggerMask10DictionaryEv
fun:_ZNK5TROOT9LoadClassEPKcb
fun:_ZN6TClass8GetClassEPKcbb
}
{
root_jets_156
Memcheck:Leak
match-leak-kinds: possible
fun:_Znwm
fun:_ZNSs4_Rep9_S_createEmmRKSaIcE
fun:_ZNSs12_S_constructIPKcEEPcT_S3_RKSaIcESt20forward_iterator_tag
fun:_ZNSsC1EPKcRKSaIcE
fun:_ZN6TClass8AddClassEPS_
fun:_ZN6TClass4InitEPKcsPKSt9type_infoP16TVirtualIsAProxyPFvPvR16TMemberInspectorES1_S1_iib
fun:_ZN6TClassC1EPKcsRKSt9type_infoP16TVirtualIsAProxyPFvPvR16TMemberInspectorES1_S1_iib
fun:_ZN4ROOT11CreateClassEPKcsRKSt9type_infoP16TVirtualIsAProxyPFvPvR16TMemberInspectorES1_S1_ii
fun:_ZN4ROOT17TGenericClassInfo8GetClassEv
fun:_ZN17AliGenEventHeader10DictionaryEv
fun:_ZNK5TROOT9LoadClassEPKcb
fun:_ZN6TClass8GetClassEPKcbb
}
{
root_jets_157
Memcheck:Leak
match-leak-kinds: possible
fun:_Znwm
fun:_ZNSs4_Rep9_S_createEmmRKSaIcE
fun:_ZNSs12_S_constructIPKcEEPcT_S3_RKSaIcESt20forward_iterator_tag
fun:_ZNSsC1EPKcRKSaIcE
fun:_ZN6TClass8AddClassEPS_
fun:_ZN6TClass4InitEPKcsPKSt9type_infoP16TVirtualIsAProxyPFvPvR16TMemberInspectorES1_S1_iib
fun:_ZN6TClassC1EPKcsRKSt9type_infoP16TVirtualIsAProxyPFvPvR16TMemberInspectorES1_S1_iib
fun:_ZN4ROOT11CreateClassEPKcsRKSt9type_infoP16TVirtualIsAProxyPFvPvR16TMemberInspectorES1_S1_ii
fun:_ZN4ROOT17TGenericClassInfo8GetClassEv
fun:_ZN17AliAnalysisFilter10DictionaryEv
fun:_ZNK5TROOT9LoadClassEPKcb
fun:_ZN6TClass8GetClassEPKcbb
}
{
root_jets_158
Memcheck:Leak
match-leak-kinds: possible
fun:_Znwm
fun:_ZNSs4_Rep9_S_createEmmRKSaIcE
fun:_ZNSs12_S_constructIPKcEEPcT_S3_RKSaIcESt20forward_iterator_tag
fun:_ZNSsC1EPKcRKSaIcE
fun:_ZN6TClass8AddClassEPS_
fun:_ZN6TClass4InitEPKcsPKSt9type_infoP16TVirtualIsAProxyPFvPvR16TMemberInspectorES1_S1_iib
fun:_ZN6TClassC1EPKcsRKSt9type_infoP16TVirtualIsAProxyPFvPvR16TMemberInspectorES1_S1_iib
fun:_ZN4ROOT11CreateClassEPKcsRKSt9type_infoP16TVirtualIsAProxyPFvPvR16TMemberInspectorES1_S1_ii
fun:_ZN4ROOT17TGenericClassInfo8GetClassEv
fun:_ZN17AliTrackReference10DictionaryEv
fun:_ZNK5TROOT9LoadClassEPKcb
fun:_ZN6TClass8GetClassEPKcbb
}
{
root_jets_159
Memcheck:Leak
match-leak-kinds: possible
fun:_Znwm
fun:_ZNSs4_Rep9_S_createEmmRKSaIcE
fun:_ZNSs12_S_constructIPKcEEPcT_S3_RKSaIcESt20forward_iterator_tag
fun:_ZNSsC1EPKcRKSaIcE
fun:_ZN6TClass8AddClassEPS_
fun:_ZN6TClass4InitEPKcsPKSt9type_infoP16TVirtualIsAProxyPFvPvR16TMemberInspectorES1_S1_iib
fun:_ZN6TClassC1EPKcsRKSt9type_infoP16TVirtualIsAProxyPFvPvR16TMemberInspectorES1_S1_iib
fun:_ZN4ROOT11CreateClassEPKcsRKSt9type_infoP16TVirtualIsAProxyPFvPvR16TMemberInspectorES1_S1_ii
fun:_ZN4ROOT17TGenericClassInfo8GetClassEv
fun:_ZN17AliAnalysisTaskSE5ClassEv
fun:_ZL28G__G__ANALYSISalice_618_0_34P8G__valuePKcP8G__parami
fun:_ZN4Cint19G__ExceptionWrapperEPFiP8G__valuePKcP8G__paramiES1_PcS5_i
}
{
root_jets_160
Memcheck:Leak
match-leak-kinds: possible
fun:_Znwm
fun:_ZNSs4_Rep9_S_createEmmRKSaIcE
fun:_ZNSs12_S_constructIPKcEEPcT_S3_RKSaIcESt20forward_iterator_tag
fun:_ZNSsC1EPKcRKSaIcE
fun:_ZN6TClass8AddClassEPS_
fun:_ZN6TClass4InitEPKcsPKSt9type_infoP16TVirtualIsAProxyPFvPvR16TMemberInspectorES1_S1_iib
fun:_ZN6TClassC1EPKcsRKSt9type_infoP16TVirtualIsAProxyPFvPvR16TMemberInspectorES1_S1_iib
fun:_ZN4ROOT11CreateClassEPKcsRKSt9type_infoP16TVirtualIsAProxyPFvPvR16TMemberInspectorES1_S1_ii
fun:_ZN4ROOT17TGenericClassInfo8GetClassEv
fun:_ZN18TStreamerBasicType10DictionaryEv
fun:_ZNK5TROOT9LoadClassEPKcb
fun:_ZN6TClass8GetClassEPKcbb
}
{
root_jets_161
Memcheck:Leak
match-leak-kinds: possible
fun:_Znwm
fun:_ZNSs4_Rep9_S_createEmmRKSaIcE
fun:_ZNSs12_S_constructIPKcEEPcT_S3_RKSaIcESt20forward_iterator_tag
fun:_ZNSsC1EPKcRKSaIcE
fun:_ZN6TClass8AddClassEPS_
fun:_ZN6TClass4InitEPKcsPKSt9type_infoP16TVirtualIsAProxyPFvPvR16TMemberInspectorES1_S1_iib
fun:_ZN6TClassC1EPKcsRKSt9type_infoP16TVirtualIsAProxyPFvPvR16TMemberInspectorES1_S1_iib
fun:_ZN4ROOT11CreateClassEPKcsRKSt9type_infoP16TVirtualIsAProxyPFvPvR16TMemberInspectorES1_S1_ii
fun:_ZN4ROOT17TGenericClassInfo8GetClassEv
fun:_ZN18TStreamerObjectAny10DictionaryEv
fun:_ZNK5TROOT9LoadClassEPKcb
fun:_ZN6TClass8GetClassEPKcbb
}
{
root_jets_162
Memcheck:Leak
match-leak-kinds: possible
fun:_Znwm
fun:_ZNSs4_Rep9_S_createEmmRKSaIcE
fun:_ZNSs12_S_constructIPKcEEPcT_S3_RKSaIcESt20forward_iterator_tag
fun:_ZNSsC1EPKcRKSaIcE
fun:_ZN6TClass8AddClassEPS_
fun:_ZN6TClass4InitEPKcsPKSt9type_infoP16TVirtualIsAProxyPFvPvR16TMemberInspectorES1_S1_iib
fun:_ZN6TClassC1EPKcsRKSt9type_infoP16TVirtualIsAProxyPFvPvR16TMemberInspectorES1_S1_iib
fun:_ZN4ROOT11CreateClassEPKcsRKSt9type_infoP16TVirtualIsAProxyPFvPvR16TMemberInspectorES1_S1_ii
fun:_ZN4ROOT17TGenericClassInfo8GetClassEv
fun:_ZN4ROOTL28AliAODRedCovlE6gR_DictionaryEv
fun:_ZNK5TROOT9LoadClassEPKcb
fun:_ZN6TClass8GetClassEPKcbb
}
{
root_jets_163
Memcheck:Leak
match-leak-kinds: possible
fun:_Znwm
fun:_ZNSs4_Rep9_S_createEmmRKSaIcE
fun:_ZNSs12_S_constructIPKcEEPcT_S3_RKSaIcESt20forward_iterator_tag
fun:_ZNSsC1EPKcRKSaIcE
fun:_ZN6TClass8AddClassEPS_
fun:_ZN6TClass4InitEPKcsPKSt9type_infoP16TVirtualIsAProxyPFvPvR16TMemberInspectorES1_S1_iib
fun:_ZN6TClassC1EPKcsRKSt9type_infoP16TVirtualIsAProxyPFvPvR16TMemberInspectorES1_S1_iib
fun:_ZN4ROOT11CreateClassEPKcsRKSt9type_infoP16TVirtualIsAProxyPFvPvR16TMemberInspectorES1_S1_ii
fun:_ZN4ROOT17TGenericClassInfo8GetClassEv
fun:_ZN4ROOTL28AliAODRedCovlE3gR_DictionaryEv
fun:_ZNK5TROOT9LoadClassEPKcb
fun:_ZN6TClass8GetClassEPKcbb
}
{
root_jets_164
Memcheck:Leak
match-leak-kinds: possible
fun:_Znwm
fun:_ZNSs4_Rep9_S_createEmmRKSaIcE
fun:_ZNSs12_S_constructIPKcEEPcT_S3_RKSaIcESt20forward_iterator_tag
fun:_ZNSsC1EPKcRKSaIcE
fun:_ZN6TClass8AddClassEPS_
fun:_ZN6TClass4InitEPKcsPKSt9type_infoP16TVirtualIsAProxyPFvPvR16TMemberInspectorES1_S1_iib
fun:_ZN6TClassC1EPKcsRKSt9type_infoP16TVirtualIsAProxyPFvPvR16TMemberInspectorES1_S1_iib
fun:_ZN4ROOT11CreateClassEPKcsRKSt9type_infoP16TVirtualIsAProxyPFvPvR16TMemberInspectorES1_S1_ii
fun:_ZN4ROOT17TGenericClassInfo8GetClassEv
fun:_ZN18TVirtualTreePlayer10DictionaryEv
fun:_ZNK5TROOT9LoadClassEPKcb
fun:_ZN6TClass8GetClassEPKcbb
}
{
root_jets_165
Memcheck:Leak
match-leak-kinds: possible
fun:_Znwm
fun:_ZNSs4_Rep9_S_createEmmRKSaIcE
fun:_ZNSs12_S_constructIPKcEEPcT_S3_RKSaIcESt20forward_iterator_tag
fun:_ZNSsC1EPKcRKSaIcE
fun:_ZN6TClass8AddClassEPS_
fun:_ZN6TClass4InitEPKcsPKSt9type_infoP16TVirtualIsAProxyPFvPvR16TMemberInspectorES1_S1_iib
fun:_ZN6TClassC1EPKcsRKSt9type_infoP16TVirtualIsAProxyPFvPvR16TMemberInspectorES1_S1_iib
fun:_ZN4ROOT11CreateClassEPKcsRKSt9type_infoP16TVirtualIsAProxyPFvPvR16TMemberInspectorES1_S1_ii
fun:_ZN4ROOT17TGenericClassInfo8GetClassEv
fun:_ZN18AliAnalysisManager5ClassEv
fun:_ZNK18AliAnalysisManager3IsAEv
fun:_ZNK7TObject9ClassNameEv
}
{
root_jets_166
Memcheck:Leak
match-leak-kinds: possible
fun:_Znwm
fun:_ZNSs4_Rep9_S_createEmmRKSaIcE
fun:_ZNSs12_S_constructIPKcEEPcT_S3_RKSaIcESt20forward_iterator_tag
fun:_ZNSsC1EPKcRKSaIcE
fun:_ZN6TClass8AddClassEPS_
fun:_ZN6TClass4InitEPKcsPKSt9type_infoP16TVirtualIsAProxyPFvPvR16TMemberInspectorES1_S1_iib
fun:_ZN6TClassC1EPKcsRKSt9type_infoP16TVirtualIsAProxyPFvPvR16TMemberInspectorES1_S1_iib
fun:_ZN4ROOT11CreateClassEPKcsRKSt9type_infoP16TVirtualIsAProxyPFvPvR16TMemberInspectorES1_S1_ii
fun:_ZN4ROOT17TGenericClassInfo8GetClassEv
fun:_ZN18AliAODInputHandler5ClassEv
fun:_ZNK18AliAODInputHandler3IsAEv
fun:_ZNK7TObject9ClassNameEv
}
{
root_jets_167
Memcheck:Leak
match-leak-kinds: possible
fun:_Znwm
fun:_ZNSs4_Rep9_S_createEmmRKSaIcE
fun:_ZNSs12_S_constructIPKcEEPcT_S3_RKSaIcESt20forward_iterator_tag
fun:_ZNSsC1EPKcRKSaIcE
fun:_ZN6TClass8AddClassEPS_
fun:_ZN6TClass4InitEPKcsPKSt9type_infoP16TVirtualIsAProxyPFvPvR16TMemberInspectorES1_S1_iib
fun:_ZN6TClassC1EPKcsRKSt9type_infoP16TVirtualIsAProxyPFvPvR16TMemberInspectorES1_S1_iib
fun:_ZN4ROOT11CreateClassEPKcsRKSt9type_infoP16TVirtualIsAProxyPFvPvR16TMemberInspectorES1_S1_ii
fun:_ZN4ROOT17TGenericClassInfo8GetClassEv
fun:_ZN19TStreamerArtificial5ClassEv
fun:_ZN13TStreamerInfo8BuildOldEv
fun:_ZN11TBufferFile15ReadClassBufferEPK6TClassPvijjS2_
}
{
root_jets_168
Memcheck:Leak
match-leak-kinds: possible
fun:_Znwm
fun:_ZNSs4_Rep9_S_createEmmRKSaIcE
fun:_ZNSs12_S_constructIPKcEEPcT_S3_RKSaIcESt20forward_iterator_tag
fun:_ZNSsC1EPKcRKSaIcE
fun:_ZN6TClass8AddClassEPS_
fun:_ZN6TClass4InitEPKcsPKSt9type_infoP16TVirtualIsAProxyPFvPvR16TMemberInspectorES1_S1_iib
fun:_ZN6TClassC1EPKcsRKSt9type_infoP16TVirtualIsAProxyPFvPvR16TMemberInspectorES1_S1_iib
fun:_ZN4ROOT11CreateClassEPKcsRKSt9type_infoP16TVirtualIsAProxyPFvPvR16TMemberInspectorES1_S1_ii
fun:_ZN4ROOT17TGenericClassInfo8GetClassEv
fun:_ZN20TVirtualStreamerInfo10DictionaryEv
fun:_ZNK5TROOT9LoadClassEPKcb
fun:_ZN6TClass8GetClassEPKcbb
}
{
root_jets_169
Memcheck:Leak
match-leak-kinds: possible
fun:_Znam
fun:_ZN7TString7ReplaceEiiPKci
fun:_ZN6TNamed8SetTitleEPKc
fun:_ZN6TClass4InitEPKcsPKSt9type_infoP16TVirtualIsAProxyPFvPvR16TMemberInspectorES1_S1_iib
fun:_ZN6TClassC1EPKcsRKSt9type_infoP16TVirtualIsAProxyPFvPvR16TMemberInspectorES1_S1_iib
fun:_ZN7TQClassC1EPKcsRKSt9type_infoP16TVirtualIsAProxyPFvPvR16TMemberInspectorES1_S1_ii
fun:_ZNK4ROOT20TQObjectInitBehavior11CreateClassEPKcsRKSt9type_infoP16TVirtualIsAProxyPFvPvR16TMemberInspectorES2_S2_ii
fun:_ZN4ROOT17TGenericClassInfo8GetClassEv
fun:_ZN8TQObject10DictionaryEv
fun:_ZNK5TROOT9LoadClassEPKcb
fun:_ZN6TClass8GetClassEPKcbb
fun:_ZN10TBaseClass15GetClassPointerEb
}
{
root_jets_170
Memcheck:Leak
match-leak-kinds: possible
fun:_Znam
fun:_ZN7TString7ReplaceEiiPKci
fun:_ZN6TNamed8SetTitleEPKc
fun:_ZN6TClass4InitEPKcsPKSt9type_infoP16TVirtualIsAProxyPFvPvR16TMemberInspectorES1_S1_iib
fun:_ZN6TClassC1EPKcsRKSt9type_infoP16TVirtualIsAProxyPFvPvR16TMemberInspectorES1_S1_iib
fun:_ZN7TQClassC1EPKcsRKSt9type_infoP16TVirtualIsAProxyPFvPvR16TMemberInspectorES1_S1_ii
fun:_ZNK4ROOT20TQObjectInitBehavior11CreateClassEPKcsRKSt9type_infoP16TVirtualIsAProxyPFvPvR16TMemberInspectorES2_S2_ii
fun:_ZN4ROOT17TGenericClassInfo8GetClassEv
fun:_ZN12TFileHandler5ClassEv
fun:_ZN8TQObject4EmitEPKc
fun:_ZN5TRintC1EPKcPiPPcPvib
fun:main
}
{
root_jets_171
Memcheck:Leak
match-leak-kinds: possible
fun:_Znwm
fun:_ZNSs4_Rep9_S_createEmmRKSaIcE
fun:_ZNSs12_S_constructIPKcEEPcT_S3_RKSaIcESt20forward_iterator_tag
fun:_ZNSsC1EPKcRKSaIcE
fun:_ZN6TClass8AddClassEPS_
fun:_ZN6TClass4InitEPKcsPKSt9type_infoP16TVirtualIsAProxyPFvPvR16TMemberInspectorES1_S1_iib
fun:_ZN6TClassC1EPKcsRKSt9type_infoP16TVirtualIsAProxyPFvPvR16TMemberInspectorES1_S1_iib
fun:_ZN4ROOT11CreateClassEPKcsRKSt9type_infoP16TVirtualIsAProxyPFvPvR16TMemberInspectorES1_S1_ii
fun:_ZN4ROOT17TGenericClassInfo8GetClassEv
fun:_ZN21TStreamerBasicPointer10DictionaryEv
fun:_ZNK5TROOT9LoadClassEPKcb
fun:_ZN6TClass8GetClassEPKcbb
}
{
root_jets_172
Memcheck:Leak
match-leak-kinds: possible
fun:_Znam
fun:_ZN7TString7ReplaceEiiPKci
fun:_ZN13TStreamerInfo7CompileEv
fun:_ZN13TStreamerInfo5BuildEv
fun:_ZNK6TClass15GetStreamerInfoEi
fun:_ZN13TStreamerInfo8BuildOldEv
fun:_ZN11TBufferFile15ReadClassBufferEPK6TClassPvS2_
fun:_ZN15AliESDtrackCuts8StreamerER7TBuffer
fun:_ZN11TBufferFile13ReadObjectAnyEPK6TClass
fun:_ZrsI7TObjectER7TBufferS2_RPT_
fun:_ZN5TList8StreamerER7TBuffer
fun:_ZN11TBufferFile13ReadObjectAnyEPK6TClass
}
{
root_jets_173
Memcheck:Leak
match-leak-kinds: possible
fun:_Znam
fun:_ZN7TString7ReplaceEiiPKci
fun:_ZN13TStreamerInfo7CompileEv
fun:_ZN13TStreamerInfo8BuildOldEv
fun:_ZN11TBufferFile15ReadClassBufferEPK6TClassPvS2_
fun:_ZN15AliESDtrackCuts8StreamerER7TBuffer
fun:_ZN11TBufferFile13ReadObjectAnyEPK6TClass
fun:_ZrsI7TObjectER7TBufferS2_RPT_
fun:_ZN5TList8StreamerER7TBuffer
fun:_ZN11TBufferFile13ReadObjectAnyEPK6TClass
fun:_ZN11TBufferFile13ReadFastArrayEPPvPK6TClassibP15TMemberStreamerS4_
fun:_ZN13TStreamerInfo10ReadBufferIPPcEEiR7TBufferRKT_iiii
}
{
root_jets_174
Memcheck:Leak
match-leak-kinds: possible
fun:_Znam
fun:_ZN7TString7ReplaceEiiPKci
fun:_ZN6TNamed8SetTitleEPKc
fun:_ZN6TClass4InitEPKcsPKSt9type_infoP16TVirtualIsAProxyPFvPvR16TMemberInspectorES1_S1_iib
fun:_ZN6TClassC1EPKcsRKSt9type_infoP16TVirtualIsAProxyPFvPvR16TMemberInspectorES1_S1_iib
fun:_ZN7TQClassC1EPKcsRKSt9type_infoP16TVirtualIsAProxyPFvPvR16TMemberInspectorES1_S1_ii
fun:_ZNK4ROOT20TQObjectInitBehavior11CreateClassEPKcsRKSt9type_infoP16TVirtualIsAProxyPFvPvR16TMemberInspectorES2_S2_ii
fun:_ZN4ROOT17TGenericClassInfo8GetClassEv
fun:_ZN5TRint5ClassEv
fun:_ZN8TQObject4EmitEPKcl
fun:_ZN12TApplication9TerminateEi
fun:_ZN5TRint3RunEb
}
{
root_jets_175
Memcheck:Leak
match-leak-kinds: possible
fun:_Znwm
fun:_ZN5TCint12SetClassInfoEP6TClassb
fun:_ZN6TClass11SetUnloadedEv
fun:_ZN4ROOT11RemoveClassEPKc
fun:_ZN4ROOT17TGenericClassInfoD1Ev
fun:__cxa_finalize
obj:/opt/alice/root/v5-34-11/lib/libCore.so.5.34
fun:_dl_fini
fun:__run_exit_handlers
fun:exit
fun:_ZN11TUnixSystem4ExitEib
fun:_ZN5TRint3RunEb
}
{
root_jets_176
Memcheck:Leak
match-leak-kinds: possible
fun:_Znwm
fun:_ZNSs4_Rep9_S_createEmmRKSaIcE
fun:_ZNSs12_S_constructIPKcEEPcT_S3_RKSaIcESt20forward_iterator_tag
fun:_ZNSsC1EPKcRKSaIcE
fun:_ZN6TClass8AddClassEPS_
fun:_ZN6TClass4InitEPKcsPKSt9type_infoP16TVirtualIsAProxyPFvPvR16TMemberInspectorES1_S1_iib
fun:_ZN6TClassC1EPKcsRKSt9type_infoP16TVirtualIsAProxyPFvPvR16TMemberInspectorES1_S1_iib
fun:_ZN4ROOT11CreateClassEPKcsRKSt9type_infoP16TVirtualIsAProxyPFvPvR16TMemberInspectorES1_S1_ii
fun:_ZN4ROOT17TGenericClassInfo8GetClassEv
fun:_ZN22TStreamerObjectPointer10DictionaryEv
fun:_ZNK5TROOT9LoadClassEPKcb
fun:_ZN6TClass8GetClassEPKcbb
}
{
root_jets_177
Memcheck:Leak
match-leak-kinds: possible
fun:_Znwm
fun:_ZNSs4_Rep9_S_createEmmRKSaIcE
fun:_ZNSs12_S_constructIPKcEEPcT_S3_RKSaIcESt20forward_iterator_tag
fun:_ZNSsC1EPKcRKSaIcE
fun:_ZN6TClass8AddClassEPS_
fun:_ZN6TClass4InitEPKcsPKSt9type_infoP16TVirtualIsAProxyPFvPvR16TMemberInspectorES1_S1_iib
fun:_ZN6TClassC1EPKcsRKSt9type_infoP16TVirtualIsAProxyPFvPvR16TMemberInspectorES1_S1_iib
fun:_ZN4ROOT11CreateClassEPKcsRKSt9type_infoP16TVirtualIsAProxyPFvPvR16TMemberInspectorES1_S1_ii
fun:_ZN4ROOT17TGenericClassInfo8GetClassEv
fun:_ZN23AliGenPythiaEventHeader10DictionaryEv
fun:_ZNK5TROOT9LoadClassEPKcb
fun:_ZN6TClass8GetClassEPKcbb
}
{
root_jets_178
Memcheck:Leak
match-leak-kinds: possible
fun:_Znwm
fun:_ZNSs4_Rep9_S_createEmmRKSaIcE
fun:_ZNSs12_S_constructIPKcEEPcT_S3_RKSaIcESt20forward_iterator_tag
fun:_ZNSsC1EPKcRKSaIcE
fun:_ZN6TClass8AddClassEPS_
fun:_ZN6TClass4InitEPKcsPKSt9type_infoP16TVirtualIsAProxyPFvPvR16TMemberInspectorES1_S1_iib
fun:_ZN6TClassC1EPKcsRKSt9type_infoP16TVirtualIsAProxyPFvPvR16TMemberInspectorES1_S1_iib
fun:_ZN4ROOT11CreateClassEPKcsRKSt9type_infoP16TVirtualIsAProxyPFvPvR16TMemberInspectorES1_S1_ii
fun:_ZN4ROOT17TGenericClassInfo8GetClassEv
fun:_ZN25TStreamerObjectAnyPointer10DictionaryEv
fun:_ZNK5TROOT9LoadClassEPKcb
fun:_ZN6TClass8GetClassEPKcbb
}
{
root_jets_179
Memcheck:Leak
match-leak-kinds: possible
fun:_Znwm
fun:_ZNSs4_Rep9_S_createEmmRKSaIcE
fun:_ZNSs12_S_constructIPKcEEPcT_S3_RKSaIcESt20forward_iterator_tag
fun:_ZNSsC1EPKcRKSaIcE
fun:_ZN6TClass8AddClassEPS_
fun:_ZN6TClass4InitEPKcsPKSt9type_infoP16TVirtualIsAProxyPFvPvR16TMemberInspectorES1_S1_iib
fun:_ZN6TClassC1EPKcsRKSt9type_infoP16TVirtualIsAProxyPFvPvR16TMemberInspectorES1_S1_iib
fun:_ZN4ROOT11CreateClassEPKcsRKSt9type_infoP16TVirtualIsAProxyPFvPvR16TMemberInspectorES1_S1_ii
fun:_ZN4ROOT17TGenericClassInfo8GetClassEv
fun:_ZN25AliAnalysisTaskJetCluster5ClassEv
fun:_ZNK25AliAnalysisTaskJetCluster3IsAEv
fun:_ZNK18AliAnalysisManager10CheckTasksEv
}
{
root_jets_180
Memcheck:Leak
match-leak-kinds: possible
fun:_Znam
fun:_ZN13TStreamerInfo7CompileEv
fun:_ZN13TStreamerInfo5BuildEv
fun:_ZN11TBufferFile15ReadClassBufferEPK6TClassPvijjS2_
fun:_ZN18TStreamerBasicType8StreamerER7TBuffer
fun:_ZN11TBufferFile13ReadObjectAnyEPK6TClass
fun:_ZN9TObjArray8StreamerER7TBuffer
fun:_ZN11TBufferFile13ReadObjectAnyEPK6TClass
fun:_ZrsI9TObjArrayER7TBufferS2_RPT_
fun:_ZN13TStreamerInfo8StreamerER7TBuffer
fun:_ZN11TBufferFile13ReadObjectAnyEPK6TClass
fun:_ZrsI7TObjectER7TBufferS2_RPT_
}
{
root_jets_181
Memcheck:Leak
match-leak-kinds: possible
fun:_Znam
fun:_ZN13TStreamerInfo7CompileEv
fun:_ZN13TStreamerInfo5BuildEv
fun:_ZN11TBufferFile15ReadClassBufferEPK6TClassPvijjS2_
fun:_ZN15TStreamerObject8StreamerER7TBuffer
fun:_ZN11TBufferFile13ReadObjectAnyEPK6TClass
fun:_ZN9TObjArray8StreamerER7TBuffer
fun:_ZN11TBufferFile13ReadObjectAnyEPK6TClass
fun:_ZrsI9TObjArrayER7TBufferS2_RPT_
fun:_ZN13TStreamerInfo8StreamerER7TBuffer
fun:_ZN11TBufferFile13ReadObjectAnyEPK6TClass
fun:_ZrsI7TObjectER7TBufferS2_RPT_
}
{
root_jets_182
Memcheck:Leak
match-leak-kinds: possible
fun:_Znam
fun:_ZN13TStreamerInfo7CompileEv
fun:_ZN13TStreamerInfo5BuildEv
fun:_ZN11TBufferFile15ReadClassBufferEPK6TClassPvijjS2_
fun:_ZN18TStreamerObjectAny8StreamerER7TBuffer
fun:_ZN11TBufferFile13ReadObjectAnyEPK6TClass
fun:_ZN9TObjArray8StreamerER7TBuffer
fun:_ZN11TBufferFile13ReadObjectAnyEPK6TClass
fun:_ZrsI9TObjArrayER7TBufferS2_RPT_
fun:_ZN13TStreamerInfo8StreamerER7TBuffer
fun:_ZN11TBufferFile13ReadObjectAnyEPK6TClass
fun:_ZrsI7TObjectER7TBufferS2_RPT_
}
{
root_jets_183
Memcheck:Leak
match-leak-kinds: possible
fun:_Znam
fun:_ZN13TStreamerInfo7CompileEv
fun:_ZN13TStreamerInfo5BuildEv
fun:_ZN11TBufferFile15ReadClassBufferEPK6TClassPvijjS2_
fun:_ZN15TStreamerString8StreamerER7TBuffer
fun:_ZN11TBufferFile13ReadObjectAnyEPK6TClass
fun:_ZN9TObjArray8StreamerER7TBuffer
fun:_ZN11TBufferFile13ReadObjectAnyEPK6TClass
fun:_ZrsI9TObjArrayER7TBufferS2_RPT_
fun:_ZN13TStreamerInfo8StreamerER7TBuffer
fun:_ZN11TBufferFile13ReadObjectAnyEPK6TClass
fun:_ZrsI7TObjectER7TBufferS2_RPT_
}
{
root_jets_184
Memcheck:Leak
match-leak-kinds: possible
fun:_Znam
fun:_ZN13TStreamerInfo7CompileEv
fun:_ZN13TStreamerInfo5BuildEv
fun:_ZN11TBufferFile15ReadClassBufferEPK6TClassPvijjS2_
fun:_ZN22TStreamerObjectPointer8StreamerER7TBuffer
fun:_ZN11TBufferFile13ReadObjectAnyEPK6TClass
fun:_ZN9TObjArray8StreamerER7TBuffer
fun:_ZN11TBufferFile13ReadObjectAnyEPK6TClass
fun:_ZrsI9TObjArrayER7TBufferS2_RPT_
fun:_ZN13TStreamerInfo8StreamerER7TBuffer
fun:_ZN11TBufferFile13ReadObjectAnyEPK6TClass
fun:_ZrsI7TObjectER7TBufferS2_RPT_
}
{
root_jets_185
Memcheck:Leak
match-leak-kinds: possible
fun:_Znam
fun:_ZN13TStreamerInfo7CompileEv
fun:_ZN13TStreamerInfo5BuildEv
fun:_ZN11TBufferFile15ReadClassBufferEPK6TClassPvS2_
fun:_ZN11TBufferFile13ReadObjectAnyEPK6TClass
fun:_ZN9TObjArray8StreamerER7TBuffer
fun:_ZN11TBufferFile13ReadObjectAnyEPK6TClass
fun:_ZrsI9TObjArrayER7TBufferS2_RPT_
fun:_ZN13TStreamerInfo8StreamerER7TBuffer
fun:_ZN11TBufferFile13ReadObjectAnyEPK6TClass
fun:_ZrsI7TObjectER7TBufferS2_RPT_
fun:_ZN5TList8StreamerER7TBuffer
}
{
root_jets_186
Memcheck:Leak
match-leak-kinds: possible
fun:_Znam
fun:_ZN13TStreamerInfo7CompileEv
fun:_ZN13TStreamerInfo8BuildOldEv
fun:_ZNK6TClass15GetStreamerInfoEi
fun:_ZN13TStreamerInfo8BuildOldEv
fun:_ZNK6TClass15GetStreamerInfoEi
fun:_ZN13TStreamerInfo5BuildEv
fun:_ZNK6TClass15GetStreamerInfoEi
fun:_ZN13TStreamerInfo8BuildOldEv
fun:_ZN11TBufferFile15ReadClassBufferEPK6TClassPvS2_
fun:_ZN15AliESDtrackCuts8StreamerER7TBuffer
fun:_ZN11TBufferFile13ReadObjectAnyEPK6TClass
}
{
root_jets_187
Memcheck:Leak
match-leak-kinds: possible
fun:_Znam
fun:_ZN13TStreamerInfo7CompileEv
fun:_ZN13TStreamerInfo8BuildOldEv
fun:_ZNK6TClass15GetStreamerInfoEi
fun:_ZN13TStreamerInfo8BuildOldEv
fun:_ZNK6TClass15GetStreamerInfoEi
fun:_ZN13TStreamerInfo8BuildOldEv
fun:_ZN11TBufferFile15ReadClassBufferEPK6TClassPvS2_
fun:_ZN11TBufferFile13ReadFastArrayEPPvPK6TClassibP15TMemberStreamerS4_
fun:_ZN13TStreamerInfo10ReadBufferIPPcEEiR7TBufferRKT_iiii
fun:_ZN20TStreamerInfoActions17GenericReadActionER7TBufferPvPKNS_14TConfigurationE
fun:_ZN11TBufferFile13ApplySequenceERKN20TStreamerInfoActions15TActionSequenceEPv
}
{
root_jets_188
Memcheck:Leak
match-leak-kinds: possible
fun:_Znam
fun:_ZN13TStreamerInfo7CompileEv
fun:_ZN13TStreamerInfo8BuildOldEv
fun:_ZNK6TClass15GetStreamerInfoEi
fun:_ZN13TStreamerInfo8BuildOldEv
fun:_ZN11TBufferFile15ReadClassBufferEPK6TClassPvS2_
fun:_ZN11AliAODEvent8StreamerER7TBuffer
fun:_ZN11TBufferFile13ReadObjectAnyEPK6TClass
fun:_ZrsI7TObjectER7TBufferS2_RPT_
fun:_ZN5TList8StreamerER7TBuffer
fun:_ZN11TBufferFile13ReadObjectAnyEPK6TClass
fun:_ZN11TBufferFile13ReadFastArrayEPPvPK6TClassibP15TMemberStreamerS4_
}
{
root_jets_189
Memcheck:Leak
match-leak-kinds: possible
fun:_Znam
fun:_ZN13TStreamerInfo7CompileEv
fun:_ZN13TStreamerInfo8BuildOldEv
fun:_ZNK6TClass15GetStreamerInfoEi
fun:_ZN13TStreamerInfo5BuildEv
fun:_ZNK6TClass15GetStreamerInfoEi
fun:_ZN13TStreamerInfo8BuildOldEv
fun:_ZN11TBufferFile15ReadClassBufferEPK6TClassPvS2_
fun:_ZN12AliAODHeader8StreamerER7TBuffer
fun:_ZN11TBufferFile13ReadObjectAnyEPK6TClass
fun:_ZrsI7TObjectER7TBufferS2_RPT_
fun:_ZN5TList8StreamerER7TBuffer
}
{
root_jets_190
Memcheck:Leak
match-leak-kinds: possible
fun:_Znam
fun:_ZN13TStreamerInfo7CompileEv
fun:_ZN13TStreamerInfo8BuildOldEv
fun:_ZNK6TClass15GetStreamerInfoEi
fun:_ZN13TStreamerInfo8BuildOldEv
fun:_ZN11TBufferFile15ReadClassBufferEPK6TClassPvS2_
fun:_ZN15AliAODCaloCells8StreamerER7TBuffer
fun:_ZN11TBufferFile13ReadObjectAnyEPK6TClass
fun:_ZrsI7TObjectER7TBufferS2_RPT_
fun:_ZN5TList8StreamerER7TBuffer
fun:_ZN11TBufferFile13ReadObjectAnyEPK6TClass
fun:_ZN11TBufferFile13ReadFastArrayEPPvPK6TClassibP15TMemberStreamerS4_
}
{
root_jets_191
Memcheck:Leak
match-leak-kinds: possible
fun:_Znam
fun:_ZN13TStreamerInfo7CompileEv
fun:_ZN13TStreamerInfo8BuildOldEv
fun:_ZNK6TClass15GetStreamerInfoEi
fun:_ZN13TStreamerInfo8BuildOldEv
fun:_ZN11TBufferFile15ReadClassBufferEPK6TClassPvS2_
fun:_ZN17AliAODCaloTrigger8StreamerER7TBuffer
fun:_ZN11TBufferFile13ReadObjectAnyEPK6TClass
fun:_ZrsI7TObjectER7TBufferS2_RPT_
fun:_ZN5TList8StreamerER7TBuffer
fun:_ZN11TBufferFile13ReadObjectAnyEPK6TClass
fun:_ZN11TBufferFile13ReadFastArrayEPPvPK6TClassibP15TMemberStreamerS4_
}
{
root_jets_192
Memcheck:Leak
match-leak-kinds: possible
fun:_Znam
fun:_ZN13TStreamerInfo7CompileEv
fun:_ZN13TStreamerInfo8BuildOldEv
fun:_ZNK6TClass15GetStreamerInfoEi
fun:_ZN13TStreamerInfo8BuildOldEv
fun:_ZN11TBufferFile15ReadClassBufferEPK6TClassPvS2_
fun:_ZN11AliAODVZERO8StreamerER7TBuffer
fun:_ZN11TBufferFile13ReadObjectAnyEPK6TClass
fun:_ZrsI7TObjectER7TBufferS2_RPT_
fun:_ZN5TList8StreamerER7TBuffer
fun:_ZN11TBufferFile13ReadObjectAnyEPK6TClass
fun:_ZN11TBufferFile13ReadFastArrayEPPvPK6TClassibP15TMemberStreamerS4_
}
{
root_jets_193
Memcheck:Leak
match-leak-kinds: possible
fun:_Znam
fun:_ZN13TStreamerInfo7CompileEv
fun:_ZN13TStreamerInfo8BuildOldEv
fun:_ZNK6TClass15GetStreamerInfoEi
fun:_ZN13TStreamerInfo8BuildOldEv
fun:_ZN11TBufferFile15ReadClassBufferEPK6TClassPvS2_
fun:_ZN9AliAODZDC8StreamerER7TBuffer
fun:_ZN11TBufferFile13ReadObjectAnyEPK6TClass
fun:_ZrsI7TObjectER7TBufferS2_RPT_
fun:_ZN5TList8StreamerER7TBuffer
fun:_ZN11TBufferFile13ReadObjectAnyEPK6TClass
fun:_ZN11TBufferFile13ReadFastArrayEPPvPK6TClassibP15TMemberStreamerS4_
}
{
root_jets_194
Memcheck:Leak
match-leak-kinds: possible
fun:_Znam
fun:_ZN13TStreamerInfo7CompileEv
fun:_ZN13TStreamerInfo8BuildOldEv
fun:_ZNK6TClass15GetStreamerInfoEi
fun:_ZN13TStreamerInfo8BuildOldEv
fun:_ZNK6TClass15GetStreamerInfoEi
fun:_ZN13TStreamerInfo8BuildOldEv
fun:_ZNK6TClass15GetStreamerInfoEi
fun:_ZN11TBufferFile14WriteFastArrayEPPvPK6TClassibP15TMemberStreamer
fun:_ZN13TStreamerInfo14WriteBufferAuxIPPcEEiR7TBufferRKT_iiii
fun:_ZN20TStreamerInfoActions18GenericWriteActionER7TBufferPvPKNS_14TConfigurationE
fun:_ZN11TBufferFile13ApplySequenceERKN20TStreamerInfoActions15TActionSequenceEPv
}
{
root_jets_195
Memcheck:Leak
match-leak-kinds: possible
fun:_Znam
fun:_ZN13TStreamerInfo7CompileEv
fun:_ZN13TStreamerInfo8BuildOldEv
fun:_ZNK6TClass15GetStreamerInfoEi
fun:_ZN13TStreamerInfo8BuildOldEv
fun:_ZNK6TClass15GetStreamerInfoEi
fun:_ZN11TBufferFile14WriteFastArrayEPPvPK6TClassibP15TMemberStreamer
fun:_ZN13TStreamerInfo14WriteBufferAuxIPPcEEiR7TBufferRKT_iiii
fun:_ZN20TStreamerInfoActions18GenericWriteActionER7TBufferPvPKNS_14TConfigurationE
fun:_ZN11TBufferFile13ApplySequenceERKN20TStreamerInfoActions15TActionSequenceEPv
fun:_ZN11TBufferFile16WriteClassBufferEPK6TClassPv
fun:_ZN5TAxis8StreamerER7TBuffer
}
{
root_jets_196
Memcheck:Leak
match-leak-kinds: possible
fun:_Znam
fun:_ZN13TStreamerInfo7CompileEv
fun:_ZN13TStreamerInfo8BuildOldEv
fun:_ZNK6TClass15GetStreamerInfoEi
fun:_ZN11TBufferFile14WriteFastArrayEPPvPK6TClassibP15TMemberStreamer
fun:_ZN13TStreamerInfo14WriteBufferAuxIPPcEEiR7TBufferRKT_iiii
fun:_ZN20TStreamerInfoActions18GenericWriteActionER7TBufferPvPKNS_14TConfigurationE
fun:_ZN11TBufferFile13ApplySequenceERKN20TStreamerInfoActions15TActionSequenceEPv
fun:_ZN11TBufferFile16WriteClassBufferEPK6TClassPv
fun:_ZN5TAxis8StreamerER7TBuffer
fun:_ZN11TBufferFile14WriteFastArrayEPvPK6TClassiP15TMemberStreamer
fun:_ZN13TStreamerInfo14WriteBufferAuxIPPcEEiR7TBufferRKT_iiii
}
{
root_jets_197
Memcheck:Leak
match-leak-kinds: possible
fun:_Znam
fun:_ZN13TStreamerInfo7CompileEv
fun:_ZN13TStreamerInfo8BuildOldEv
fun:_ZNK6TClass15GetStreamerInfoEi
fun:_ZN14TBranchElement8InitInfoEv
fun:_ZN14TBranchElement10SetAddressEPv
fun:_ZN6TChain16SetBranchAddressEPKcPvPP7TBranch
fun:_ZN11AliAODEvent12ReadFromTreeEP5TTreePKc
fun:_ZN18AliAODInputHandler4InitEP5TTreePKc
fun:_ZN18AliAnalysisManager4InitEP5TTree
fun:_ZN19AliAnalysisSelector4InitEP5TTree
fun:_ZN11TTreePlayer7ProcessEP9TSelectorPKcxx
}
{
root_jets_198
Memcheck:Leak
match-leak-kinds: possible
fun:_Znam
fun:_ZN13TStreamerInfo7CompileEv
fun:_ZN13TStreamerInfo8BuildOldEv
fun:_ZN11TBufferFile15ReadClassBufferEPK6TClassPvS2_
fun:_ZN4TKey7ReadObjEv
fun:_ZN14TDirectoryFile3GetEPKc
fun:_ZN5TFile13ReadProcessIDEt
fun:_ZN20TStreamerInfoActions23HandleReferencedTObjectER7TBufferPvPKNS_14TConfigurationE
fun:_ZN20TStreamerInfoActions15VectorPtrLooper10ReadActionIXadL_ZNS_13ReadBasicTypeINS_10BitsMarkerEEEiR7TBufferPvPKNS_14TConfigurationEEEEEiS5_S6_PKvS9_
fun:_ZN11TBufferFile19ApplySequenceVecPtrERKN20TStreamerInfoActions15TActionSequenceEPvS4_
fun:_ZN14TBranchElement22ReadLeavesClonesMemberER7TBuffer
fun:_ZN7TBranch8GetEntryExi
}
{
root_jets_199
Memcheck:Leak
match-leak-kinds: possible
fun:_Znam
fun:_ZN13TStreamerInfo7CompileEv
fun:_ZN13TStreamerInfo8BuildOldEv
fun:_ZNK6TClass31GetStreamerInfoAbstractEmulatedEi
fun:_ZN6TClass21BuildEmulatedRealDataEPKclPS_
fun:_ZN6TClass21BuildEmulatedRealDataEPKclPS_
fun:_ZN6TClass21BuildEmulatedRealDataEPKclPS_
fun:_ZN6TClass21BuildEmulatedRealDataEPKclPS_
fun:_ZN6TClass21BuildEmulatedRealDataEPKclPS_
fun:_ZN6TClass21BuildEmulatedRealDataEPKclPS_
fun:_ZN6TClass21BuildEmulatedRealDataEPKclPS_
fun:_ZN6TClass13BuildRealDataEPvb
}
{
root_jets_200
Memcheck:Leak
match-leak-kinds: possible
fun:_Znwm
fun:_ZN8TStorage11ObjectAllocEm
fun:_ZN6TClass4InitEPKcsPKSt9type_infoP16TVirtualIsAProxyPFvPvR16TMemberInspectorES1_S1_iib
fun:_ZN6TClassC1EPKcsRKSt9type_infoP16TVirtualIsAProxyPFvPvR16TMemberInspectorES1_S1_iib
fun:_ZN7TQClassC1EPKcsRKSt9type_infoP16TVirtualIsAProxyPFvPvR16TMemberInspectorES1_S1_ii
fun:_ZNK4ROOT20TQObjectInitBehavior11CreateClassEPKcsRKSt9type_infoP16TVirtualIsAProxyPFvPvR16TMemberInspectorES2_S2_ii
fun:_ZN4ROOT17TGenericClassInfo8GetClassEv
fun:_ZN14TSignalHandler5ClassEv
fun:_ZN8TQObject4EmitEPKc
fun:_ZN5TRintC1EPKcPiPPcPvib
fun:main
}
{
root_jets_201
Memcheck:Leak
match-leak-kinds: possible
fun:_Znwm
fun:_ZN8TStorage11ObjectAllocEm
fun:_ZN6TClass4InitEPKcsPKSt9type_infoP16TVirtualIsAProxyPFvPvR16TMemberInspectorES1_S1_iib
fun:_ZN6TClassC1EPKcsRKSt9type_infoP16TVirtualIsAProxyPFvPvR16TMemberInspectorES1_S1_iib
fun:_ZN7TQClassC1EPKcsRKSt9type_infoP16TVirtualIsAProxyPFvPvR16TMemberInspectorES1_S1_ii
fun:_ZNK4ROOT20TQObjectInitBehavior11CreateClassEPKcsRKSt9type_infoP16TVirtualIsAProxyPFvPvR16TMemberInspectorES2_S2_ii
fun:_ZN4ROOT17TGenericClassInfo8GetClassEv
fun:_ZN14TSysEvtHandler10DictionaryEv
fun:_ZNK5TROOT9LoadClassEPKcb
fun:_ZN6TClass8GetClassEPKcbb
fun:_ZN10TBaseClass15GetClassPointerEb
fun:_ZN8TQObject23CollectClassSignalListsER5TListP6TClass
}
{
root_jets_202
Memcheck:Leak
match-leak-kinds: possible
fun:_Znwm
fun:_ZN8TStorage11ObjectAllocEm
fun:_ZN6TClass4InitEPKcsPKSt9type_infoP16TVirtualIsAProxyPFvPvR16TMemberInspectorES1_S1_iib
fun:_ZN6TClassC1EPKcsRKSt9type_infoP16TVirtualIsAProxyPFvPvR16TMemberInspectorES1_S1_iib
fun:_ZN7TQClassC1EPKcsRKSt9type_infoP16TVirtualIsAProxyPFvPvR16TMemberInspectorES1_S1_ii
fun:_ZNK4ROOT20TQObjectInitBehavior11CreateClassEPKcsRKSt9type_infoP16TVirtualIsAProxyPFvPvR16TMemberInspectorES2_S2_ii
fun:_ZN4ROOT17TGenericClassInfo8GetClassEv
fun:_ZN8TQObject10DictionaryEv
fun:_ZNK5TROOT9LoadClassEPKcb
fun:_ZN6TClass8GetClassEPKcbb
fun:_ZN10TBaseClass15GetClassPointerEb
fun:_ZN8TQObject23CollectClassSignalListsER5TListP6TClass
}
{
root_jets_203
Memcheck:Leak
match-leak-kinds: possible
fun:_Znwm
fun:_ZN8TStorage11ObjectAllocEm
fun:_ZN6TClass4InitEPKcsPKSt9type_infoP16TVirtualIsAProxyPFvPvR16TMemberInspectorES1_S1_iib
fun:_ZN6TClassC1EPKcsRKSt9type_infoP16TVirtualIsAProxyPFvPvR16TMemberInspectorES1_S1_iib
fun:_ZN7TQClassC1EPKcsRKSt9type_infoP16TVirtualIsAProxyPFvPvR16TMemberInspectorES1_S1_ii
fun:_ZNK4ROOT20TQObjectInitBehavior11CreateClassEPKcsRKSt9type_infoP16TVirtualIsAProxyPFvPvR16TMemberInspectorES2_S2_ii
fun:_ZN4ROOT17TGenericClassInfo8GetClassEv
fun:_ZN12TFileHandler5ClassEv
fun:_ZN8TQObject4EmitEPKc
fun:_ZN5TRintC1EPKcPiPPcPvib
fun:main
}
{
root_jets_204
Memcheck:Leak
match-leak-kinds: possible
fun:_Znwm
fun:_ZN8TStorage11ObjectAllocEm
fun:_ZN6TClass4InitEPKcsPKSt9type_infoP16TVirtualIsAProxyPFvPvR16TMemberInspectorES1_S1_iib
fun:_ZN6TClassC1EPKcsRKSt9type_infoP16TVirtualIsAProxyPFvPvR16TMemberInspectorES1_S1_iib
fun:_ZN7TQClassC1EPKcsRKSt9type_infoP16TVirtualIsAProxyPFvPvR16TMemberInspectorES1_S1_ii
fun:_ZNK4ROOT20TQObjectInitBehavior11CreateClassEPKcsRKSt9type_infoP16TVirtualIsAProxyPFvPvR16TMemberInspectorES2_S2_ii
fun:_ZN4ROOT17TGenericClassInfo8GetClassEv
fun:_ZN15TMessageHandler5ClassEv
fun:_ZN8TQObject4EmitEPKc
fun:_ZN15TMessageHandler6NotifyEv
fun:_ZN15TMessageHandler13HandleMessageEiPK7TObject
fun:_ZN5TROOT7MessageEiPK7TObject
}
{
root_jets_205
Memcheck:Leak
match-leak-kinds: possible
fun:_Znwm
fun:_ZN8TStorage11ObjectAllocEm
fun:_ZN6TClass4InitEPKcsPKSt9type_infoP16TVirtualIsAProxyPFvPvR16TMemberInspectorES1_S1_iib
fun:_ZN6TClassC1EPKcsRKSt9type_infoP16TVirtualIsAProxyPFvPvR16TMemberInspectorES1_S1_iib
fun:_ZN7TQClassC1EPKcsRKSt9type_infoP16TVirtualIsAProxyPFvPvR16TMemberInspectorES1_S1_ii
fun:_ZNK4ROOT20TQObjectInitBehavior11CreateClassEPKcsRKSt9type_infoP16TVirtualIsAProxyPFvPvR16TMemberInspectorES2_S2_ii
fun:_ZN4ROOT17TGenericClassInfo8GetClassEv
fun:_ZN5TRint5ClassEv
fun:_ZN8TQObject4EmitEPKcl
fun:_ZN12TApplication9TerminateEi
fun:_ZN5TRint3RunEb
fun:main
}
{
root_jets_206
Memcheck:Leak
match-leak-kinds: possible
fun:_Znwm
fun:_ZN8TStorage11ObjectAllocEm
fun:_ZN6TClass4InitEPKcsPKSt9type_infoP16TVirtualIsAProxyPFvPvR16TMemberInspectorES1_S1_iib
fun:_ZN6TClassC1EPKcsRKSt9type_infoP16TVirtualIsAProxyPFvPvR16TMemberInspectorES1_S1_iib
fun:_ZN7TQClassC1EPKcsRKSt9type_infoP16TVirtualIsAProxyPFvPvR16TMemberInspectorES1_S1_ii
fun:_ZNK4ROOT20TQObjectInitBehavior11CreateClassEPKcsRKSt9type_infoP16TVirtualIsAProxyPFvPvR16TMemberInspectorES2_S2_ii
fun:_ZN4ROOT17TGenericClassInfo8GetClassEv
fun:_ZN12TApplication10DictionaryEv
fun:_ZNK5TROOT9LoadClassEPKcb
fun:_ZN6TClass8GetClassEPKcbb
fun:_ZN10TBaseClass15GetClassPointerEb
fun:_ZN8TQObject23CollectClassSignalListsER5TListP6TClass
}
{
root_jets_207
Memcheck:Leak
match-leak-kinds: possible
fun:_Znwm
fun:_ZN5TList7NewLinkEP7TObjectP8TObjLink
fun:_ZN5TList7AddLastEP7TObject
fun:_ZN5TCint23CreateListOfBaseClassesEP6TClass
fun:_ZN6TClass14GetListOfBasesEv
fun:_ZN6TClass12GetBaseClassEPKS_
fun:_ZNK6TClass12InheritsFromEPKS_
fun:_ZNK6TClass8PropertyEv
fun:_ZNK6TClass9IsForeignEv
fun:_ZN6TClass13PostLoadCheckEv
fun:_ZNK5TROOT9LoadClassEPKcb
fun:_ZN6TClass8GetClassEPKcbb
}
{
root_jets_208
Memcheck:Leak
match-leak-kinds: possible
fun:_Znwm
fun:_ZN5TList7NewLinkEP7TObjectP8TObjLink
fun:_ZN5TList7AddLastEP7TObject
fun:_ZN5TCint23CreateListOfBaseClassesEP6TClass
fun:_ZN6TClass14GetListOfBasesEv
fun:_ZN6TClass12GetBaseClassEPKS_
fun:_ZNK6TClass12InheritsFromEPKS_
fun:_ZNK6TClass8PropertyEv
fun:_ZNK6TClass9IsForeignEv
fun:_ZN6TClass13PostLoadCheckEv
fun:_ZNK5TROOT9LoadClassEPKcb
fun:_ZN6TClass8GetClassEPKcbb
}
{
root_jets_209
Memcheck:Leak
match-leak-kinds: possible
fun:_Znam
fun:_ZN7TString7ReplaceEiiPKci
fun:_ZN13TStreamerInfo7CompileEv
fun:_ZN13TStreamerInfo8BuildOldEv
fun:_ZNK6TClass15GetStreamerInfoEi
fun:_ZN11TBufferFile10ReadClonesEP12TClonesArrayis
fun:_ZN12TClonesArray8StreamerER7TBuffer
fun:_ZN11TBufferFile13ReadObjectAnyEPK6TClass
fun:_ZrsI7TObjectER7TBufferS2_RPT_
fun:_ZN5TList8StreamerER7TBuffer
fun:_ZN11TBufferFile13ReadObjectAnyEPK6TClass
fun:_ZN11TBufferFile13ReadFastArrayEPPvPK6TClassibP15TMemberStreamerS4_
}
{
root_jets_210
Memcheck:Leak
match-leak-kinds: possible
fun:_Znam
fun:_ZN7TString7ReplaceEiiPKci
fun:_ZN13TStreamerInfo7CompileEv
fun:_ZN13TStreamerInfo8BuildOldEv
fun:_ZN11TBufferFile15ReadClassBufferEPK6TClassPvS2_
fun:_ZN11AliAODVZERO8StreamerER7TBuffer
fun:_ZN11TBufferFile13ReadObjectAnyEPK6TClass
fun:_ZrsI7TObjectER7TBufferS2_RPT_
fun:_ZN5TList8StreamerER7TBuffer
fun:_ZN11TBufferFile13ReadObjectAnyEPK6TClass
fun:_ZN11TBufferFile13ReadFastArrayEPPvPK6TClassibP15TMemberStreamerS4_
fun:_ZN13TStreamerInfo10ReadBufferIPPcEEiR7TBufferRKT_iiii
}
{
root_jets_211
Memcheck:Leak
match-leak-kinds: possible
fun:_Znwm
fun:_ZNSs4_Rep9_S_createEmmRKSaIcE
fun:_ZNSs9_M_mutateEmmm
fun:_ZNSs15_M_replace_safeEmmPKcm
fun:_ZN9TClassRef6AssignEP6TClass
fun:_ZN10TBaseClass15GetClassPointerEb
fun:_ZN8TQObject23CollectClassSignalListsER5TListP6TClass
fun:_ZN8TQObject4EmitEPKc
fun:_ZN15TMessageHandler6NotifyEv
fun:_ZN15TMessageHandler13HandleMessageEiPK7TObject
fun:_ZN5TROOT7MessageEiPK7TObject
fun:_ZNK7TObject5ErrorEPKcS1_z
}
{
root_jets_212
Memcheck:Leak
match-leak-kinds: possible
fun:_Znwm
fun:_ZNSs4_Rep9_S_createEmmRKSaIcE
fun:_ZNSs9_M_mutateEmmm
fun:_ZNSs15_M_replace_safeEmmPKcm
fun:_ZN9TClassRef6AssignEP6TClass
fun:_ZN4ROOT14TSchemaRuleSet8SetClassEP6TClass
fun:_ZN6TClass14GetSchemaRulesEb
fun:_ZN6TClass4InitEPKcsPKSt9type_infoP16TVirtualIsAProxyPFvPvR16TMemberInspectorES1_S1_iib
fun:_ZN6TClassC1EPKcsRKSt9type_infoP16TVirtualIsAProxyPFvPvR16TMemberInspectorES1_S1_iib
fun:_ZN4ROOT11CreateClassEPKcsRKSt9type_infoP16TVirtualIsAProxyPFvPvR16TMemberInspectorES1_S1_ii
fun:_ZN4ROOT17TGenericClassInfo8GetClassEv
fun:_ZNK5TROOT9LoadClassEPKcb
}
{
root_jets_213
Memcheck:Leak
match-leak-kinds: possible
fun:_Znwm
fun:_ZNSs4_Rep9_S_createEmmRKSaIcE
fun:_ZNSs9_M_mutateEmmm
fun:_ZNSs15_M_replace_safeEmmPKcm
fun:_ZN9TClassRefC1EP6TClass
fun:_ZN19TGenCollectionProxyC1ERKN4ROOT20TCollectionProxyInfoEP6TClass
fun:_ZN23TCollectionProxyFactory16GenExplicitProxyERKN4ROOT20TCollectionProxyInfoEP6TClass
fun:_ZN6TClass18SetCollectionProxyERKN4ROOT20TCollectionProxyInfoE
fun:_ZN4ROOT17TGenericClassInfo8GetClassEv
fun:_ZNK5TROOT9LoadClassEPKcb
fun:_ZN6TClass8GetClassEPKcbb
fun:_ZN14TBuildRealData7InspectEP6TClassPKcS3_PKv
}
{
root_jets_214
Memcheck:Leak
match-leak-kinds: possible
fun:_Znwm
fun:_ZNSs4_Rep9_S_createEmmRKSaIcE
fun:_ZNSs9_M_mutateEmmm
fun:_ZNSs15_M_replace_safeEmmPKcm
fun:_ZN9TClassRefC1EP6TClass
fun:_ZN19TGenCollectionProxyC1ERKN4ROOT20TCollectionProxyInfoEP6TClass
fun:_ZN22TGenCollectionStreamerC1ERKN4ROOT20TCollectionProxyInfoEP6TClass
fun:_ZN23TCollectionProxyFactory19GenExplicitStreamerERKN4ROOT20TCollectionProxyInfoEP6TClass
fun:_ZN23TCollectionProxyFactory24GenExplicitClassStreamerERKN4ROOT20TCollectionProxyInfoEP6TClass
fun:_ZN6TClass18SetCollectionProxyERKN4ROOT20TCollectionProxyInfoE
fun:_ZN4ROOT17TGenericClassInfo8GetClassEv
fun:_ZNK5TROOT9LoadClassEPKcb
}
{
root_jets_215
Memcheck:Leak
match-leak-kinds: possible
fun:_Znwm
fun:_ZNSs4_Rep9_S_createEmmRKSaIcE
fun:_ZNSs9_M_mutateEmmm
fun:_ZNSs15_M_replace_safeEmmPKcm
fun:_ZN19TGenCollectionProxyC1ERKN4ROOT20TCollectionProxyInfoEP6TClass
fun:_ZN22TGenCollectionStreamerC1ERKN4ROOT20TCollectionProxyInfoEP6TClass
fun:_ZN23TCollectionProxyFactory19GenExplicitStreamerERKN4ROOT20TCollectionProxyInfoEP6TClass
fun:_ZN23TCollectionProxyFactory24GenExplicitClassStreamerERKN4ROOT20TCollectionProxyInfoEP6TClass
fun:_ZN6TClass18SetCollectionProxyERKN4ROOT20TCollectionProxyInfoE
fun:_ZN4ROOT17TGenericClassInfo8GetClassEv
fun:_ZNK5TROOT9LoadClassEPKcb
fun:_ZN6TClass8GetClassEPKcbb
}
{
root_jets_216
Memcheck:Leak
match-leak-kinds: possible
fun:_Znwm
fun:_ZN8TStorage11ObjectAllocEm
fun:_ZN5TCint23CreateListOfBaseClassesEP6TClass
fun:_ZN6TClass14GetListOfBasesEv
fun:_ZN8TQObject23CollectClassSignalListsER5TListP6TClass
fun:_ZN8TQObject4EmitEPKc
fun:_ZN5TRintC1EPKcPiPPcPvib
fun:main
}
{
root_jets_217
Memcheck:Leak
match-leak-kinds: possible
fun:_Znwm
fun:_ZN8TStorage11ObjectAllocEm
fun:_ZN5TCint23CreateListOfBaseClassesEP6TClass
fun:_ZN6TClass14GetListOfBasesEv
fun:_ZN6TClass12GetBaseClassEPKS_
fun:_ZNK6TClass12InheritsFromEPKS_
fun:_ZNK6TClass8PropertyEv
fun:_ZNK6TClass9IsForeignEv
fun:_ZN6TClass13PostLoadCheckEv
fun:_ZNK5TROOT9LoadClassEPKcb
fun:_ZN6TClass8GetClassEPKcbb
fun:_ZN10TBaseClass15GetClassPointerEb
}
{
root_jets_218
Memcheck:Leak
match-leak-kinds: possible
fun:_Znwm
fun:_ZN8TStorage11ObjectAllocEm
fun:_ZN5TCint23CreateListOfBaseClassesEP6TClass
fun:_ZN6TClass14GetListOfBasesEv
fun:_ZN8TQObject23CollectClassSignalListsER5TListP6TClass
fun:_ZN8TQObject4EmitEPKc
fun:_ZN5TRintC1EPKcPiPPcPvib
fun:main
}
{
root_jets_219
Memcheck:Leak
match-leak-kinds: possible
fun:_Znwm
fun:_ZN8TStorage11ObjectAllocEm
fun:_ZN5TCint23CreateListOfBaseClassesEP6TClass
fun:_ZN6TClass14GetListOfBasesEv
fun:_ZN8TQObject23CollectClassSignalListsER5TListP6TClass
fun:_ZN8TQObject4EmitEPKc
fun:_ZN15TMessageHandler6NotifyEv
fun:_ZN15TMessageHandler13HandleMessageEiPK7TObject
fun:_ZN5TROOT7MessageEiPK7TObject
fun:_ZNK7TObject5ErrorEPKcS1_z
fun:_ZN11TBufferFile13ReadObjectAnyEPK6TClass
fun:_ZrsI7TObjectER7TBufferS2_RPT_
}
{
root_jets_220
Memcheck:Leak
match-leak-kinds: possible
fun:_Znwm
fun:_ZN8TStorage11ObjectAllocEm
fun:_ZN5TCint23CreateListOfBaseClassesEP6TClass
fun:_ZN6TClass14GetListOfBasesEv
fun:_ZN8TQObject23CollectClassSignalListsER5TListP6TClass
fun:_ZN8TQObject4EmitEPKcl
fun:_ZN12TApplication9TerminateEi
fun:_ZN5TRint3RunEb
fun:main
}
{
root_jets_221
Memcheck:Leak
match-leak-kinds: possible
fun:_Znwm
fun:_ZN5TCint23CreateListOfBaseClassesEP6TClass
fun:_ZN6TClass14GetListOfBasesEv
fun:_ZN8TQObject23CollectClassSignalListsER5TListP6TClass
fun:_ZN8TQObject4EmitEPKc
fun:_ZN15TMessageHandler6NotifyEv
fun:_ZN15TMessageHandler13HandleMessageEiPK7TObject
fun:_ZN5TROOT7MessageEiPK7TObject
fun:_ZNK7TObject5ErrorEPKcS1_z
fun:_ZN11TBufferFile13ReadObjectAnyEPK6TClass
fun:_ZrsI7TObjectER7TBufferS2_RPT_
fun:_ZN5TList8StreamerER7TBuffer
}
{
root_jets_222
Memcheck:Leak
match-leak-kinds: definite
fun:_Znwm
fun:_ZN8TStorage11ObjectAllocEm
fun:_ZN11AliAODEventC1Ev
fun:_ZN18AliAODInputHandler4InitEP5TTreePKc
fun:_ZN18AliAnalysisManager4InitEP5TTree
fun:_ZN19AliAnalysisSelector4InitEP5TTree
fun:_ZN11TTreePlayer7ProcessEP9TSelectorPKcxx
fun:_ZN18AliAnalysisManager13StartAnalysisEPKcP5TTreexx
fun:_ZL23G__G__ANALYSIS_208_0_14P8G__valuePKcP8G__parami
fun:_ZN4Cint19G__ExceptionWrapperEPFiP8G__valuePKcP8G__paramiES1_PcS5_i
fun:G__execute_call
fun:G__call_cppfunc
}
{
root_jets_223
Memcheck:Leak
match-leak-kinds: possible
fun:_Znam
fun:_ZN8TStorage5AllocEm
fun:_ZN9TObjArray4InitEii
fun:_ZN9TObjArrayC1Eii
fun:_ZN6TClass4InitEPKcsPKSt9type_infoP16TVirtualIsAProxyPFvPvR16TMemberInspectorES1_S1_iib
fun:_ZN6TClassC1EPKcsRKSt9type_infoP16TVirtualIsAProxyPFvPvR16TMemberInspectorES1_S1_iib
fun:_ZN7TQClassC1EPKcsRKSt9type_infoP16TVirtualIsAProxyPFvPvR16TMemberInspectorES1_S1_ii
fun:_ZNK4ROOT20TQObjectInitBehavior11CreateClassEPKcsRKSt9type_infoP16TVirtualIsAProxyPFvPvR16TMemberInspectorES2_S2_ii
fun:_ZN4ROOT17TGenericClassInfo8GetClassEv
fun:_ZN14TSignalHandler5ClassEv
fun:_ZN8TQObject4EmitEPKc
fun:_ZN5TRintC1EPKcPiPPcPvib
}
{
root_jets_224
Memcheck:Leak
match-leak-kinds: possible
fun:_Znam
fun:_ZN8TStorage5AllocEm
fun:_ZN9TObjArray4InitEii
fun:_ZN9TObjArrayC1Eii
fun:_ZN6TClass4InitEPKcsPKSt9type_infoP16TVirtualIsAProxyPFvPvR16TMemberInspectorES1_S1_iib
fun:_ZN6TClassC1EPKcsRKSt9type_infoP16TVirtualIsAProxyPFvPvR16TMemberInspectorES1_S1_iib
fun:_ZN7TQClassC1EPKcsRKSt9type_infoP16TVirtualIsAProxyPFvPvR16TMemberInspectorES1_S1_ii
fun:_ZNK4ROOT20TQObjectInitBehavior11CreateClassEPKcsRKSt9type_infoP16TVirtualIsAProxyPFvPvR16TMemberInspectorES2_S2_ii
fun:_ZN4ROOT17TGenericClassInfo8GetClassEv
fun:_ZN14TSysEvtHandler10DictionaryEv
fun:_ZNK5TROOT9LoadClassEPKcb
fun:_ZN6TClass8GetClassEPKcbb
}
{
root_jets_225
Memcheck:Leak
match-leak-kinds: possible
fun:_Znam
fun:_ZN8TStorage5AllocEm
fun:_ZN9TObjArray4InitEii
fun:_ZN9TObjArrayC1Eii
fun:_ZN6TClass4InitEPKcsPKSt9type_infoP16TVirtualIsAProxyPFvPvR16TMemberInspectorES1_S1_iib
fun:_ZN6TClassC1EPKcsRKSt9type_infoP16TVirtualIsAProxyPFvPvR16TMemberInspectorES1_S1_iib
fun:_ZN7TQClassC1EPKcsRKSt9type_infoP16TVirtualIsAProxyPFvPvR16TMemberInspectorES1_S1_ii
fun:_ZNK4ROOT20TQObjectInitBehavior11CreateClassEPKcsRKSt9type_infoP16TVirtualIsAProxyPFvPvR16TMemberInspectorES2_S2_ii
fun:_ZN4ROOT17TGenericClassInfo8GetClassEv
fun:_ZN12TFileHandler5ClassEv
fun:_ZN8TQObject4EmitEPKc
fun:_ZN5TRintC1EPKcPiPPcPvib
}
{
root_jets_226
Memcheck:Leak
match-leak-kinds: possible
fun:_Znam
fun:_ZN8TStorage5AllocEm
fun:_ZN9TObjArray4InitEii
fun:_ZN9TObjArrayC1Eii
fun:_ZN6TClass4InitEPKcsPKSt9type_infoP16TVirtualIsAProxyPFvPvR16TMemberInspectorES1_S1_iib
fun:_ZN6TClassC1EPKcsRKSt9type_infoP16TVirtualIsAProxyPFvPvR16TMemberInspectorES1_S1_iib
fun:_ZN7TQClassC1EPKcsRKSt9type_infoP16TVirtualIsAProxyPFvPvR16TMemberInspectorES1_S1_ii
fun:_ZNK4ROOT20TQObjectInitBehavior11CreateClassEPKcsRKSt9type_infoP16TVirtualIsAProxyPFvPvR16TMemberInspectorES2_S2_ii
fun:_ZN4ROOT17TGenericClassInfo8GetClassEv
fun:_ZN15TMessageHandler5ClassEv
fun:_ZN8TQObject4EmitEPKc
fun:_ZN15TMessageHandler6NotifyEv
}
{
root_jets_227
Memcheck:Leak
match-leak-kinds: possible
fun:_Znam
fun:_ZN8TStorage5AllocEm
fun:_ZN9TObjArray4InitEii
fun:_ZN9TObjArrayC1Eii
fun:_ZN6TClass4InitEPKcsPKSt9type_infoP16TVirtualIsAProxyPFvPvR16TMemberInspectorES1_S1_iib
fun:_ZN6TClassC1EPKcsRKSt9type_infoP16TVirtualIsAProxyPFvPvR16TMemberInspectorES1_S1_iib
fun:_ZN7TQClassC1EPKcsRKSt9type_infoP16TVirtualIsAProxyPFvPvR16TMemberInspectorES1_S1_ii
fun:_ZNK4ROOT20TQObjectInitBehavior11CreateClassEPKcsRKSt9type_infoP16TVirtualIsAProxyPFvPvR16TMemberInspectorES2_S2_ii
fun:_ZN4ROOT17TGenericClassInfo8GetClassEv
fun:_ZN5TRint5ClassEv
fun:_ZN8TQObject4EmitEPKcl
fun:_ZN12TApplication9TerminateEi
}
{
root_jets_228
Memcheck:Leak
match-leak-kinds: possible
fun:_Znam
fun:_ZN8TStorage5AllocEm
fun:_ZN9TObjArray4InitEii
fun:_ZN9TObjArrayC1Eii
fun:_ZN6TClass4InitEPKcsPKSt9type_infoP16TVirtualIsAProxyPFvPvR16TMemberInspectorES1_S1_iib
fun:_ZN6TClassC1EPKcsRKSt9type_infoP16TVirtualIsAProxyPFvPvR16TMemberInspectorES1_S1_iib
fun:_ZN7TQClassC1EPKcsRKSt9type_infoP16TVirtualIsAProxyPFvPvR16TMemberInspectorES1_S1_ii
fun:_ZNK4ROOT20TQObjectInitBehavior11CreateClassEPKcsRKSt9type_infoP16TVirtualIsAProxyPFvPvR16TMemberInspectorES2_S2_ii
fun:_ZN4ROOT17TGenericClassInfo8GetClassEv
fun:_ZN12TApplication10DictionaryEv
fun:_ZNK5TROOT9LoadClassEPKcb
fun:_ZN6TClass8GetClassEPKcbb
}
{
root_jets_229
Memcheck:Leak
match-leak-kinds: possible
fun:_Znwm
fun:_ZNSs4_Rep9_S_createEmmRKSaIcE
fun:_ZNSs9_M_mutateEmmm
fun:_ZNSs15_M_replace_safeEmmPKcm
fun:_ZN9TClassRef6AssignEP6TClass
fun:_ZN10TBaseClass15GetClassPointerEb
fun:_ZN6TClass12GetBaseClassEPKS_
fun:_ZNK6TClass12InheritsFromEPKS_
fun:_ZN14TBuildRealData7InspectEP6TClassPKcS3_PKv
fun:_ZN9TObjArray11ShowMembersER16TMemberInspector
fun:_ZN16TMemberInspector13InspectMemberI9TObjArrayEEvRT_PKc
fun:_ZN5TTree11ShowMembersER16TMemberInspector
}
{
root_jets_230
Memcheck:Leak
match-leak-kinds: possible
fun:_Znwm
fun:_ZNSs4_Rep9_S_createEmmRKSaIcE
fun:_ZNSs9_M_mutateEmmm
fun:_ZNSs15_M_replace_safeEmmPKcm
fun:_ZN9TClassRef6AssignEP6TClass
fun:_ZN10TBaseClass15GetClassPointerEb
fun:_ZN6TClass12GetBaseClassEPKS_
fun:_ZN6TClass12GetBaseClassEPKS_
fun:_ZNK6TClass12InheritsFromEPKS_
fun:_ZN14TBuildRealData7InspectEP6TClassPKcS3_PKv
fun:_ZN5TAxis11ShowMembersER16TMemberInspector
fun:_ZN3TH111ShowMembersER16TMemberInspector
}
{
root_jets_231
Memcheck:Leak
match-leak-kinds: possible
fun:_Znwm
fun:_ZNSs4_Rep9_S_createEmmRKSaIcE
fun:_ZNSs9_M_mutateEmmm
fun:_ZNSs15_M_replace_safeEmmPKcm
fun:_ZN9TClassRef6AssignEP6TClass
fun:_ZN10TBaseClass15GetClassPointerEb
fun:_ZN6TClass12GetBaseClassEPKS_
fun:_ZNK6TClass12InheritsFromEPKS_
fun:_ZN14TBuildRealData7InspectEP6TClassPKcS3_PKv
fun:_ZNK6TClass15CallShowMembersEPvR16TMemberInspectori
fun:_ZN16TMemberInspector13InspectMemberEPKcPvS1_b
fun:_ZN3TF111ShowMembersER16TMemberInspector
}
{
root_jets_232
Memcheck:Leak
match-leak-kinds: possible
fun:_Znam
fun:_ZN8TStorage5AllocEm
fun:_ZN9TObjArray4InitEii
fun:_ZN9TObjArrayC1Eii
fun:_ZN6TClass4InitEPKcsPKSt9type_infoP16TVirtualIsAProxyPFvPvR16TMemberInspectorES1_S1_iib
fun:_ZN6TClassC1EPKcsRKSt9type_infoP16TVirtualIsAProxyPFvPvR16TMemberInspectorES1_S1_iib
fun:_ZN7TQClassC1EPKcsRKSt9type_infoP16TVirtualIsAProxyPFvPvR16TMemberInspectorES1_S1_ii
fun:_ZNK4ROOT20TQObjectInitBehavior11CreateClassEPKcsRKSt9type_infoP16TVirtualIsAProxyPFvPvR16TMemberInspectorES2_S2_ii
fun:_ZN4ROOT17TGenericClassInfo8GetClassEv
fun:_ZN8TQObject10DictionaryEv
fun:_ZNK5TROOT9LoadClassEPKcb
fun:_ZN6TClass8GetClassEPKcbb
}
{
root_jets_233
Memcheck:Leak
match-leak-kinds: possible
fun:_Znam
fun:_ZN13TStreamerInfo7CompileEv
fun:_ZN13TStreamerInfo5BuildEv
fun:_ZNK6TClass15GetStreamerInfoEi
fun:_ZN13TStreamerInfo5BuildEv
fun:_ZN11TBufferFile15ReadClassBufferEPK6TClassPvS2_
fun:_ZN13TStreamerInfo8StreamerER7TBuffer
fun:_ZN11TBufferFile13ReadObjectAnyEPK6TClass
fun:_ZrsI7TObjectER7TBufferS2_RPT_
fun:_ZN5TList8StreamerER7TBuffer
fun:_ZN4TKey17ReadObjWithBufferEPc
fun:_ZN5TFile19GetStreamerInfoListEv
}
{
root_jets_234
Memcheck:Leak
match-leak-kinds: possible
fun:_Znam
fun:_ZN13TStreamerInfo7CompileEv
fun:_ZN13TStreamerInfo5BuildEv
fun:_ZN11TBufferFile15ReadClassBufferEPK6TClassPvS2_
fun:_ZN11TBufferFile13ReadObjectAnyEPK6TClass
fun:_ZrsI7TObjectER7TBufferS2_RPT_
fun:_ZN5TList8StreamerER7TBuffer
fun:_ZN11TBufferFile13ReadObjectAnyEPK6TClass
fun:_ZrsI7TObjectER7TBufferS2_RPT_
fun:_ZN5TList8StreamerER7TBuffer
fun:_ZN4TKey17ReadObjWithBufferEPc
fun:_ZN5TFile19GetStreamerInfoListEv
}
{
root_jets_235
Memcheck:Leak
match-leak-kinds: possible
fun:_Znam
fun:_ZN13TStreamerInfo7CompileEv
fun:_ZN13TStreamerInfo8BuildOldEv
fun:_ZN11TBufferFile15ReadClassBufferEPK6TClassPvS2_
fun:_ZN17AliAnalysisFilter8StreamerER7TBuffer
fun:_ZN11TBufferFile13ReadObjectAnyEPK6TClass
fun:_ZrsI7TObjectER7TBufferS2_RPT_
fun:_ZN5TList8StreamerER7TBuffer
fun:_ZN11TBufferFile13ReadObjectAnyEPK6TClass
fun:_ZN11TBufferFile13ReadFastArrayEPPvPK6TClassibP15TMemberStreamerS4_
fun:_ZN13TStreamerInfo10ReadBufferIPPcEEiR7TBufferRKT_iiii
fun:_ZN20TStreamerInfoActions17GenericReadActionER7TBufferPvPKNS_14TConfigurationE
}
{
root_jets_236
Memcheck:Leak
match-leak-kinds: possible
fun:_Znam
fun:_ZN13TStreamerInfo7CompileEv
fun:_ZN13TStreamerInfo8BuildOldEv
fun:_ZN11TBufferFile15ReadClassBufferEPK6TClassPvS2_
fun:_ZN11TBufferFile13ReadFastArrayEPPvPK6TClassibP15TMemberStreamerS4_
fun:_ZN13TStreamerInfo10ReadBufferIPPcEEiR7TBufferRKT_iiii
fun:_ZN20TStreamerInfoActions17GenericReadActionER7TBufferPvPKNS_14TConfigurationE
fun:_ZN11TBufferFile13ApplySequenceERKN20TStreamerInfoActions15TActionSequenceEPv
fun:_ZN11TBufferFile15ReadClassBufferEPK6TClassPvS2_
fun:_ZN15AliESDtrackCuts8StreamerER7TBuffer
fun:_ZN11TBufferFile13ReadObjectAnyEPK6TClass
fun:_ZrsI7TObjectER7TBufferS2_RPT_
}
{
root_jets_237
Memcheck:Leak
match-leak-kinds: possible
fun:_Znam
fun:_ZN13TStreamerInfo7CompileEv
fun:_ZN13TStreamerInfo8BuildOldEv
fun:_ZN11TBufferFile15ReadClassBufferEPK6TClassPvijjS2_
fun:_ZN4TH2F8StreamerER7TBuffer
fun:_ZN11TBufferFile13ReadFastArrayEPPvPK6TClassibP15TMemberStreamerS4_
fun:_ZN13TStreamerInfo10ReadBufferIPPcEEiR7TBufferRKT_iiii
fun:_ZN20TStreamerInfoActions17GenericReadActionER7TBufferPvPKNS_14TConfigurationE
fun:_ZN11TBufferFile13ApplySequenceERKN20TStreamerInfoActions15TActionSequenceEPv
fun:_ZN11TBufferFile15ReadClassBufferEPK6TClassPvS2_
fun:_ZN15AliESDtrackCuts8StreamerER7TBuffer
fun:_ZN11TBufferFile13ReadObjectAnyEPK6TClass
}
{
root_jets_238
Memcheck:Leak
match-leak-kinds: possible
fun:_Znam
fun:_ZN13TStreamerInfo7CompileEv
fun:_ZN13TStreamerInfo8BuildOldEv
fun:_ZN11TBufferFile15ReadClassBufferEPK6TClassPvS2_
fun:_ZN17AliTOFTriggerMask8StreamerER7TBuffer
fun:_ZN11TBufferFile13ReadObjectAnyEPK6TClass
fun:_ZN11TBufferFile13ReadFastArrayEPPvPK6TClassibP15TMemberStreamerS4_
fun:_ZN13TStreamerInfo10ReadBufferIPPcEEiR7TBufferRKT_iiii
fun:_ZN20TStreamerInfoActions17GenericReadActionER7TBufferPvPKNS_14TConfigurationE
fun:_ZN11TBufferFile13ApplySequenceERKN20TStreamerInfoActions15TActionSequenceEPv
fun:_ZN11TBufferFile15ReadClassBufferEPK6TClassPvS2_
fun:_ZN12AliTOFHeader8StreamerER7TBuffer
}
{
root_jets_239
Memcheck:Leak
match-leak-kinds: possible
fun:_Znam
fun:_ZN13TStreamerInfo7CompileEv
fun:_ZN13TStreamerInfo8BuildOldEv
fun:_ZNK6TClass15GetStreamerInfoEi
fun:_ZN13TStreamerInfo8BuildOldEv
fun:_ZN11TBufferFile15ReadClassBufferEPK6TClassPvijjS2_
fun:_ZN4TH2D8StreamerER7TBuffer
fun:_ZN11TBufferFile13ReadObjectAnyEPK6TClass
fun:_ZrsI7TObjectER7TBufferS2_RPT_
fun:_ZN5TList8StreamerER7TBuffer
fun:_ZN11TBufferFile13ReadObjectAnyEPK6TClass
fun:_ZN11TBufferFile13ReadFastArrayEPPvPK6TClassibP15TMemberStreamerS4_
}
{
root_jets_240
Memcheck:Leak
match-leak-kinds: possible
fun:_Znam
fun:_ZN13TStreamerInfo7CompileEv
fun:_ZN13TStreamerInfo8BuildOldEv
fun:_ZN11TBufferFile15ReadClassBufferEPK6TClassPvijjS2_
fun:_ZN4TH2D8StreamerER7TBuffer
fun:_ZN11TBufferFile13ReadObjectAnyEPK6TClass
fun:_ZrsI7TObjectER7TBufferS2_RPT_
fun:_ZN5TList8StreamerER7TBuffer
fun:_ZN11TBufferFile13ReadObjectAnyEPK6TClass
fun:_ZN11TBufferFile13ReadFastArrayEPPvPK6TClassibP15TMemberStreamerS4_
fun:_ZN13TStreamerInfo10ReadBufferIPPcEEiR7TBufferRKT_iiii
fun:_ZN20TStreamerInfoActions17GenericReadActionER7TBufferPvPKNS_14TConfigurationE
}
{
root_jets_241
Memcheck:Leak
match-leak-kinds: possible
fun:_Znam
fun:_ZN13TStreamerInfo7CompileEv
fun:_ZN13TStreamerInfo8BuildOldEv
fun:_ZN11TBufferFile15ReadClassBufferEPK6TClassPvS2_
fun:_ZN10TBranchRef8StreamerER7TBuffer
fun:_ZN11TBufferFile13ReadObjectAnyEPK6TClass
fun:_ZN11TBufferFile13ReadFastArrayEPPvPK6TClassibP15TMemberStreamerS4_
fun:_ZN13TStreamerInfo10ReadBufferIPPcEEiR7TBufferRKT_iiii
fun:_ZN20TStreamerInfoActions17GenericReadActionER7TBufferPvPKNS_14TConfigurationE
fun:_ZN11TBufferFile13ApplySequenceERKN20TStreamerInfoActions15TActionSequenceEPv
fun:_ZN11TBufferFile15ReadClassBufferEPK6TClassPvijjS2_
fun:_ZN5TTree8StreamerER7TBuffer
}
{
root_jets_242
Memcheck:Leak
match-leak-kinds: possible
fun:_Znam
fun:_ZN13TStreamerInfo7CompileEv
fun:_ZN13TStreamerInfo8BuildOldEv
fun:_ZNK6TClass15GetStreamerInfoEi
fun:_ZN6TClass21BuildEmulatedRealDataEPKclPS_
fun:_ZN6TClass21BuildEmulatedRealDataEPKclPS_
fun:_ZN6TClass13BuildRealDataEPvb
fun:_ZN13TStreamerInfo8BuildOldEv
fun:_ZNK6TClass15GetStreamerInfoEi
fun:_ZN14TBranchElement8InitInfoEv
fun:_ZN14TBranchElement18SetupAddressesImplEv
fun:_ZN14TBranchElement8GetEntryExi
}
{
root_jets_243
Memcheck:Leak
match-leak-kinds: possible
fun:_Znwm
fun:_ZN8TStorage11ObjectAllocEm
fun:_ZN5TCint23CreateListOfBaseClassesEP6TClass
fun:_ZN6TClass14GetListOfBasesEv
fun:_ZN8TQObject23CollectClassSignalListsER5TListP6TClass
fun:_ZN8TQObject4EmitEPKc
fun:_ZN5TRintC1EPKcPiPPcPvib
fun:main
}
{
root_jets_244
Memcheck:Leak
match-leak-kinds: possible
fun:_Znwm
fun:_ZN8TStorage11ObjectAllocEm
fun:_ZN5TCint23CreateListOfBaseClassesEP6TClass
fun:_ZN6TClass14GetListOfBasesEv
fun:_ZN8TQObject23CollectClassSignalListsER5TListP6TClass
fun:_ZN8TQObject4EmitEPKc
fun:_ZN5TRintC1EPKcPiPPcPvib
fun:main
}
{
root_jets_245
Memcheck:Leak
match-leak-kinds: possible
fun:_Znwm
fun:_ZN8TStorage11ObjectAllocEm
fun:_ZN5TCint23CreateListOfBaseClassesEP6TClass
fun:_ZN6TClass14GetListOfBasesEv
fun:_ZN8TQObject23CollectClassSignalListsER5TListP6TClass
fun:_ZN8TQObject4EmitEPKcl
fun:_ZN12TApplication9TerminateEi
fun:_ZN5TRint3RunEb
fun:main
}
{
root_jets_246
Memcheck:Leak
match-leak-kinds: possible
fun:_Znam
fun:_ZN13TStreamerInfo7CompileEv
fun:_ZN13TStreamerInfo8BuildOldEv
fun:_ZNK6TClass15GetStreamerInfoEi
fun:_ZN13TStreamerInfo8BuildOldEv
fun:_ZNK6TClass15GetStreamerInfoEi
fun:_ZN13TStreamerInfo8BuildOldEv
fun:_ZNK6TClass15GetStreamerInfoEi
fun:_ZN11TBufferFile10ReadClonesEP12TClonesArrayis
fun:_ZN12TClonesArray8StreamerER7TBuffer
fun:_ZN11TBufferFile13ReadObjectAnyEPK6TClass
fun:_ZrsI7TObjectER7TBufferS2_RPT_
}
{
root_jets_247
Memcheck:Leak
match-leak-kinds: possible
fun:_Znam
fun:_ZN13TStreamerInfo7CompileEv
fun:_ZN13TStreamerInfo5BuildEv
fun:_ZN11TBufferFile15ReadClassBufferEPK6TClassPvS2_
fun:_ZN13TStreamerInfo8StreamerER7TBuffer
fun:_ZN11TBufferFile13ReadObjectAnyEPK6TClass
fun:_ZrsI7TObjectER7TBufferS2_RPT_
fun:_ZN5TList8StreamerER7TBuffer
fun:_ZN4TKey17ReadObjWithBufferEPc
fun:_ZN5TFile19GetStreamerInfoListEv
fun:_ZN5TFile16ReadStreamerInfoEv
fun:_ZN5TFile4InitEb
}
{
root_jets_248
Memcheck:Leak
match-leak-kinds: possible
fun:_Znam
fun:_ZN13TStreamerInfo7CompileEv
fun:_ZN13TStreamerInfo5BuildEv
fun:_ZN11TBufferFile15ReadClassBufferEPK6TClassPvijjS2_
fun:_ZN12TStreamerSTL8StreamerER7TBuffer
fun:_ZN11TBufferFile13ReadObjectAnyEPK6TClass
fun:_ZN9TObjArray8StreamerER7TBuffer
fun:_ZN11TBufferFile13ReadObjectAnyEPK6TClass
fun:_ZrsI9TObjArrayER7TBufferS2_RPT_
fun:_ZN13TStreamerInfo8StreamerER7TBuffer
fun:_ZN11TBufferFile13ReadObjectAnyEPK6TClass
fun:_ZrsI7TObjectER7TBufferS2_RPT_
}
{
root_jets_249
Memcheck:Leak
match-leak-kinds: possible
fun:_Znam
fun:_ZN13TStreamerInfo7CompileEv
fun:_ZN13TStreamerInfo8BuildOldEv
fun:_ZN11TBufferFile15ReadClassBufferEPK6TClassPvS2_
fun:_ZN12TLeafElement8StreamerER7TBuffer
fun:_ZN11TBufferFile13ReadObjectAnyEPK6TClass
fun:_ZN9TObjArray8StreamerER7TBuffer
fun:_ZN13TStreamerInfo10ReadBufferIPPcEEiR7TBufferRKT_iiii
fun:_ZN20TStreamerInfoActions17GenericReadActionER7TBufferPvPKNS_14TConfigurationE
fun:_ZN11TBufferFile13ApplySequenceERKN20TStreamerInfoActions15TActionSequenceEPv
fun:_ZN11TBufferFile15ReadClassBufferEPK6TClassPvijjS2_
fun:_ZN7TBranch8StreamerER7TBuffer
}
{
root_jets_250
Memcheck:Leak
match-leak-kinds: possible
fun:_Znam
fun:_ZN13TStreamerInfo7CompileEv
fun:_ZN13TStreamerInfo8BuildOldEv
fun:_ZNK6TClass15GetStreamerInfoEi
fun:_ZN13TStreamerInfo5BuildEv
fun:_ZNK6TClass15GetStreamerInfoEi
fun:_ZN13TStreamerInfo8BuildOldEv
fun:_ZN11TBufferFile15ReadClassBufferEPK6TClassPvS2_
fun:_ZN15AliESDtrackCuts8StreamerER7TBuffer
fun:_ZN11TBufferFile13ReadObjectAnyEPK6TClass
fun:_ZrsI7TObjectER7TBufferS2_RPT_
fun:_ZN5TList8StreamerER7TBuffer
}
{
root_jets_251
Memcheck:Leak
match-leak-kinds: possible
fun:_Znam
fun:_ZN13TStreamerInfo7CompileEv
fun:_ZN13TStreamerInfo8BuildOldEv
fun:_ZN11TBufferFile15ReadClassBufferEPK6TClassPvS2_
fun:_ZN11TBufferFile13ReadObjectAnyEPK6TClass
fun:_ZrsI7TObjectER7TBufferS2_RPT_
fun:_ZN5TList8StreamerER7TBuffer
fun:_ZN11TBufferFile13ReadObjectAnyEPK6TClass
fun:_ZN11TBufferFile13ReadFastArrayEPPvPK6TClassibP15TMemberStreamerS4_
fun:_ZN13TStreamerInfo10ReadBufferIPPcEEiR7TBufferRKT_iiii
fun:_ZN20TStreamerInfoActions17GenericReadActionER7TBufferPvPKNS_14TConfigurationE
fun:_ZN11TBufferFile13ApplySequenceERKN20TStreamerInfoActions15TActionSequenceEPv
}
{
root_jets_252
Memcheck:Leak
match-leak-kinds: possible
fun:_Znam
fun:_ZN13TStreamerInfo7CompileEv
fun:_ZN13TStreamerInfo8BuildOldEv
fun:_ZN11TBufferFile15ReadClassBufferEPK6TClassPvS2_
fun:_ZN11AliAODEvent8StreamerER7TBuffer
fun:_ZN11TBufferFile13ReadObjectAnyEPK6TClass
fun:_ZrsI7TObjectER7TBufferS2_RPT_
fun:_ZN5TList8StreamerER7TBuffer
fun:_ZN11TBufferFile13ReadObjectAnyEPK6TClass
fun:_ZN11TBufferFile13ReadFastArrayEPPvPK6TClassibP15TMemberStreamerS4_
fun:_ZN13TStreamerInfo10ReadBufferIPPcEEiR7TBufferRKT_iiii
fun:_ZN20TStreamerInfoActions17GenericReadActionER7TBufferPvPKNS_14TConfigurationE
}
{
root_jets_253
Memcheck:Leak
match-leak-kinds: possible
fun:_Znam
fun:_ZN13TStreamerInfo7CompileEv
fun:_ZN13TStreamerInfo8BuildOldEv
fun:_ZN11TBufferFile15ReadClassBufferEPK6TClassPvS2_
fun:_ZN11TBufferFile13ReadObjectAnyEPK6TClass
fun:_ZN11TBufferFile13ReadFastArrayEPPvPK6TClassibP15TMemberStreamerS4_
fun:_ZN13TStreamerInfo10ReadBufferIPPcEEiR7TBufferRKT_iiii
fun:_ZN20TStreamerInfoActions17GenericReadActionER7TBufferPvPKNS_14TConfigurationE
fun:_ZN11TBufferFile13ApplySequenceERKN20TStreamerInfoActions15TActionSequenceEPv
fun:_ZN11TBufferFile15ReadClassBufferEPK6TClassPvS2_
fun:_ZN11AliAODEvent8StreamerER7TBuffer
fun:_ZN11TBufferFile13ReadObjectAnyEPK6TClass
}
{
root_jets_254
Memcheck:Leak
match-leak-kinds: possible
fun:_Znam
fun:_ZN13TStreamerInfo7CompileEv
fun:_ZN13TStreamerInfo8BuildOldEv
fun:_ZNK6TClass15GetStreamerInfoEi
fun:_ZN13TStreamerInfo8BuildOldEv
fun:_ZNK6TClass15GetStreamerInfoEi
fun:_ZN13TStreamerInfo8BuildOldEv
fun:_ZNK6TClass15GetStreamerInfoEi
fun:_ZN13TStreamerInfo8BuildOldEv
fun:_ZNK6TClass15GetStreamerInfoEi
fun:_ZN11TBufferFile14WriteFastArrayEPPvPK6TClassibP15TMemberStreamer
fun:_ZN13TStreamerInfo14WriteBufferAuxIPPcEEiR7TBufferRKT_iiii
}
{
root_jets_255
Memcheck:Leak
match-leak-kinds: possible
fun:_Znam
fun:_ZN13TStreamerInfo7CompileEv
fun:_ZN13TStreamerInfo8BuildOldEv
fun:_ZNK6TClass15GetStreamerInfoEi
fun:_ZN13TStreamerInfo8BuildOldEv
fun:_ZNK6TClass15GetStreamerInfoEi
fun:_ZN14TBranchElement8InitInfoEv
fun:_ZN14TBranchElement10SetAddressEPv
fun:_ZN6TChain16SetBranchAddressEPKcPvPP7TBranch
fun:_ZN11AliAODEvent12ReadFromTreeEP5TTreePKc
fun:_ZN18AliAODInputHandler4InitEP5TTreePKc
fun:_ZN18AliAnalysisManager4InitEP5TTree
}
{
root_jets_256
Memcheck:Leak
match-leak-kinds: possible
fun:_Znwm
fun:_ZN8TStorage11ObjectAllocEm
fun:_ZN5TCint23CreateListOfBaseClassesEP6TClass
fun:_ZN6TClass14GetListOfBasesEv
fun:_ZN6TClass12GetBaseClassEPKS_
fun:_ZNK6TClass12InheritsFromEPKS_
fun:_ZNK6TClass8PropertyEv
fun:_ZNK6TClass9IsForeignEv
fun:_ZN6TClass13PostLoadCheckEv
fun:_ZNK5TROOT9LoadClassEPKcb
fun:_ZN6TClass8GetClassEPKcbb
fun:_ZN10TBaseClass15GetClassPointerEb
}
{
root_jets_257
Memcheck:Leak
match-leak-kinds: possible
fun:_Znwm
fun:_ZNSs4_Rep9_S_createEmmRKSaIcE
fun:_ZNSs9_M_mutateEmmm
fun:_ZNSs15_M_replace_safeEmmPKcm
fun:_ZN9TClassRef6AssignEP6TClass
fun:_ZN4ROOT14TSchemaRuleSet8SetClassEP6TClass
fun:_ZN6TClass14GetSchemaRulesEb
fun:_ZN6TClass7AddRuleEPKc
fun:_ZN12_GLOBAL__N_116ReadRulesContentEP8_IO_FILE
fun:_ZN6TClass9ReadRulesEv
fun:_ZN5TROOTC1EPKcS1_PPFvvE
fun:_ZN4ROOT7GetROOTEv
}
{
root_jets_258
Memcheck:Leak
match-leak-kinds: possible
fun:_Znwm
fun:_ZN5TCint23CreateListOfBaseClassesEP6TClass
fun:_ZN6TClass14GetListOfBasesEv
fun:_ZN6TClass12GetBaseClassEPKS_
fun:_ZNK6TClass12InheritsFromEPKS_
fun:_ZNK6TClass8PropertyEv
fun:_ZNK6TClass9IsForeignEv
fun:_ZN6TClass13PostLoadCheckEv
fun:_ZNK5TROOT9LoadClassEPKcb
fun:_ZN6TClass8GetClassEPKcbb
fun:_ZN10TBaseClass15GetClassPointerEb
fun:_ZN8TQObject23CollectClassSignalListsER5TListP6TClass
}
{
root_jets_259
Memcheck:Leak
match-leak-kinds: possible
fun:_Znwm
fun:_ZNSs4_Rep9_S_createEmmRKSaIcE
fun:_ZNSs12_S_constructIPKcEEPcT_S3_RKSaIcESt20forward_iterator_tag
fun:_ZNSsC1EPKcRKSaIcE
fun:_ZN6TClass8AddClassEPS_
fun:_ZN6TClass4InitEPKcsPKSt9type_infoP16TVirtualIsAProxyPFvPvR16TMemberInspectorES1_S1_iib
fun:_ZN6TClassC1EPKcsRKSt9type_infoP16TVirtualIsAProxyPFvPvR16TMemberInspectorES1_S1_iib
fun:_ZN4ROOT11CreateClassEPKcsRKSt9type_infoP16TVirtualIsAProxyPFvPvR16TMemberInspectorES1_S1_ii
fun:_ZN4ROOT17TGenericClassInfo8GetClassEv
fun:_ZNK5TROOT9LoadClassEPKcb
fun:_ZN6TClass8GetClassEPKcbb
fun:_ZN14TBuildRealData7InspectEP6TClassPKcS3_PKv
}
{
root_jets_260
Memcheck:Leak
match-leak-kinds: possible
fun:_Znam
fun:_ZN13TStreamerInfo7CompileEv
fun:_ZN13TStreamerInfo5BuildEv
fun:_ZN11TBufferFile15ReadClassBufferEPK6TClassPvijjS2_
fun:_ZN21TStreamerBasicPointer8StreamerER7TBuffer
fun:_ZN11TBufferFile13ReadObjectAnyEPK6TClass
fun:_ZN9TObjArray8StreamerER7TBuffer
fun:_ZN11TBufferFile13ReadObjectAnyEPK6TClass
fun:_ZrsI9TObjArrayER7TBufferS2_RPT_
fun:_ZN13TStreamerInfo8StreamerER7TBuffer
fun:_ZN11TBufferFile13ReadObjectAnyEPK6TClass
fun:_ZrsI7TObjectER7TBufferS2_RPT_
}
{
root_jets_261
Memcheck:Leak
match-leak-kinds: possible
fun:_Znam
fun:_ZN13TStreamerInfo7CompileEv
fun:_ZN13TStreamerInfo5BuildEv
fun:_ZN11TBufferFile15ReadClassBufferEPK6TClassPvijjS2_
fun:_ZN13TStreamerLoop8StreamerER7TBuffer
fun:_ZN11TBufferFile13ReadObjectAnyEPK6TClass
fun:_ZN9TObjArray8StreamerER7TBuffer
fun:_ZN11TBufferFile13ReadObjectAnyEPK6TClass
fun:_ZrsI9TObjArrayER7TBufferS2_RPT_
fun:_ZN13TStreamerInfo8StreamerER7TBuffer
fun:_ZN11TBufferFile13ReadObjectAnyEPK6TClass
fun:_ZrsI7TObjectER7TBufferS2_RPT_
}
{
root_jets_262
Memcheck:Leak
match-leak-kinds: possible
fun:_Znam
fun:_ZN13TStreamerInfo7CompileEv
fun:_ZN13TStreamerInfo8BuildOldEv
fun:_ZN11TBufferFile15ReadClassBufferEPK6TClassPvS2_
fun:_ZN13TStreamerInfo10ReadBufferIPPcEEiR7TBufferRKT_iiii
fun:_ZN20TStreamerInfoActions17GenericReadActionER7TBufferPvPKNS_14TConfigurationE
fun:_ZN11TBufferFile13ApplySequenceERKN20TStreamerInfoActions15TActionSequenceEPv
fun:_ZN11TBufferFile15ReadClassBufferEPK6TClassPvS2_
fun:_ZN12AliAODHeader8StreamerER7TBuffer
fun:_ZN11TBufferFile13ReadObjectAnyEPK6TClass
fun:_ZrsI7TObjectER7TBufferS2_RPT_
fun:_ZN5TList8StreamerER7TBuffer
}
{
root_jets_263
Memcheck:Leak
match-leak-kinds: possible
fun:_Znam
fun:_ZN13TStreamerInfo7CompileEv
fun:_ZN13TStreamerInfo8BuildOldEv
fun:_ZN11TBufferFile15ReadClassBufferEPK6TClassPvS2_
fun:_ZN14AliTPCdEdxInfo8StreamerER7TBuffer
fun:_ZN11TBufferFile13ReadObjectAnyEPK6TClass
fun:_ZN11TBufferFile13ReadFastArrayEPPvPK6TClassibP15TMemberStreamerS4_
fun:_ZN13TStreamerInfo10ReadBufferIPPcEEiR7TBufferRKT_iiii
fun:_ZN20TStreamerInfoActions17GenericReadActionER7TBufferPvPKNS_14TConfigurationE
fun:_ZN11TBufferFile13ApplySequenceERKN20TStreamerInfoActions15TActionSequenceEPv
fun:_ZN11TBufferFile15ReadClassBufferEPK6TClassPvS2_
fun:_ZN9AliAODPid8StreamerER7TBuffer
}
{
root_jets_264
Memcheck:Leak
match-leak-kinds: possible
fun:_Znam
fun:_ZN13TStreamerInfo7CompileEv
fun:_ZN13TStreamerInfo8BuildOldEv
fun:_ZN11TBufferFile15ReadClassBufferEPK6TClassPvS2_
fun:_ZN11TBufferFile13ReadObjectAnyEPK6TClass
fun:_ZN11TBufferFile13ReadFastArrayEPPvPK6TClassibP15TMemberStreamerS4_
fun:_ZN13TStreamerInfo10ReadBufferIPPcEEiR7TBufferRKT_iiii
fun:_ZN20TStreamerInfoActions15VectorPtrLooper11GenericReadER7TBufferPvPKvPKNS_14TConfigurationE
fun:_ZN11TBufferFile19ApplySequenceVecPtrERKN20TStreamerInfoActions15TActionSequenceEPvS4_
fun:_ZN14TBranchElement22ReadLeavesClonesMemberER7TBuffer
fun:_ZN7TBranch8GetEntryExi
fun:_ZN14TBranchElement8GetEntryExi
}
{
root_jets_265
Memcheck:Leak
match-leak-kinds: possible
fun:_Znwm
fun:_ZN8TStorage11ObjectAllocEm
fun:_ZN5TCint23CreateListOfBaseClassesEP6TClass
fun:_ZN6TClass14GetListOfBasesEv
fun:_ZN8TQObject23CollectClassSignalListsER5TListP6TClass
fun:_ZN8TQObject4EmitEPKc
fun:_ZN15TMessageHandler6NotifyEv
fun:_ZN15TMessageHandler13HandleMessageEiPK7TObject
fun:_ZN5TROOT7MessageEiPK7TObject
fun:_ZNK7TObject5ErrorEPKcS1_z
fun:_ZN11TBufferFile13ReadObjectAnyEPK6TClass
fun:_ZrsI7TObjectER7TBufferS2_RPT_
}
{
root_jets_266
Memcheck:Leak
match-leak-kinds: possible
fun:_Znam
fun:_ZN13TStreamerInfo7CompileEv
fun:_ZN13TStreamerInfo8BuildOldEv
fun:_ZNK6TClass15GetStreamerInfoEi
fun:_ZN13TStreamerInfo8BuildOldEv
fun:_ZN11TBufferFile15ReadClassBufferEPK6TClassPvijjS2_
fun:_ZN4TH2F8StreamerER7TBuffer
fun:_ZN11TBufferFile13ReadFastArrayEPPvPK6TClassibP15TMemberStreamerS4_
fun:_ZN13TStreamerInfo10ReadBufferIPPcEEiR7TBufferRKT_iiii
fun:_ZN20TStreamerInfoActions17GenericReadActionER7TBufferPvPKNS_14TConfigurationE
fun:_ZN11TBufferFile13ApplySequenceERKN20TStreamerInfoActions15TActionSequenceEPv
fun:_ZN11TBufferFile15ReadClassBufferEPK6TClassPvS2_
}
{
root_jets_267
Memcheck:Leak
match-leak-kinds: possible
fun:_Znam
fun:_ZN13TStreamerInfo7CompileEv
fun:_ZN13TStreamerInfo8BuildOldEv
fun:_ZN11TBufferFile15ReadClassBufferEPK6TClassPvS2_
fun:_ZN11TBufferFile13ReadObjectAnyEPK6TClass
fun:_ZN11TBufferFile13ReadFastArrayEPPvPK6TClassibP15TMemberStreamerS4_
fun:_ZN13TStreamerInfo10ReadBufferIPPcEEiR7TBufferRKT_iiii
fun:_ZN20TStreamerInfoActions17GenericReadActionER7TBufferPvPKNS_14TConfigurationE
fun:_ZN11TBufferFile13ApplySequenceERKN20TStreamerInfoActions15TActionSequenceEPv
fun:_ZN11TBufferFile15ReadClassBufferEPK6TClassPvS2_
fun:_ZN10TBranchRef8StreamerER7TBuffer
fun:_ZN11TBufferFile13ReadObjectAnyEPK6TClass
}
{
root_jets_268
Memcheck:Leak
match-leak-kinds: possible
fun:_Znam
fun:_ZN13TStreamerInfo7CompileEv
fun:_ZN13TStreamerInfo8BuildOldEv
fun:_ZNK6TClass15GetStreamerInfoEi
fun:_ZN13TStreamerInfo8BuildOldEv
fun:_ZN11TBufferFile15ReadClassBufferEPK6TClassPvS2_
fun:_ZN23AliGenPythiaEventHeader8StreamerER7TBuffer
fun:_ZN11TBufferFile13ReadObjectAnyEPK6TClass
fun:_ZrsI7TObjectER7TBufferS2_RPT_
fun:_ZN5TList8StreamerER7TBuffer
fun:_ZN11TBufferFile13ReadObjectAnyEPK6TClass
fun:_ZN11TBufferFile13ReadFastArrayEPPvPK6TClassibP15TMemberStreamerS4_
}
{
root_jets_269
Memcheck:Leak
match-leak-kinds: possible
fun:_Znam
fun:_ZN13TStreamerInfo7CompileEv
fun:_ZN13TStreamerInfo5BuildEv
fun:_ZNK6TClass15GetStreamerInfoEi
fun:_ZN13TStreamerInfo5BuildEv
fun:_ZN11TBufferFile15ReadClassBufferEPK6TClassPvijjS2_
fun:_ZN18TStreamerBasicType8StreamerER7TBuffer
fun:_ZN11TBufferFile13ReadObjectAnyEPK6TClass
fun:_ZN9TObjArray8StreamerER7TBuffer
fun:_ZN11TBufferFile13ReadObjectAnyEPK6TClass
fun:_ZrsI9TObjArrayER7TBufferS2_RPT_
fun:_ZN13TStreamerInfo8StreamerER7TBuffer
}
{
root_jets_270
Memcheck:Leak
match-leak-kinds: possible
fun:_Znam
fun:_ZN13TStreamerInfo7CompileEv
fun:_ZN13TStreamerInfo8BuildOldEv
fun:_ZNK6TClass15GetStreamerInfoEi
fun:_ZN13TStreamerInfo8BuildOldEv
fun:_ZN11TBufferFile15ReadClassBufferEPK6TClassPvS2_
fun:_ZN12TLeafElement8StreamerER7TBuffer
fun:_ZN11TBufferFile13ReadObjectAnyEPK6TClass
fun:_ZN9TObjArray8StreamerER7TBuffer
fun:_ZN13TStreamerInfo10ReadBufferIPPcEEiR7TBufferRKT_iiii
fun:_ZN20TStreamerInfoActions17GenericReadActionER7TBufferPvPKNS_14TConfigurationE
fun:_ZN11TBufferFile13ApplySequenceERKN20TStreamerInfoActions15TActionSequenceEPv
}
{
root_jets_271
Memcheck:Leak
match-leak-kinds: possible
fun:_Znam
fun:_ZN13TStreamerInfo7CompileEv
fun:_ZN13TStreamerInfo8BuildOldEv
fun:_ZN11TBufferFile15ReadClassBufferEPK6TClassPvS2_
fun:_ZN15AliAODTracklets8StreamerER7TBuffer
fun:_ZN11TBufferFile13ReadObjectAnyEPK6TClass
fun:_ZrsI7TObjectER7TBufferS2_RPT_
fun:_ZN5TList8StreamerER7TBuffer
fun:_ZN11TBufferFile13ReadObjectAnyEPK6TClass
fun:_ZN11TBufferFile13ReadFastArrayEPPvPK6TClassibP15TMemberStreamerS4_
fun:_ZN13TStreamerInfo10ReadBufferIPPcEEiR7TBufferRKT_iiii
fun:_ZN20TStreamerInfoActions17GenericReadActionER7TBufferPvPKNS_14TConfigurationE
}
{
root_jets_272
Memcheck:Leak
match-leak-kinds: possible
fun:_Znam
fun:_ZN13TStreamerInfo7CompileEv
fun:_ZN13TStreamerInfo8BuildOldEv
fun:_ZN11TBufferFile15ReadClassBufferEPK6TClassPvS2_
fun:_ZN15AliAODCaloCells8StreamerER7TBuffer
fun:_ZN11TBufferFile13ReadObjectAnyEPK6TClass
fun:_ZrsI7TObjectER7TBufferS2_RPT_
fun:_ZN5TList8StreamerER7TBuffer
fun:_ZN11TBufferFile13ReadObjectAnyEPK6TClass
fun:_ZN11TBufferFile13ReadFastArrayEPPvPK6TClassibP15TMemberStreamerS4_
fun:_ZN13TStreamerInfo10ReadBufferIPPcEEiR7TBufferRKT_iiii
fun:_ZN20TStreamerInfoActions17GenericReadActionER7TBufferPvPKNS_14TConfigurationE
}
{
root_jets_273
Memcheck:Leak
match-leak-kinds: possible
fun:_Znam
fun:_ZN13TStreamerInfo7CompileEv
fun:_ZN13TStreamerInfo8BuildOldEv
fun:_ZNK6TClass15GetStreamerInfoEi
fun:_ZN13TStreamerInfo8BuildOldEv
fun:_ZN11TBufferFile15ReadClassBufferEPK6TClassPvijjS2_
fun:_ZN5TTree8StreamerER7TBuffer
fun:_ZN4TKey7ReadObjEv
fun:_ZN14TDirectoryFile3GetEPKc
fun:_ZN6TChain8LoadTreeEx
fun:_ZNK6TChain10GetEntriesEv
fun:_ZL19G__G__Tree_126_0_75P8G__valuePKcP8G__parami
}
{
root_jets_274
Memcheck:Leak
match-leak-kinds: possible
fun:_Znam
fun:_ZN13TStreamerInfo7CompileEv
fun:_ZN13TStreamerInfo8BuildOldEv
fun:_ZN11TBufferFile15ReadClassBufferEPK6TClassPvS2_
fun:_ZN11AliAODTZERO8StreamerER7TBuffer
fun:_ZN11TBufferFile13ReadObjectAnyEPK6TClass
fun:_ZrsI7TObjectER7TBufferS2_RPT_
fun:_ZN5TList8StreamerER7TBuffer
fun:_ZN11TBufferFile13ReadObjectAnyEPK6TClass
fun:_ZN11TBufferFile13ReadFastArrayEPPvPK6TClassibP15TMemberStreamerS4_
fun:_ZN13TStreamerInfo10ReadBufferIPPcEEiR7TBufferRKT_iiii
fun:_ZN20TStreamerInfoActions17GenericReadActionER7TBufferPvPKNS_14TConfigurationE
}
{
root_jets_275
Memcheck:Leak
match-leak-kinds: possible
fun:_Znwm
fun:_ZN8TStorage11ObjectAllocEm
fun:_ZN5TCint23CreateListOfBaseClassesEP6TClass
fun:_ZN6TClass14GetListOfBasesEv
fun:_ZN6TClass12GetBaseClassEPKS_
fun:_ZNK6TClass12InheritsFromEPKS_
fun:_ZNK6TClass8PropertyEv
fun:_ZNK6TClass9IsForeignEv
fun:_ZN6TClass13PostLoadCheckEv
fun:_ZNK5TROOT9LoadClassEPKcb
fun:_ZN6TClass8GetClassEPKcbb
fun:_ZN10TBaseClass15GetClassPointerEb
}
{
root_jets_276
Memcheck:Leak
match-leak-kinds: possible
fun:_Znam
fun:_ZN13TStreamerInfo7CompileEv
fun:_ZN13TStreamerInfo8BuildOldEv
fun:_ZN11TBufferFile15ReadClassBufferEPK6TClassPvS2_
fun:_ZN14AliAODMCHeader8StreamerER7TBuffer
fun:_ZN11TBufferFile13ReadObjectAnyEPK6TClass
fun:_ZrsI7TObjectER7TBufferS2_RPT_
fun:_ZN5TList8StreamerER7TBuffer
fun:_ZN11TBufferFile13ReadObjectAnyEPK6TClass
fun:_ZN11TBufferFile13ReadFastArrayEPPvPK6TClassibP15TMemberStreamerS4_
fun:_ZN13TStreamerInfo10ReadBufferIPPcEEiR7TBufferRKT_iiii
fun:_ZN20TStreamerInfoActions17GenericReadActionER7TBufferPvPKNS_14TConfigurationE
}
{
root_jets_277
Memcheck:Leak
match-leak-kinds: possible
fun:_Znwm
fun:_ZN8TStorage11ObjectAllocEm
fun:_ZN7TObjectnwEm
fun:_ZNK4ROOT20TQObjectInitBehavior11CreateClassEPKcsRKSt9type_infoP16TVirtualIsAProxyPFvPvR16TMemberInspectorES2_S2_ii
fun:_ZN4ROOT17TGenericClassInfo8GetClassEv
fun:_ZN14TSignalHandler5ClassEv
fun:_ZN8TQObject4EmitEPKc
fun:_ZN5TRintC1EPKcPiPPcPvib
fun:main
}
{
root_jets_278
Memcheck:Leak
match-leak-kinds: possible
fun:_Znwm
fun:_ZN8TStorage11ObjectAllocEm
fun:_ZN7TObjectnwEm
fun:_ZNK4ROOT20TQObjectInitBehavior11CreateClassEPKcsRKSt9type_infoP16TVirtualIsAProxyPFvPvR16TMemberInspectorES2_S2_ii
fun:_ZN4ROOT17TGenericClassInfo8GetClassEv
fun:_ZN14TSysEvtHandler10DictionaryEv
fun:_ZNK5TROOT9LoadClassEPKcb
fun:_ZN6TClass8GetClassEPKcbb
fun:_ZN10TBaseClass15GetClassPointerEb
fun:_ZN8TQObject23CollectClassSignalListsER5TListP6TClass
fun:_ZN8TQObject4EmitEPKc
fun:_ZN5TRintC1EPKcPiPPcPvib
}
{
root_jets_279
Memcheck:Leak
match-leak-kinds: possible
fun:_Znwm
fun:_ZN8TStorage11ObjectAllocEm
fun:_ZN7TObjectnwEm
fun:_ZNK4ROOT20TQObjectInitBehavior11CreateClassEPKcsRKSt9type_infoP16TVirtualIsAProxyPFvPvR16TMemberInspectorES2_S2_ii
fun:_ZN4ROOT17TGenericClassInfo8GetClassEv
fun:_ZN8TQObject10DictionaryEv
fun:_ZNK5TROOT9LoadClassEPKcb
fun:_ZN6TClass8GetClassEPKcbb
fun:_ZN10TBaseClass15GetClassPointerEb
fun:_ZN8TQObject23CollectClassSignalListsER5TListP6TClass
fun:_ZN8TQObject23CollectClassSignalListsER5TListP6TClass
fun:_ZN8TQObject4EmitEPKc
}
{
root_jets_280
Memcheck:Leak
match-leak-kinds: possible
fun:_Znwm
fun:_ZN8TStorage11ObjectAllocEm
fun:_ZN7TObjectnwEm
fun:_ZNK4ROOT20TQObjectInitBehavior11CreateClassEPKcsRKSt9type_infoP16TVirtualIsAProxyPFvPvR16TMemberInspectorES2_S2_ii
fun:_ZN4ROOT17TGenericClassInfo8GetClassEv
fun:_ZN12TFileHandler5ClassEv
fun:_ZN8TQObject4EmitEPKc
fun:_ZN5TRintC1EPKcPiPPcPvib
fun:main
}
{
root_jets_281
Memcheck:Leak
match-leak-kinds: possible
fun:_Znwm
fun:_ZN8TStorage11ObjectAllocEm
fun:_ZN7TObjectnwEm
fun:_ZNK4ROOT20TQObjectInitBehavior11CreateClassEPKcsRKSt9type_infoP16TVirtualIsAProxyPFvPvR16TMemberInspectorES2_S2_ii
fun:_ZN4ROOT17TGenericClassInfo8GetClassEv
fun:_ZN15TMessageHandler5ClassEv
fun:_ZN8TQObject4EmitEPKc
fun:_ZN15TMessageHandler6NotifyEv
fun:_ZN15TMessageHandler13HandleMessageEiPK7TObject
fun:_ZN5TROOT7MessageEiPK7TObject
fun:_ZNK7TObject5ErrorEPKcS1_z
fun:_ZN11TBufferFile13ReadObjectAnyEPK6TClass
}
{
root_jets_282
Memcheck:Leak
match-leak-kinds: possible
fun:_Znwm
fun:_ZN8TStorage11ObjectAllocEm
fun:_ZN7TObjectnwEm
fun:_ZNK4ROOT20TQObjectInitBehavior11CreateClassEPKcsRKSt9type_infoP16TVirtualIsAProxyPFvPvR16TMemberInspectorES2_S2_ii
fun:_ZN4ROOT17TGenericClassInfo8GetClassEv
fun:_ZN5TRint5ClassEv
fun:_ZN8TQObject4EmitEPKcl
fun:_ZN12TApplication9TerminateEi
fun:_ZN5TRint3RunEb
fun:main
}
{
root_jets_283
Memcheck:Leak
match-leak-kinds: possible
fun:_Znwm
fun:_ZN8TStorage11ObjectAllocEm
fun:_ZN7TObjectnwEm
fun:_ZNK4ROOT20TQObjectInitBehavior11CreateClassEPKcsRKSt9type_infoP16TVirtualIsAProxyPFvPvR16TMemberInspectorES2_S2_ii
fun:_ZN4ROOT17TGenericClassInfo8GetClassEv
fun:_ZN12TApplication10DictionaryEv
fun:_ZNK5TROOT9LoadClassEPKcb
fun:_ZN6TClass8GetClassEPKcbb
fun:_ZN10TBaseClass15GetClassPointerEb
fun:_ZN8TQObject23CollectClassSignalListsER5TListP6TClass
fun:_ZN8TQObject4EmitEPKcl
fun:_ZN12TApplication9TerminateEi
}
{
root_jets_284
Memcheck:Leak
match-leak-kinds: possible
fun:_Znam
fun:_ZN13TStreamerInfo7CompileEv
fun:_ZN13TStreamerInfo8BuildOldEv
fun:_ZNK6TClass15GetStreamerInfoEi
fun:_ZN13TStreamerInfo8BuildOldEv
fun:_ZN11TBufferFile15ReadClassBufferEPK6TClassPvijjS2_
fun:_ZN5TAxis8StreamerER7TBuffer
fun:_ZN13TStreamerInfo10ReadBufferIPPcEEiR7TBufferRKT_iiii
fun:_ZN20TStreamerInfoActions17GenericReadActionER7TBufferPvPKNS_14TConfigurationE
fun:_ZN11TBufferFile13ApplySequenceERKN20TStreamerInfoActions15TActionSequenceEPv
fun:_ZN11TBufferFile15ReadClassBufferEPK6TClassPvijjS2_
fun:_ZN3TH18StreamerER7TBuffer
}
{
root_jets_285
Memcheck:Leak
match-leak-kinds: possible
fun:_Znam
fun:_ZN13TStreamerInfo7CompileEv
fun:_ZN13TStreamerInfo8BuildOldEv
fun:_ZN11TBufferFile15ReadClassBufferEPK6TClassPvS2_
fun:_ZN14TBranchElement8StreamerER7TBuffer
fun:_ZN11TBufferFile13ReadObjectAnyEPK6TClass
fun:_ZN9TObjArray8StreamerER7TBuffer
fun:_ZN13TStreamerInfo10ReadBufferIPPcEEiR7TBufferRKT_iiii
fun:_ZN20TStreamerInfoActions17GenericReadActionER7TBufferPvPKNS_14TConfigurationE
fun:_ZN11TBufferFile13ApplySequenceERKN20TStreamerInfoActions15TActionSequenceEPv
fun:_ZN11TBufferFile15ReadClassBufferEPK6TClassPvijjS2_
fun:_ZN5TTree8StreamerER7TBuffer
}
{
root_jets_286
Memcheck:Leak
match-leak-kinds: possible
fun:_Znam
fun:_ZN13TStreamerInfo7CompileEv
fun:_ZN13TStreamerInfo8BuildOldEv
fun:_ZN11TBufferFile15ReadClassBufferEPK6TClassPvijjS2_
fun:_ZN5TAxis8StreamerER7TBuffer
fun:_ZN13TStreamerInfo10ReadBufferIPPcEEiR7TBufferRKT_iiii
fun:_ZN20TStreamerInfoActions17GenericReadActionER7TBufferPvPKNS_14TConfigurationE
fun:_ZN11TBufferFile13ApplySequenceERKN20TStreamerInfoActions15TActionSequenceEPv
fun:_ZN11TBufferFile15ReadClassBufferEPK6TClassPvijjS2_
fun:_ZN3TH18StreamerER7TBuffer
fun:_ZN13TStreamerBase10ReadBufferER7TBufferPc
fun:_ZN13TStreamerInfo10ReadBufferIPPcEEiR7TBufferRKT_iiii
}
{
root_jets_287
Memcheck:Leak
match-leak-kinds: possible
fun:_Znam
fun:_ZN13TStreamerInfo7CompileEv
fun:_ZN13TStreamerInfo8BuildOldEv
fun:_ZN11TBufferFile15ReadClassBufferEPK6TClassPvS2_
fun:_ZN13AliESDpidCuts8StreamerER7TBuffer
fun:_ZN11TBufferFile13ReadObjectAnyEPK6TClass
fun:_ZrsI7TObjectER7TBufferS2_RPT_
fun:_ZN5TList8StreamerER7TBuffer
fun:_ZN11TBufferFile13ReadObjectAnyEPK6TClass
fun:_ZN11TBufferFile13ReadFastArrayEPPvPK6TClassibP15TMemberStreamerS4_
fun:_ZN13TStreamerInfo10ReadBufferIPPcEEiR7TBufferRKT_iiii
fun:_ZN20TStreamerInfoActions17GenericReadActionER7TBufferPvPKNS_14TConfigurationE
}
{
root_jets_288
Memcheck:Leak
match-leak-kinds: possible
fun:_Znam
fun:_ZN13TStreamerInfo7CompileEv
fun:_ZN13TStreamerInfo8BuildOldEv
fun:_ZN11TBufferFile15ReadClassBufferEPK6TClassPvS2_
fun:_ZN12AliTOFHeader8StreamerER7TBuffer
fun:_ZN11TBufferFile13ReadObjectAnyEPK6TClass
fun:_ZrsI7TObjectER7TBufferS2_RPT_
fun:_ZN5TList8StreamerER7TBuffer
fun:_ZN11TBufferFile13ReadObjectAnyEPK6TClass
fun:_ZN11TBufferFile13ReadFastArrayEPPvPK6TClassibP15TMemberStreamerS4_
fun:_ZN13TStreamerInfo10ReadBufferIPPcEEiR7TBufferRKT_iiii
fun:_ZN20TStreamerInfoActions17GenericReadActionER7TBufferPvPKNS_14TConfigurationE
}
{
root_jets_289
Memcheck:Leak
match-leak-kinds: possible
fun:_Znam
fun:_ZN13TStreamerInfo7CompileEv
fun:_ZN13TStreamerInfo8BuildOldEv
fun:_ZN11TBufferFile15ReadClassBufferEPK6TClassPvS2_
fun:_ZN23AliGenPythiaEventHeader8StreamerER7TBuffer
fun:_ZN11TBufferFile13ReadObjectAnyEPK6TClass
fun:_ZrsI7TObjectER7TBufferS2_RPT_
fun:_ZN5TList8StreamerER7TBuffer
fun:_ZN11TBufferFile13ReadObjectAnyEPK6TClass
fun:_ZN11TBufferFile13ReadFastArrayEPPvPK6TClassibP15TMemberStreamerS4_
fun:_ZN13TStreamerInfo10ReadBufferIPPcEEiR7TBufferRKT_iiii
fun:_ZN20TStreamerInfoActions17GenericReadActionER7TBufferPvPKNS_14TConfigurationE
}
{
root_jets_290
Memcheck:Leak
match-leak-kinds: possible
fun:_Znam
fun:_ZN13TStreamerInfo7CompileEv
fun:_ZN13TStreamerInfo8BuildOldEv
fun:_ZN11TBufferFile15ReadClassBufferEPK6TClassPvS2_
fun:_ZN17AliAODCaloTrigger8StreamerER7TBuffer
fun:_ZN11TBufferFile13ReadObjectAnyEPK6TClass
fun:_ZrsI7TObjectER7TBufferS2_RPT_
fun:_ZN5TList8StreamerER7TBuffer
fun:_ZN11TBufferFile13ReadObjectAnyEPK6TClass
fun:_ZN11TBufferFile13ReadFastArrayEPPvPK6TClassibP15TMemberStreamerS4_
fun:_ZN13TStreamerInfo10ReadBufferIPPcEEiR7TBufferRKT_iiii
fun:_ZN20TStreamerInfoActions17GenericReadActionER7TBufferPvPKNS_14TConfigurationE
}
{
root_jets_291
Memcheck:Leak
match-leak-kinds: possible
fun:_Znam
fun:_ZN13TStreamerInfo7CompileEv
fun:_ZN13TStreamerInfo5BuildEv
fun:_ZNK6TClass15GetStreamerInfoEi
fun:_ZN13TStreamerInfo8BuildOldEv
fun:_ZNK6TClass15GetStreamerInfoEi
fun:_ZN11TBufferFile10ReadClonesEP12TClonesArrayis
fun:_ZN12TClonesArray8StreamerER7TBuffer
fun:_ZN11TBufferFile13ReadObjectAnyEPK6TClass
fun:_ZrsI7TObjectER7TBufferS2_RPT_
fun:_ZN5TList8StreamerER7TBuffer
fun:_ZN11TBufferFile13ReadObjectAnyEPK6TClass
}
{
root_jets_292
Memcheck:Leak
match-leak-kinds: possible
fun:_Znam
fun:_ZN13TStreamerInfo7CompileEv
fun:_ZN13TStreamerInfo8BuildOldEv
fun:_ZNK6TClass15GetStreamerInfoEi
fun:_ZN13TStreamerInfo8BuildOldEv
fun:_ZN11TBufferFile15ReadClassBufferEPK6TClassPvijjS2_
fun:_ZN3TF18StreamerER7TBuffer
fun:_ZN11TBufferFile13ReadFastArrayEPPvPK6TClassibP15TMemberStreamerS4_
fun:_ZN13TStreamerInfo10ReadBufferIPPcEEiR7TBufferRKT_iiii
fun:_ZN20TStreamerInfoActions17GenericReadActionER7TBufferPvPKNS_14TConfigurationE
fun:_ZN11TBufferFile13ApplySequenceERKN20TStreamerInfoActions15TActionSequenceEPv
fun:_ZN11TBufferFile15ReadClassBufferEPK6TClassPvS2_
}
{
root_jets_293
Memcheck:Leak
match-leak-kinds: possible
fun:_Znam
fun:_ZN13TStreamerInfo7CompileEv
fun:_ZN13TStreamerInfo8BuildOldEv
fun:_ZN11TBufferFile15ReadClassBufferEPK6TClassPvS2_
fun:_ZN11AliAODVZERO8StreamerER7TBuffer
fun:_ZN11TBufferFile13ReadObjectAnyEPK6TClass
fun:_ZrsI7TObjectER7TBufferS2_RPT_
fun:_ZN5TList8StreamerER7TBuffer
fun:_ZN11TBufferFile13ReadObjectAnyEPK6TClass
fun:_ZN11TBufferFile13ReadFastArrayEPPvPK6TClassibP15TMemberStreamerS4_
fun:_ZN13TStreamerInfo10ReadBufferIPPcEEiR7TBufferRKT_iiii
fun:_ZN20TStreamerInfoActions17GenericReadActionER7TBufferPvPKNS_14TConfigurationE
}
{
root_jets_294
Memcheck:Leak
match-leak-kinds: possible
fun:_Znam
fun:_ZN13TStreamerInfo7CompileEv
fun:_ZN13TStreamerInfo8BuildOldEv
fun:_ZN14TBranchElement18SetupAddressesImplEv
fun:_ZN14TBranchElement8GetEntryExi
fun:_ZN5TTree8GetEntryExi
fun:_ZN18AliAnalysisManager8GetEntryExi
fun:_ZN19AliAnalysisSelector7ProcessEx
fun:_ZN11TTreePlayer7ProcessEP9TSelectorPKcxx
fun:_ZN18AliAnalysisManager13StartAnalysisEPKcP5TTreexx
fun:_ZL23G__G__ANALYSIS_208_0_14P8G__valuePKcP8G__parami
fun:_ZN4Cint19G__ExceptionWrapperEPFiP8G__valuePKcP8G__paramiES1_PcS5_i
}
{
root_jets_295
Memcheck:Leak
match-leak-kinds: possible
fun:_Znam
fun:_ZN13TStreamerInfo7CompileEv
fun:_ZN13TStreamerInfo8BuildOldEv
fun:_ZN11TBufferFile15ReadClassBufferEPK6TClassPvS2_
fun:_ZN9AliAODPid8StreamerER7TBuffer
fun:_ZN11TBufferFile13ReadObjectAnyEPK6TClass
fun:_ZN11TBufferFile13ReadFastArrayEPPvPK6TClassibP15TMemberStreamerS4_
fun:_ZN13TStreamerInfo10ReadBufferIPPcEEiR7TBufferRKT_iiii
fun:_ZN20TStreamerInfoActions15VectorPtrLooper11GenericReadER7TBufferPvPKvPKNS_14TConfigurationE
fun:_ZN11TBufferFile19ApplySequenceVecPtrERKN20TStreamerInfoActions15TActionSequenceEPvS4_
fun:_ZN14TBranchElement22ReadLeavesClonesMemberER7TBuffer
fun:_ZN7TBranch8GetEntryExi
}
{
root_jets_296
Memcheck:Leak
match-leak-kinds: possible
fun:_Znwm
fun:_ZNSs4_Rep9_S_createEmmRKSaIcE
fun:_ZNSs9_M_mutateEmmm
fun:_ZNSs15_M_replace_safeEmmPKcm
fun:_ZN9TClassRef6AssignEP6TClass
fun:_ZN10TBaseClass15GetClassPointerEb
fun:_ZN6TClass12GetBaseClassEPKS_
fun:_ZNK6TClass12InheritsFromEPKS_
fun:_ZNK6TClass8PropertyEv
fun:_ZNK6TClass9IsForeignEv
fun:_ZN6TClass13PostLoadCheckEv
fun:_ZNK5TROOT9LoadClassEPKcb
}
{
root_jets_297
Memcheck:Leak
match-leak-kinds: possible
fun:_Znam
fun:_ZN13TStreamerInfo7CompileEv
fun:_ZN13TStreamerInfo8BuildOldEv
fun:_ZN11TBufferFile15ReadClassBufferEPK6TClassPvijjS2_
fun:_ZN3TF18StreamerER7TBuffer
fun:_ZN11TBufferFile13ReadFastArrayEPPvPK6TClassibP15TMemberStreamerS4_
fun:_ZN13TStreamerInfo10ReadBufferIPPcEEiR7TBufferRKT_iiii
fun:_ZN20TStreamerInfoActions17GenericReadActionER7TBufferPvPKNS_14TConfigurationE
fun:_ZN11TBufferFile13ApplySequenceERKN20TStreamerInfoActions15TActionSequenceEPv
fun:_ZN11TBufferFile15ReadClassBufferEPK6TClassPvS2_
fun:_ZN15AliESDtrackCuts8StreamerER7TBuffer
fun:_ZN11TBufferFile13ReadObjectAnyEPK6TClass
}
{
root_jets_298
Memcheck:Leak
match-leak-kinds: possible
fun:_Znam
fun:_ZN13TStreamerInfo7CompileEv
fun:_ZN13TStreamerInfo5BuildEv
fun:_ZNK6TClass15GetStreamerInfoEi
fun:_ZN13TStreamerInfo8BuildOldEv
fun:_ZN11TBufferFile15ReadClassBufferEPK6TClassPvS2_
fun:_ZN9AliAODPid8StreamerER7TBuffer
fun:_ZN11TBufferFile13ReadObjectAnyEPK6TClass
fun:_ZN11TBufferFile13ReadFastArrayEPPvPK6TClassibP15TMemberStreamerS4_
fun:_ZN13TStreamerInfo10ReadBufferIPPcEEiR7TBufferRKT_iiii
fun:_ZN20TStreamerInfoActions15VectorPtrLooper11GenericReadER7TBufferPvPKvPKNS_14TConfigurationE
fun:_ZN11TBufferFile19ApplySequenceVecPtrERKN20TStreamerInfoActions15TActionSequenceEPvS4_
}
{
root_jets_299
Memcheck:Leak
match-leak-kinds: possible
fun:_Znam
fun:_ZN13TStreamerInfo7CompileEv
fun:_ZN13TStreamerInfo8BuildOldEv
fun:_ZN11TBufferFile15ReadClassBufferEPK6TClassPvS2_
fun:_ZN13AliEventplane8StreamerER7TBuffer
fun:_ZN11TBufferFile13ReadObjectAnyEPK6TClass
fun:_ZN11TBufferFile13ReadFastArrayEPPvPK6TClassibP15TMemberStreamerS4_
fun:_ZN13TStreamerInfo10ReadBufferIPPcEEiR7TBufferRKT_iiii
fun:_ZN20TStreamerInfoActions17GenericReadActionER7TBufferPvPKNS_14TConfigurationE
fun:_ZN11TBufferFile13ApplySequenceERKN20TStreamerInfoActions15TActionSequenceEPv
fun:_ZN11TBufferFile15ReadClassBufferEPK6TClassPvS2_
fun:_ZN12AliAODHeader8StreamerER7TBuffer
}
{
root_jets_300
Memcheck:Leak
match-leak-kinds: possible
fun:_Znam
fun:_ZN13TStreamerInfo7CompileEv
fun:_ZN13TStreamerInfo8BuildOldEv
fun:_ZN11TBufferFile15ReadClassBufferEPK6TClassPvS2_
fun:_ZN9AliAODZDC8StreamerER7TBuffer
fun:_ZN11TBufferFile13ReadObjectAnyEPK6TClass
fun:_ZrsI7TObjectER7TBufferS2_RPT_
fun:_ZN5TList8StreamerER7TBuffer
fun:_ZN11TBufferFile13ReadObjectAnyEPK6TClass
fun:_ZN11TBufferFile13ReadFastArrayEPPvPK6TClassibP15TMemberStreamerS4_
fun:_ZN13TStreamerInfo10ReadBufferIPPcEEiR7TBufferRKT_iiii
fun:_ZN20TStreamerInfoActions17GenericReadActionER7TBufferPvPKNS_14TConfigurationE
}
{
root_jets_301
Memcheck:Leak
match-leak-kinds: possible
fun:_Znam
fun:_ZN13TStreamerInfo7CompileEv
fun:_ZN13TStreamerInfo8BuildOldEv
fun:_ZNK6TClass15GetStreamerInfoEi
fun:_ZN13TStreamerInfo8BuildOldEv
fun:_ZN11TBufferFile15ReadClassBufferEPK6TClassPvS2_
fun:_ZN14TBranchElement8StreamerER7TBuffer
fun:_ZN11TBufferFile13ReadObjectAnyEPK6TClass
fun:_ZN9TObjArray8StreamerER7TBuffer
fun:_ZN13TStreamerInfo10ReadBufferIPPcEEiR7TBufferRKT_iiii
fun:_ZN20TStreamerInfoActions17GenericReadActionER7TBufferPvPKNS_14TConfigurationE
fun:_ZN11TBufferFile13ApplySequenceERKN20TStreamerInfoActions15TActionSequenceEPv
}
{
root_jets_302
Memcheck:Leak
match-leak-kinds: definite
fun:_Znwm
fun:_ZN8TStorage11ObjectAllocEm
fun:_ZNK7TString8TokenizeERKS_
fun:_ZL20G__G__Base2_15_0_161P8G__valuePKcP8G__parami
fun:_ZN4Cint19G__ExceptionWrapperEPFiP8G__valuePKcP8G__paramiES1_PcS5_i
fun:G__execute_call
fun:G__call_cppfunc
fun:G__interpret_func
fun:G__getfunction
fun:_Z15G__getstructmemiR18G__FastAllocStringPciS1_PiP12G__var_arrayi
fun:G__getvariable
fun:G__getitem
}
{
root_jets_303
Memcheck:Leak
match-leak-kinds: possible
fun:_Znam
fun:_ZN13TStreamerInfo7CompileEv
fun:_ZN13TStreamerInfo8BuildOldEv
fun:_ZNK6TClass15GetStreamerInfoEi
fun:_ZN13TStreamerInfo8BuildOldEv
fun:_ZN11TBufferFile15ReadClassBufferEPK6TClassPvS2_
fun:_ZN11TBufferFile13ReadFastArrayEPPvPK6TClassibP15TMemberStreamerS4_
fun:_ZN13TStreamerInfo10ReadBufferIPPcEEiR7TBufferRKT_iiii
fun:_ZN20TStreamerInfoActions17GenericReadActionER7TBufferPvPKNS_14TConfigurationE
fun:_ZN11TBufferFile13ApplySequenceERKN20TStreamerInfoActions15TActionSequenceEPv
fun:_ZN11TBufferFile15ReadClassBufferEPK6TClassPvS2_
fun:_ZN15AliESDtrackCuts8StreamerER7TBuffer
}
{
root_jets_304
Memcheck:Leak
match-leak-kinds: possible
fun:_Znam
fun:_ZN13TStreamerInfo7CompileEv
fun:_ZN13TStreamerInfo8BuildOldEv
fun:_ZNK6TClass15GetStreamerInfoEi
fun:_ZN13TStreamerInfo8BuildOldEv
fun:_ZNK6TClass15GetStreamerInfoEi
fun:_ZN11TBufferFile10ReadClonesEP12TClonesArrayis
fun:_ZN12TClonesArray8StreamerER7TBuffer
fun:_ZN11TBufferFile13ReadObjectAnyEPK6TClass
fun:_ZrsI7TObjectER7TBufferS2_RPT_
fun:_ZN5TList8StreamerER7TBuffer
fun:_ZN11TBufferFile13ReadObjectAnyEPK6TClass
}
{
root_jets_305
Memcheck:Leak
match-leak-kinds: possible
fun:_Znam
fun:_ZN13TStreamerInfo7CompileEv
fun:_ZN13TStreamerInfo8BuildOldEv
fun:_ZN11TBufferFile15ReadClassBufferEPK6TClassPvijjS2_
fun:_ZN5TTree8StreamerER7TBuffer
fun:_ZN4TKey7ReadObjEv
fun:_ZN14TDirectoryFile3GetEPKc
fun:_ZN6TChain8LoadTreeEx
fun:_ZNK6TChain10GetEntriesEv
fun:_ZL19G__G__Tree_126_0_75P8G__valuePKcP8G__parami
fun:_ZN4Cint19G__ExceptionWrapperEPFiP8G__valuePKcP8G__paramiES1_PcS5_i
fun:G__execute_call
}
{
root_jets_306
Memcheck:Leak
match-leak-kinds: possible
fun:_Znam
fun:_ZN13TStreamerInfo7CompileEv
fun:_ZN13TStreamerInfo8BuildOldEv
fun:_ZN11TBufferFile15ReadClassBufferEPK6TClassPvS2_
fun:_ZN13AliCentrality8StreamerER7TBuffer
fun:_ZN11TBufferFile13ReadObjectAnyEPK6TClass
fun:_ZN11TBufferFile13ReadFastArrayEPPvPK6TClassibP15TMemberStreamerS4_
fun:_ZN13TStreamerInfo10ReadBufferIPPcEEiR7TBufferRKT_iiii
fun:_ZN20TStreamerInfoActions17GenericReadActionER7TBufferPvPKNS_14TConfigurationE
fun:_ZN11TBufferFile13ApplySequenceERKN20TStreamerInfoActions15TActionSequenceEPv
fun:_ZN11TBufferFile15ReadClassBufferEPK6TClassPvS2_
fun:_ZN12AliAODHeader8StreamerER7TBuffer
}
{
root_jets_307
Memcheck:Leak
match-leak-kinds: possible
fun:_Znam
fun:_ZN13TStreamerInfo7CompileEv
fun:_ZN13TStreamerInfo5BuildEv
fun:_ZNK6TClass15GetStreamerInfoEi
fun:_ZN13TStreamerInfo8BuildOldEv
fun:_ZN11TBufferFile15ReadClassBufferEPK6TClassPvS2_
fun:_ZN13AliCentrality8StreamerER7TBuffer
fun:_ZN11TBufferFile13ReadObjectAnyEPK6TClass
fun:_ZN11TBufferFile13ReadFastArrayEPPvPK6TClassibP15TMemberStreamerS4_
fun:_ZN13TStreamerInfo10ReadBufferIPPcEEiR7TBufferRKT_iiii
fun:_ZN20TStreamerInfoActions17GenericReadActionER7TBufferPvPKNS_14TConfigurationE
fun:_ZN11TBufferFile13ApplySequenceERKN20TStreamerInfoActions15TActionSequenceEPv
}
{
root_jets_308
Memcheck:Leak
match-leak-kinds: possible
fun:_Znam
fun:_ZN13TStreamerInfo7CompileEv
fun:_ZN13TStreamerInfo8BuildOldEv
fun:_ZN11TBufferFile15ReadClassBufferEPK6TClassPvS2_
fun:_ZN12AliAODHeader8StreamerER7TBuffer
fun:_ZN11TBufferFile13ReadObjectAnyEPK6TClass
fun:_ZrsI7TObjectER7TBufferS2_RPT_
fun:_ZN5TList8StreamerER7TBuffer
fun:_ZN11TBufferFile13ReadObjectAnyEPK6TClass
fun:_ZN11TBufferFile13ReadFastArrayEPPvPK6TClassibP15TMemberStreamerS4_
fun:_ZN13TStreamerInfo10ReadBufferIPPcEEiR7TBufferRKT_iiii
fun:_ZN20TStreamerInfoActions17GenericReadActionER7TBufferPvPKNS_14TConfigurationE
}
{
root_jets_309
Memcheck:Leak
match-leak-kinds: possible
fun:_Znam
fun:_ZN13TStreamerInfo7CompileEv
fun:_ZN13TStreamerInfo5BuildEv
fun:_ZNK6TClass15GetStreamerInfoEi
fun:_ZN13TStreamerInfo8BuildOldEv
fun:_ZN11TBufferFile15ReadClassBufferEPK6TClassPvS2_
fun:_ZN12AliAODHeader8StreamerER7TBuffer
fun:_ZN11TBufferFile13ReadObjectAnyEPK6TClass
fun:_ZrsI7TObjectER7TBufferS2_RPT_
fun:_ZN5TList8StreamerER7TBuffer
fun:_ZN11TBufferFile13ReadObjectAnyEPK6TClass
fun:_ZN11TBufferFile13ReadFastArrayEPPvPK6TClassibP15TMemberStreamerS4_
}
{
root_jets_310
Memcheck:Leak
match-leak-kinds: possible
fun:_Znwm
fun:_ZNSs4_Rep9_S_createEmmRKSaIcE
fun:_ZNSs9_M_mutateEmmm
fun:_ZNSs15_M_replace_safeEmmPKcm
fun:_ZN9TClassRef6AssignEP6TClass
fun:_ZN10TBaseClass15GetClassPointerEb
fun:_ZN6TClass12GetBaseClassEPKS_
fun:_ZNK6TClass12InheritsFromEPKS_
fun:_ZNK6TClass8PropertyEv
fun:_ZNK6TClass9IsForeignEv
fun:_ZN6TClass13PostLoadCheckEv
fun:_ZNK5TROOT9LoadClassEPKcb
}
{
root_jets_311
Memcheck:Leak
match-leak-kinds: possible
fun:_Znam
fun:_ZN13TStreamerInfo7CompileEv
fun:_ZN13TStreamerInfo8BuildOldEv
fun:_ZN11TBufferFile15ReadClassBufferEPK6TClassPvS2_
fun:_ZN15AliESDtrackCuts8StreamerER7TBuffer
fun:_ZN11TBufferFile13ReadObjectAnyEPK6TClass
fun:_ZrsI7TObjectER7TBufferS2_RPT_
fun:_ZN5TList8StreamerER7TBuffer
fun:_ZN11TBufferFile13ReadObjectAnyEPK6TClass
fun:_ZN11TBufferFile13ReadFastArrayEPPvPK6TClassibP15TMemberStreamerS4_
fun:_ZN13TStreamerInfo10ReadBufferIPPcEEiR7TBufferRKT_iiii
fun:_ZN20TStreamerInfoActions17GenericReadActionER7TBufferPvPKNS_14TConfigurationE
}
{
root_jets_312
Memcheck:Leak
match-leak-kinds: possible
fun:_Znam
fun:_ZN13TStreamerInfo7CompileEv
fun:_ZN13TStreamerInfo5BuildEv
fun:_ZNK6TClass15GetStreamerInfoEi
fun:_ZN13TStreamerInfo8BuildOldEv
fun:_ZN11TBufferFile15ReadClassBufferEPK6TClassPvS2_
fun:_ZN15AliESDtrackCuts8StreamerER7TBuffer
fun:_ZN11TBufferFile13ReadObjectAnyEPK6TClass
fun:_ZrsI7TObjectER7TBufferS2_RPT_
fun:_ZN5TList8StreamerER7TBuffer
fun:_ZN11TBufferFile13ReadObjectAnyEPK6TClass
fun:_ZN11TBufferFile13ReadFastArrayEPPvPK6TClassibP15TMemberStreamerS4_
}
{
root_jets_313
Memcheck:Leak
match-leak-kinds: possible
fun:_Znam
fun:_ZN13TStreamerInfo7CompileEv
fun:_ZN13TStreamerInfo8BuildOldEv
fun:_ZNK6TClass15GetStreamerInfoEi
fun:_ZN11TBufferFile10ReadClonesEP12TClonesArrayis
fun:_ZN12TClonesArray8StreamerER7TBuffer
fun:_ZN11TBufferFile13ReadObjectAnyEPK6TClass
fun:_ZrsI7TObjectER7TBufferS2_RPT_
fun:_ZN5TList8StreamerER7TBuffer
fun:_ZN11TBufferFile13ReadObjectAnyEPK6TClass
fun:_ZN11TBufferFile13ReadFastArrayEPPvPK6TClassibP15TMemberStreamerS4_
fun:_ZN13TStreamerInfo10ReadBufferIPPcEEiR7TBufferRKT_iiii
}
{
manager_1
Memcheck:Leak
match-leak-kinds: definite
fun:_Znwm
fun:_ZN8TStorage11ObjectAllocEm
fun:_ZN4TMap3AddEP7TObjectS1_
fun:_ZN5TFile12SetCacheReadEP14TFileCacheReadP7TObjectNS_12ECacheActionE
fun:_ZN14TFileCacheReadC1EP5TFileiP7TObject
fun:_ZN10TTreeCacheC1EP5TTreei
fun:_ZN5TTree12SetCacheSizeEx
fun:_ZN6TChain12SetCacheSizeEx
fun:_ZN18AliAnalysisManager15CreateReadCacheEv
fun:_ZN18AliAnalysisManager4InitEP5TTree
fun:_ZN19AliAnalysisSelector4InitEP5TTree
fun:_ZN11TTreePlayer7ProcessEP9TSelectorPKcxx
}
{
manager_2
Memcheck:Leak
match-leak-kinds: definite
fun:_Znwm
fun:_ZN8TStorage11ObjectAllocEm
fun:_ZN11AliAODEventC1Ev
fun:_ZN18AliAODInputHandler4InitEP5TTreePKc
fun:_ZN18AliAnalysisManager4InitEP5TTree
fun:_ZN19AliAnalysisSelector4InitEP5TTree
fun:_ZN11TTreePlayer7ProcessEP9TSelectorPKcxx
fun:_ZN18AliAnalysisManager13StartAnalysisEPKcP5TTreexx
fun:_ZL23G__G__ANALYSIS_208_0_14P8G__valuePKcP8G__parami
fun:_ZN4Cint19G__ExceptionWrapperEPFiP8G__valuePKcP8G__paramiES1_PcS5_i
fun:G__execute_call
fun:G__call_cppfunc
}
{
unknown_1
Memcheck:Leak
match-leak-kinds: definite
fun:_Znwm
fun:_ZN8TStorage11ObjectAllocEm
fun:_ZNK7TString8TokenizeERKS_
fun:_ZL20G__G__Base2_15_0_161P8G__valuePKcP8G__parami
fun:_ZN4Cint19G__ExceptionWrapperEPFiP8G__valuePKcP8G__paramiES1_PcS5_i
fun:G__execute_call
fun:G__call_cppfunc
fun:G__interpret_func
fun:G__getfunction
fun:_Z15G__getstructmemiR18G__FastAllocStringPciS1_PiP12G__var_arrayi
fun:G__getvariable
fun:G__getitem
}
{
jetscuts_1
Memcheck:Leak
match-leak-kinds: definite
fun:_Znwm
fun:_ZN8TStorage11ObjectAllocEm
fun:_ZN7TObjectnwEm
fun:_ZL42G__AliRDHFJetsCuts_cxx_ACLiC_dict_3506_0_1P8G__valuePKcP8G__parami
fun:_ZN4Cint19G__ExceptionWrapperEPFiP8G__valuePKcP8G__paramiES1_PcS5_i
fun:G__execute_call
fun:G__call_cppfunc
fun:G__interpret_func
fun:G__getfunction
fun:G__new_operator
fun:G__getexpr
fun:G__define_var
}
{
jetscuts_2
Memcheck:Leak
match-leak-kinds: definite
fun:_Znwm
fun:_ZN8TStorage11ObjectAllocEm
fun:_ZN7TObjectnwEm
fun:_ZN15AliRDHFJetsCuts12AddTrackCutsEPK15AliESDtrackCuts
fun:_ZN15AliRDHFJetsCutsC1ERKS_
fun:_ZN21AliRDHFJetsCutsVertexC1ERKS_
fun:_ZN22AliHFJetsTaggingVertex7SetCutsEP21AliRDHFJetsCutsVertex
fun:_ZL49G__AliHFJetsTaggingVertex_cxx_ACLiC_dict_3462_0_6P8G__valuePKcP8G__parami
fun:_ZN4Cint19G__ExceptionWrapperEPFiP8G__valuePKcP8G__paramiES1_PcS5_i
fun:G__execute_call
fun:G__call_cppfunc
fun:G__interpret_func
}
{
jetscuts_3
Memcheck:Leak
match-leak-kinds: definite
fun:_Znwm
fun:_ZN8TStorage11ObjectAllocEm
fun:_ZN7TObjectnwEm
fun:_ZL48G__AliRDHFJetsCutsVertex_cxx_ACLiC_dict_3529_0_1P8G__valuePKcP8G__parami
fun:_ZN4Cint19G__ExceptionWrapperEPFiP8G__valuePKcP8G__paramiES1_PcS5_i
fun:G__execute_call
fun:G__call_cppfunc
fun:G__interpret_func
fun:G__getfunction
fun:G__new_operator
fun:G__getexpr
fun:G__define_var
}
{
alien_1
Memcheck:Leak
match-leak-kinds: definite
fun:malloc
fun:strdup
fun:_ZN14XrdSecPManager4ldPOEP13XrdOucErrInfocPKcS3_S3_
fun:_ZN14XrdSecPManager3GetEPKcRK8sockaddrR12XrdSecBuffer
fun:XrdSecGetProtocol
fun:_ZN13XrdClientConn16DoAuthenticationEPci
fun:_ZN13XrdClientConn7DoLoginEv
fun:_ZN13XrdClientConn14GetAccessToSrvEv
fun:_ZN9XrdClient4OpenEttb
fun:_ZN9TXNetFile4OpenEPKcb
fun:_ZN9TXNetFile13CreateXClientEPKcS1_ib
fun:_ZN9TXNetFileC1EPKcS1_S1_iibS1_
}
{
alien_2
Memcheck:Leak
match-leak-kinds: definite
fun:_Znam
fun:_ZN13XrdClientConn7DoLoginEv
fun:_ZN13XrdClientConn14GetAccessToSrvEv
fun:_ZN14XrdClientAdmin7ConnectEv
fun:_ZN7gclient11GSIgetTokenEv
fun:_ZN7gclient7ConnectEPKciS1_S1_
fun:_ZN6TAlienC1EPKcS1_S1_S1_
fun:_ZL19G__G__Alien_238_0_5P8G__valuePKcP8G__parami
fun:_ZN4Cint11G__CallFunc7ExecuteEPv
fun:_ZNK5TCint16CallFunc_ExecIntEPvS0_
fun:_ZN11TMethodCall7ExecuteEPvRl
fun:_ZN14TPluginHandler10ExecPluginEiz
}
{
alien_3
Memcheck:Leak
match-leak-kinds: definite
fun:_Znam
fun:_ZN13XrdClientConn7DoLoginEv
fun:_ZN13XrdClientConn14GetAccessToSrvEv
fun:_ZN9XrdClient4OpenEttb
fun:_ZN9TXNetFile4OpenEPKcb
fun:_ZN9TXNetFile13CreateXClientEPKcS1_ib
fun:_ZN9TXNetFileC1EPKcS1_S1_iibS1_
fun:_ZN10TAlienFileC1EPKcS1_S1_ibS1_S1_
fun:_ZN10TAlienFile4OpenEPKcS1_S1_ib
fun:_ZL20G__G__Alien_178_0_20P8G__valuePKcP8G__parami
fun:_ZN4Cint11G__CallFunc7ExecuteEPv
fun:_ZNK5TCint16CallFunc_ExecIntEPvS0_
}
{
alien_4
Memcheck:Leak
match-leak-kinds: definite
fun:_Znwm
fun:_Z22XrdCryptoLite_New_bf32c
fun:_ZN13XrdCryptoLite6CreateERiPKcc
fun:_ZN17XrdSecProtocolsss11Load_CryptoEP13XrdOucErrInfoc
fun:_ZN17XrdSecProtocolsss11Init_ClientEP13XrdOucErrInfoPKc
fun:XrdSecProtocolsssObject
fun:_ZN14XrdSecPManager3GetEPKcRK8sockaddrR12XrdSecBuffer
fun:XrdSecGetProtocol
fun:_ZN13XrdClientConn16DoAuthenticationEPci
fun:_ZN13XrdClientConn7DoLoginEv
fun:_ZN13XrdClientConn14GetAccessToSrvEv
fun:_ZN9XrdClient4OpenEttb
}
{
alien_5
Memcheck:Leak
match-leak-kinds: definite
fun:_Znam
fun:_ZN13XrdClientConn7DoLoginEv
fun:_ZN13XrdClientConn14GetAccessToSrvEv
fun:_ZN13XrdClientConn17GoToAnotherServerER16XrdClientUrlInfo
fun:_ZN13XrdClientConn17HandleServerErrorER13XReqErrorTypeP16XrdClientMessageP13ClientRequest
fun:_ZN13XrdClientConn17ReadPartialAnswerER13XReqErrorTypeRmP13ClientRequestbPPvRNS_22EThreeStateReadHandlerE
fun:_ZN13XrdClientConn15ClientServerCmdEP13ClientRequestPKvPPvS4_bi
fun:_ZN13XrdClientConn14SendGenCommandEP13ClientRequestPKvPPvS4_bPci
fun:_ZN9XrdClient7LowOpenEPKcttPc
fun:_ZN9XrdClient7TryOpenEttb
fun:_ZN9XrdClient4OpenEttb
fun:_ZN9TXNetFile4OpenEPKcb
}
{
alien_6
Memcheck:Leak
match-leak-kinds: definite
fun:_Znam
fun:_ZN13XrdClientConn7DoLoginEv
fun:_ZN13XrdClientConn14GetAccessToSrvEv
fun:_ZN9XrdClient4OpenEttb
fun:_ZN9TXNetFile4OpenEPKcb
fun:_ZN9TXNetFile13CreateXClientEPKcS1_ib
fun:_ZN9TXNetFileC1EPKcS1_S1_iibS1_
fun:_ZN10TAlienFileC1EPKcS1_S1_ibS1_S1_
fun:_ZN10TAlienFile4OpenEPKcS1_S1_ib
fun:_ZL20G__G__Alien_178_0_20P8G__valuePKcP8G__parami
fun:_ZN4Cint11G__CallFunc7ExecuteEPv
fun:_ZNK5TCint16CallFunc_ExecIntEPvS0_
}
{
alien_7
Memcheck:Leak
match-leak-kinds: definite
fun:_Znam
fun:_ZN13XrdClientConn7DoLoginEv
fun:_ZN13XrdClientConn14GetAccessToSrvEv
fun:_ZN14XrdClientAdmin7ConnectEv
fun:_ZN7gclient11GSIgetTokenEv
fun:_ZN7gclient7ConnectEPKciS1_S1_
fun:_ZN6TAlienC1EPKcS1_S1_S1_
fun:_ZL19G__G__Alien_238_0_5P8G__valuePKcP8G__parami
fun:_ZN4Cint11G__CallFunc7ExecuteEPv
fun:_ZNK5TCint16CallFunc_ExecIntEPvS0_
fun:_ZN11TMethodCall7ExecuteEPvRl
fun:_ZN14TPluginHandler10ExecPluginEiz
}
{
alien_8
Memcheck:Leak
match-leak-kinds: definite
fun:_Znam
fun:_ZN13XrdClientConn7DoLoginEv
fun:_ZN13XrdClientConn14GetAccessToSrvEv
fun:_ZN13XrdClientConn17GoToAnotherServerER16XrdClientUrlInfo
fun:_ZN13XrdClientConn17HandleServerErrorER13XReqErrorTypeP16XrdClientMessageP13ClientRequest
fun:_ZN13XrdClientConn17ReadPartialAnswerER13XReqErrorTypeRmP13ClientRequestbPPvRNS_22EThreeStateReadHandlerE
fun:_ZN13XrdClientConn15ClientServerCmdEP13ClientRequestPKvPPvS4_bi
fun:_ZN13XrdClientConn14SendGenCommandEP13ClientRequestPKvPPvS4_bPci
fun:_ZN9XrdClient7LowOpenEPKcttPc
fun:_ZN9XrdClient7TryOpenEttb
fun:_ZN9XrdClient4OpenEttb
fun:_ZN9TXNetFile4OpenEPKcb
}
{
alien_9
Memcheck:Leak
match-leak-kinds: definite
fun:malloc
fun:CRYPTO_malloc
fun:BN_new
fun:BN_hex2bn
fun:_ZN18XrdCryptosslCipherC1EiPciPKc
fun:_ZN19XrdCryptosslFactory6CipherEiPciPKc
fun:_ZN17XrdSecProtocolgsi12ClientDoCertEP12XrdSutBufferPS1_R12XrdOucString
fun:_ZN17XrdSecProtocolgsi16ParseClientInputEP12XrdSutBufferPS1_R12XrdOucString
fun:_ZN17XrdSecProtocolgsi14getCredentialsEP12XrdSecBufferP13XrdOucErrInfo
fun:_ZN13XrdClientConn16DoAuthenticationEPci
fun:_ZN13XrdClientConn7DoLoginEv
fun:_ZN13XrdClientConn14GetAccessToSrvEv
}
{
alien_10
Memcheck:Leak
match-leak-kinds: definite
fun:_Znwm
fun:_ZN8TStorage11ObjectAllocEm
fun:_ZN6TAlien7CommandEPKcbj
fun:_ZN6TAlien3PwdEb
fun:_ZN6TAlienC1EPKcS1_S1_S1_
fun:_ZL19G__G__Alien_238_0_5P8G__valuePKcP8G__parami
fun:_ZN4Cint11G__CallFunc7ExecuteEPv
fun:_ZNK5TCint16CallFunc_ExecIntEPvS0_
fun:_ZN11TMethodCall7ExecuteEPvRl
fun:_ZN14TPluginHandler10ExecPluginEiz
fun:_ZN16AliAnalysisAlien7ConnectEv
fun:_ZN16AliAnalysisAlien13StartAnalysisExx
}
{
alien_11
Memcheck:Leak
match-leak-kinds: definite
fun:_Znwm
fun:_ZN8TStorage11ObjectAllocEm
fun:_ZN6TAlien7CommandEPKcbj
fun:_ZN6TAlien3PwdEb
fun:_ZN6TAlienC1EPKcS1_S1_S1_
fun:_ZL19G__G__Alien_238_0_5P8G__valuePKcP8G__parami
fun:_ZN4Cint11G__CallFunc7ExecuteEPv
fun:_ZNK5TCint16CallFunc_ExecIntEPvS0_
fun:_ZN11TMethodCall7ExecuteEPvRl
fun:_ZN14TPluginHandler10ExecPluginEiz
fun:_ZN16AliAnalysisAlien7ConnectEv
fun:_ZN16AliAnalysisAlien13StartAnalysisExx
}
{
alien_12
Memcheck:Leak
match-leak-kinds: definite
fun:_Znwm
fun:_ZN8TStorage11ObjectAllocEm
fun:_ZN6TAlien7CommandEPKcbj
fun:_ZN6TAlien3PwdEb
fun:_ZN6TAlienC1EPKcS1_S1_S1_
fun:_ZL19G__G__Alien_238_0_5P8G__valuePKcP8G__parami
fun:_ZN4Cint11G__CallFunc7ExecuteEPv
fun:_ZNK5TCint16CallFunc_ExecIntEPvS0_
fun:_ZN11TMethodCall7ExecuteEPvRl
fun:_ZN14TPluginHandler10ExecPluginEiz
fun:_ZN16AliAnalysisAlien7ConnectEv
fun:_ZN16AliAnalysisAlien13StartAnalysisExx
}
{
alien_13
Memcheck:Leak
match-leak-kinds: definite
fun:_Znwm
fun:_ZN8TStorage11ObjectAllocEm
fun:_ZN6TAlien7CommandEPKcbj
fun:_ZN6TAlien3PwdEb
fun:_ZN6TAlienC1EPKcS1_S1_S1_
fun:_ZL19G__G__Alien_238_0_5P8G__valuePKcP8G__parami
fun:_ZN4Cint11G__CallFunc7ExecuteEPv
fun:_ZNK5TCint16CallFunc_ExecIntEPvS0_
fun:_ZN11TMethodCall7ExecuteEPvRl
fun:_ZN14TPluginHandler10ExecPluginEiz
fun:_ZN16AliAnalysisAlien7ConnectEv
fun:_ZN16AliAnalysisAlien13StartAnalysisExx
}
{
alien_14
Memcheck:Leak
match-leak-kinds: definite
fun:_Znam
fun:_ZN18XrdCryptosslCipher6PublicERi
fun:_ZN17XrdSecProtocolgsi14getCredentialsEP12XrdSecBufferP13XrdOucErrInfo
fun:_ZN13XrdClientConn16DoAuthenticationEPci
fun:_ZN13XrdClientConn7DoLoginEv
fun:_ZN13XrdClientConn14GetAccessToSrvEv
fun:_ZN14XrdClientAdmin7ConnectEv
fun:_ZN7gclient11GSIgetTokenEv
fun:_ZN7gclient7ConnectEPKciS1_S1_
fun:_ZN6TAlienC1EPKcS1_S1_S1_
fun:_ZL19G__G__Alien_238_0_5P8G__valuePKcP8G__parami
fun:_ZN4Cint11G__CallFunc7ExecuteEPv
}
{
alien_15
Memcheck:Leak
match-leak-kinds: definite
fun:_Znwm
fun:_ZN17XrdSecProtocolgsi5GetCAEPKcP16XrdCryptoFactoryP9gsiHSVars
fun:_ZN17XrdSecProtocolgsi11ParseCAlistE12XrdOucString
fun:_ZN17XrdSecProtocolgsi12ClientDoInitEP12XrdSutBufferPS1_R12XrdOucString
fun:_ZN17XrdSecProtocolgsi16ParseClientInputEP12XrdSutBufferPS1_R12XrdOucString
fun:_ZN17XrdSecProtocolgsi14getCredentialsEP12XrdSecBufferP13XrdOucErrInfo
fun:_ZN13XrdClientConn16DoAuthenticationEPci
fun:_ZN13XrdClientConn7DoLoginEv
fun:_ZN13XrdClientConn14GetAccessToSrvEv
fun:_ZN14XrdClientAdmin7ConnectEv
fun:_ZN7gclient11GSIgetTokenEv
fun:_ZN7gclient7ConnectEPKciS1_S1_
}
{
alien_16
Memcheck:Leak
match-leak-kinds: definite
fun:_Znwm
fun:_ZN8TStorage11ObjectAllocEm
fun:_ZN6TAlien7CommandEPKcbj
fun:_ZN6TAlien2CdEPKcb
fun:_ZN6TAlienC1EPKcS1_S1_S1_
fun:_ZL19G__G__Alien_238_0_5P8G__valuePKcP8G__parami
fun:_ZN4Cint11G__CallFunc7ExecuteEPv
fun:_ZNK5TCint16CallFunc_ExecIntEPvS0_
fun:_ZN11TMethodCall7ExecuteEPvRl
fun:_ZN14TPluginHandler10ExecPluginEiz
fun:_ZN16AliAnalysisAlien7ConnectEv
fun:_ZN16AliAnalysisAlien13StartAnalysisExx
}
{
alien_17
Memcheck:Leak
match-leak-kinds: definite
fun:_Znwm
fun:_ZN8TStorage11ObjectAllocEm
fun:_ZN6TAlien7CommandEPKcbj
fun:_ZN6TAlienC1EPKcS1_S1_S1_
fun:_ZL19G__G__Alien_238_0_5P8G__valuePKcP8G__parami
fun:_ZN4Cint11G__CallFunc7ExecuteEPv
fun:_ZNK5TCint16CallFunc_ExecIntEPvS0_
fun:_ZN11TMethodCall7ExecuteEPvRl
fun:_ZN14TPluginHandler10ExecPluginEiz
fun:_ZN16AliAnalysisAlien7ConnectEv
fun:_ZN16AliAnalysisAlien13StartAnalysisExx
fun:_ZN18AliAnalysisManager13StartAnalysisEPKcP5TTreexx
}
{
alien_18
Memcheck:Leak
match-leak-kinds: definite
fun:_Znwm
fun:_ZN8TStorage11ObjectAllocEm
fun:_ZN6TAlien7CommandEPKcbj
fun:_ZN6TAlien2RmEPKcS1_b
fun:_ZN16AliAnalysisAlien13CheckFileCopyEPKc
fun:_ZN16AliAnalysisAlien13StartAnalysisExx
fun:_ZN18AliAnalysisManager13StartAnalysisEPKcP5TTreexx
fun:_ZL23G__G__ANALYSIS_208_0_14P8G__valuePKcP8G__parami
fun:_ZN4Cint19G__ExceptionWrapperEPFiP8G__valuePKcP8G__paramiES1_PcS5_i
fun:G__execute_call
fun:G__call_cppfunc
fun:G__interpret_func
}
{
alien_19
Memcheck:Leak
match-leak-kinds: definite
fun:_Znwm
fun:_Z27XrdCryptosslX509ExportChainP18XrdCryptoX509Chainb
fun:_ZN17XrdSecProtocolgsi10QueryProxyEbP11XrdSutCachePKcP16XrdCryptoFactorylP9ProxyIn_tP10ProxyOut_t
fun:_ZN17XrdSecProtocolgsi12ClientDoInitEP12XrdSutBufferPS1_R12XrdOucString
fun:_ZN17XrdSecProtocolgsi16ParseClientInputEP12XrdSutBufferPS1_R12XrdOucString
fun:_ZN17XrdSecProtocolgsi14getCredentialsEP12XrdSecBufferP13XrdOucErrInfo
fun:_ZN13XrdClientConn16DoAuthenticationEPci
fun:_ZN13XrdClientConn7DoLoginEv
fun:_ZN13XrdClientConn14GetAccessToSrvEv
fun:_ZN14XrdClientAdmin7ConnectEv
fun:_ZN7gclient11GSIgetTokenEv
fun:_ZN7gclient7ConnectEPKciS1_S1_
}
{
alien_indirect_1
Memcheck:Leak
match-leak-kinds: indirect
fun:malloc
fun:realloc
fun:_ZN12XrdOucString8bufallocEi
fun:_ZN12XrdOucString6assignEPKcii
fun:_ZN12XrdOucStringaSEPKc
fun:_ZN18XrdCryptoX509ChainC1EP13XrdCryptoX509
fun:_ZN17XrdSecProtocolgsi5GetCAEPKcP16XrdCryptoFactoryP9gsiHSVars
fun:_ZN17XrdSecProtocolgsi11ParseCAlistE12XrdOucString
fun:_ZN17XrdSecProtocolgsi12ClientDoInitEP12XrdSutBufferPS1_R12XrdOucString
fun:_ZN17XrdSecProtocolgsi16ParseClientInputEP12XrdSutBufferPS1_R12XrdOucString
fun:_ZN17XrdSecProtocolgsi14getCredentialsEP12XrdSecBufferP13XrdOucErrInfo
fun:_ZN13XrdClientConn16DoAuthenticationEPci
}
{
alien_indirect_2
Memcheck:Leak
match-leak-kinds: indirect
fun:malloc
fun:realloc
fun:_ZN12XrdOucString8bufallocEi
fun:_ZN12XrdOucString6assignEPKcii
fun:_ZN12XrdOucStringaSEPKc
fun:_ZN18XrdCryptoX509ChainC1EP13XrdCryptoX509
fun:_ZN17XrdSecProtocolgsi5GetCAEPKcP16XrdCryptoFactoryP9gsiHSVars
fun:_ZN17XrdSecProtocolgsi11ParseCAlistE12XrdOucString
fun:_ZN17XrdSecProtocolgsi12ClientDoInitEP12XrdSutBufferPS1_R12XrdOucString
fun:_ZN17XrdSecProtocolgsi16ParseClientInputEP12XrdSutBufferPS1_R12XrdOucString
fun:_ZN17XrdSecProtocolgsi14getCredentialsEP12XrdSecBufferP13XrdOucErrInfo
fun:_ZN13XrdClientConn16DoAuthenticationEPci
}
{
alien_indirect_3
Memcheck:Leak
match-leak-kinds: indirect
fun:realloc
fun:_ZN12XrdOucString8bufallocEi
fun:_ZN12XrdOucString6assignEPKcii
fun:_ZN12XrdOucStringaSEPKc
fun:_ZN18XrdCryptoX509Chain7CheckCAEb
fun:_ZN17XrdSecProtocolgsi8VerifyCAEiP24XrdCryptosslgsiX509ChainP16XrdCryptoFactory
fun:_ZN17XrdSecProtocolgsi5GetCAEPKcP16XrdCryptoFactoryP9gsiHSVars
fun:_ZN17XrdSecProtocolgsi11ParseCAlistE12XrdOucString
fun:_ZN17XrdSecProtocolgsi12ClientDoInitEP12XrdSutBufferPS1_R12XrdOucString
fun:_ZN17XrdSecProtocolgsi16ParseClientInputEP12XrdSutBufferPS1_R12XrdOucString
fun:_ZN17XrdSecProtocolgsi14getCredentialsEP12XrdSecBufferP13XrdOucErrInfo
fun:_ZN13XrdClientConn16DoAuthenticationEPci
}
{
alien_indirect_4
Memcheck:Leak
match-leak-kinds: indirect
fun:malloc
fun:CRYPTO_malloc
obj:/lib/x86_64-linux-gnu/libcrypto.so.1.0.0
fun:bn_expand2
fun:BN_hex2bn
fun:_ZN18XrdCryptosslCipherC1EiPciPKc
fun:_ZN19XrdCryptosslFactory6CipherEiPciPKc
fun:_ZN17XrdSecProtocolgsi12ClientDoCertEP12XrdSutBufferPS1_R12XrdOucString
fun:_ZN17XrdSecProtocolgsi16ParseClientInputEP12XrdSutBufferPS1_R12XrdOucString
fun:_ZN17XrdSecProtocolgsi14getCredentialsEP12XrdSecBufferP13XrdOucErrInfo
fun:_ZN13XrdClientConn16DoAuthenticationEPci
fun:_ZN13XrdClientConn7DoLoginEv
}
{
alien_indirect_5
Memcheck:Leak
match-leak-kinds: indirect
fun:_Znwm
fun:_ZN18XrdCryptoX509Chain8PushBackEP13XrdCryptoX509
fun:_Z25XrdCryptosslX509ParseFilePKcP18XrdCryptoX509Chain
fun:_ZN17XrdSecProtocolgsi5GetCAEPKcP16XrdCryptoFactoryP9gsiHSVars
fun:_ZN17XrdSecProtocolgsi11ParseCAlistE12XrdOucString
fun:_ZN17XrdSecProtocolgsi12ClientDoInitEP12XrdSutBufferPS1_R12XrdOucString
fun:_ZN17XrdSecProtocolgsi16ParseClientInputEP12XrdSutBufferPS1_R12XrdOucString
fun:_ZN17XrdSecProtocolgsi14getCredentialsEP12XrdSecBufferP13XrdOucErrInfo
fun:_ZN13XrdClientConn16DoAuthenticationEPci
fun:_ZN13XrdClientConn7DoLoginEv
fun:_ZN13XrdClientConn14GetAccessToSrvEv
fun:_ZN14XrdClientAdmin7ConnectEv
}
{
alien_indirect_6
Memcheck:Leak
match-leak-kinds: indirect
fun:_Znam
fun:_ZN7TString4InitEii
fun:_ZN7TStringC1EPKc
fun:_ZN6TAlien7CommandEPKcbj
fun:_ZN6TAlien3PwdEb
fun:_ZN6TAlienC1EPKcS1_S1_S1_
fun:_ZL19G__G__Alien_238_0_5P8G__valuePKcP8G__parami
fun:_ZN4Cint11G__CallFunc7ExecuteEPv
fun:_ZNK5TCint16CallFunc_ExecIntEPvS0_
fun:_ZN11TMethodCall7ExecuteEPvRl
fun:_ZN14TPluginHandler10ExecPluginEiz
fun:_ZN16AliAnalysisAlien7ConnectEv
}
{
alien_indirect_7
Memcheck:Leak
match-leak-kinds: indirect
fun:_Znwm
fun:_ZN5TList7NewLinkEP7TObjectP8TObjLink
fun:_ZN5TList7AddLastEP7TObject
fun:_ZN6TAlien7CommandEPKcbj
fun:_ZN6TAlien3PwdEb
fun:_ZN6TAlienC1EPKcS1_S1_S1_
fun:_ZL19G__G__Alien_238_0_5P8G__valuePKcP8G__parami
fun:_ZN4Cint11G__CallFunc7ExecuteEPv
fun:_ZNK5TCint16CallFunc_ExecIntEPvS0_
fun:_ZN11TMethodCall7ExecuteEPvRl
fun:_ZN14TPluginHandler10ExecPluginEiz
fun:_ZN16AliAnalysisAlien7ConnectEv
}
{
alien_indirect_8
Memcheck:Leak
match-leak-kinds: indirect
fun:_Znwm
fun:_ZN8TStorage11ObjectAllocEm
fun:_ZN4TMap3AddEP7TObjectS1_
fun:_ZN6TAlien7CommandEPKcbj
fun:_ZN6TAlien2CdEPKcb
fun:_ZN6TAlienC1EPKcS1_S1_S1_
fun:_ZL19G__G__Alien_238_0_5P8G__valuePKcP8G__parami
fun:_ZN4Cint11G__CallFunc7ExecuteEPv
fun:_ZNK5TCint16CallFunc_ExecIntEPvS0_
fun:_ZN11TMethodCall7ExecuteEPvRl
fun:_ZN14TPluginHandler10ExecPluginEiz
fun:_ZN16AliAnalysisAlien7ConnectEv
}
{
alien_indirect_9
Memcheck:Leak
match-leak-kinds: indirect
fun:_Znwm
fun:_ZN5TList7NewLinkEP7TObjectP8TObjLink
fun:_ZN5TList7AddLastEP7TObject
fun:_ZN10THashTable3AddEP7TObject
fun:_ZN4TMap3AddEP7TObjectS1_
fun:_ZN6TAlien7CommandEPKcbj
fun:_ZN6TAlien2CdEPKcb
fun:_ZN6TAlienC1EPKcS1_S1_S1_
fun:_ZL19G__G__Alien_238_0_5P8G__valuePKcP8G__parami
fun:_ZN4Cint11G__CallFunc7ExecuteEPv
fun:_ZNK5TCint16CallFunc_ExecIntEPvS0_
fun:_ZN11TMethodCall7ExecuteEPvRl
}
{
alien_indirect_10
Memcheck:Leak
match-leak-kinds: indirect
fun:_Znwm
fun:_ZN5TList7NewLinkEP7TObjectP8TObjLink
fun:_ZN5TList7AddLastEP7TObject
fun:_ZN6TAlien7CommandEPKcbj
fun:_ZN6TAlien2CdEPKcb
fun:_ZN6TAlienC1EPKcS1_S1_S1_
fun:_ZL19G__G__Alien_238_0_5P8G__valuePKcP8G__parami
fun:_ZN4Cint11G__CallFunc7ExecuteEPv
fun:_ZNK5TCint16CallFunc_ExecIntEPvS0_
fun:_ZN11TMethodCall7ExecuteEPvRl
fun:_ZN14TPluginHandler10ExecPluginEiz
fun:_ZN16AliAnalysisAlien7ConnectEv
}
{
alien_indirect_11
Memcheck:Leak
match-leak-kinds: indirect
fun:_Znam
fun:_ZN7TString4InitEii
fun:_ZN7TStringC1EPKc
fun:_ZN6TAlien7CommandEPKcbj
fun:_ZN6TAlien3PwdEb
fun:_ZN6TAlienC1EPKcS1_S1_S1_
fun:_ZL19G__G__Alien_238_0_5P8G__valuePKcP8G__parami
fun:_ZN4Cint11G__CallFunc7ExecuteEPv
fun:_ZNK5TCint16CallFunc_ExecIntEPvS0_
fun:_ZN11TMethodCall7ExecuteEPvRl
fun:_ZN14TPluginHandler10ExecPluginEiz
fun:_ZN16AliAnalysisAlien7ConnectEv
}
{
alien_indirect_12
Memcheck:Leak
match-leak-kinds: indirect
fun:_Znwm
fun:_ZN5TList7NewLinkEP7TObjectP8TObjLink
fun:_ZN5TList7AddLastEP7TObject
fun:_ZN6TAlien7CommandEPKcbj
fun:_ZN6TAlien3PwdEb
fun:_ZN6TAlienC1EPKcS1_S1_S1_
fun:_ZL19G__G__Alien_238_0_5P8G__valuePKcP8G__parami
fun:_ZN4Cint11G__CallFunc7ExecuteEPv
fun:_ZNK5TCint16CallFunc_ExecIntEPvS0_
fun:_ZN11TMethodCall7ExecuteEPvRl
fun:_ZN14TPluginHandler10ExecPluginEiz
fun:_ZN16AliAnalysisAlien7ConnectEv
}
{
alien_indirect_13
Memcheck:Leak
match-leak-kinds: indirect
fun:_Znwm
fun:_ZN8TStorage11ObjectAllocEm
fun:_ZN4TMap3AddEP7TObjectS1_
fun:_ZN6TAlien7CommandEPKcbj
fun:_ZN6TAlienC1EPKcS1_S1_S1_
fun:_ZL19G__G__Alien_238_0_5P8G__valuePKcP8G__parami
fun:_ZN4Cint11G__CallFunc7ExecuteEPv
fun:_ZNK5TCint16CallFunc_ExecIntEPvS0_
fun:_ZN11TMethodCall7ExecuteEPvRl
fun:_ZN14TPluginHandler10ExecPluginEiz
fun:_ZN16AliAnalysisAlien7ConnectEv
fun:_ZN16AliAnalysisAlien13StartAnalysisExx
}
{
alien_indirect_14
Memcheck:Leak
match-leak-kinds: indirect
fun:_Znwm
fun:_ZN5TList7NewLinkEP7TObjectP8TObjLink
fun:_ZN5TList7AddLastEP7TObject
fun:_ZN10THashTable3AddEP7TObject
fun:_ZN4TMap3AddEP7TObjectS1_
fun:_ZN6TAlien7CommandEPKcbj
fun:_ZN6TAlienC1EPKcS1_S1_S1_
fun:_ZL19G__G__Alien_238_0_5P8G__valuePKcP8G__parami
fun:_ZN4Cint11G__CallFunc7ExecuteEPv
fun:_ZNK5TCint16CallFunc_ExecIntEPvS0_
fun:_ZN11TMethodCall7ExecuteEPvRl
fun:_ZN14TPluginHandler10ExecPluginEiz
}
{
alien_indirect_15
Memcheck:Leak
match-leak-kinds: indirect
fun:_Znwm
fun:_ZN5TList7NewLinkEP7TObjectP8TObjLink
fun:_ZN5TList7AddLastEP7TObject
fun:_ZN6TAlien7CommandEPKcbj
fun:_ZN6TAlienC1EPKcS1_S1_S1_
fun:_ZL19G__G__Alien_238_0_5P8G__valuePKcP8G__parami
fun:_ZN4Cint11G__CallFunc7ExecuteEPv
fun:_ZNK5TCint16CallFunc_ExecIntEPvS0_
fun:_ZN11TMethodCall7ExecuteEPvRl
fun:_ZN14TPluginHandler10ExecPluginEiz
fun:_ZN16AliAnalysisAlien7ConnectEv
fun:_ZN16AliAnalysisAlien13StartAnalysisExx
}
{
alien_indirect_16
Memcheck:Leak
match-leak-kinds: indirect
fun:_Znwm
fun:_ZN8TStorage11ObjectAllocEm
fun:_ZN4TMap3AddEP7TObjectS1_
fun:_ZN6TAlien7CommandEPKcbj
fun:_ZN6TAlien2RmEPKcS1_b
fun:_ZN16AliAnalysisAlien13CheckFileCopyEPKc
fun:_ZN16AliAnalysisAlien13StartAnalysisExx
fun:_ZN18AliAnalysisManager13StartAnalysisEPKcP5TTreexx
fun:_ZL23G__G__ANALYSIS_208_0_14P8G__valuePKcP8G__parami
fun:_ZN4Cint19G__ExceptionWrapperEPFiP8G__valuePKcP8G__paramiES1_PcS5_i
fun:G__execute_call
fun:G__call_cppfunc
}
{
alien_indirect_17
Memcheck:Leak
match-leak-kinds: indirect
fun:_Znwm
fun:_ZN5TList7NewLinkEP7TObjectP8TObjLink
fun:_ZN5TList7AddLastEP7TObject
fun:_ZN10THashTable3AddEP7TObject
fun:_ZN4TMap3AddEP7TObjectS1_
fun:_ZN6TAlien7CommandEPKcbj
fun:_ZN6TAlien2RmEPKcS1_b
fun:_ZN16AliAnalysisAlien13CheckFileCopyEPKc
fun:_ZN16AliAnalysisAlien13StartAnalysisExx
fun:_ZN18AliAnalysisManager13StartAnalysisEPKcP5TTreexx
fun:_ZL23G__G__ANALYSIS_208_0_14P8G__valuePKcP8G__parami
fun:_ZN4Cint19G__ExceptionWrapperEPFiP8G__valuePKcP8G__paramiES1_PcS5_i
}
{
alien_indirect_18
Memcheck:Leak
match-leak-kinds: indirect
fun:_Znwm
fun:_ZN5TList7NewLinkEP7TObjectP8TObjLink
fun:_ZN5TList7AddLastEP7TObject
fun:_ZN6TAlien7CommandEPKcbj
fun:_ZN6TAlien2RmEPKcS1_b
fun:_ZN16AliAnalysisAlien13CheckFileCopyEPKc
fun:_ZN16AliAnalysisAlien13StartAnalysisExx
fun:_ZN18AliAnalysisManager13StartAnalysisEPKcP5TTreexx
fun:_ZL23G__G__ANALYSIS_208_0_14P8G__valuePKcP8G__parami
fun:_ZN4Cint19G__ExceptionWrapperEPFiP8G__valuePKcP8G__paramiES1_PcS5_i
fun:G__execute_call
fun:G__call_cppfunc
}
{
alien_indirect_19
Memcheck:Leak
match-leak-kinds: indirect
fun:realloc
fun:_ZN12XrdOucString8bufallocEi
fun:_ZN12XrdOucString6insertEPKcii
fun:_ZN12XrdOucStringpLEPKc
fun:_ZN18XrdCryptoX509Chain6VerifyERNS_13EX509ChainErrEPKcN13XrdCryptoX5099EX509TypeEiPS4_S6_P16XrdCryptoX509Crl
fun:_ZN18XrdCryptoX509Chain7CheckCAEb
fun:_ZN17XrdSecProtocolgsi8VerifyCAEiP24XrdCryptosslgsiX509ChainP16XrdCryptoFactory
fun:_ZN17XrdSecProtocolgsi5GetCAEPKcP16XrdCryptoFactoryP9gsiHSVars
fun:_ZN17XrdSecProtocolgsi11ParseCAlistE12XrdOucString
fun:_ZN17XrdSecProtocolgsi12ClientDoInitEP12XrdSutBufferPS1_R12XrdOucString
fun:_ZN17XrdSecProtocolgsi16ParseClientInputEP12XrdSutBufferPS1_R12XrdOucString
fun:_ZN17XrdSecProtocolgsi14getCredentialsEP12XrdSecBufferP13XrdOucErrInfo
}
{
alien_indirect_20
Memcheck:Leak
match-leak-kinds: indirect
fun:_Znwm
fun:_ZN8TStorage11ObjectAllocEm
fun:_ZN6TAlien7CommandEPKcbj
fun:_ZN6TAlien2CdEPKcb
fun:_ZN6TAlienC1EPKcS1_S1_S1_
fun:_ZL19G__G__Alien_238_0_5P8G__valuePKcP8G__parami
fun:_ZN4Cint11G__CallFunc7ExecuteEPv
fun:_ZNK5TCint16CallFunc_ExecIntEPvS0_
fun:_ZN11TMethodCall7ExecuteEPvRl
fun:_ZN14TPluginHandler10ExecPluginEiz
fun:_ZN16AliAnalysisAlien7ConnectEv
fun:_ZN16AliAnalysisAlien13StartAnalysisExx
}
{
alien_indirect_21
Memcheck:Leak
match-leak-kinds: indirect
fun:_Znwm
fun:_ZN8TStorage11ObjectAllocEm
fun:_ZN6TAlien7CommandEPKcbj
fun:_ZN6TAlien2CdEPKcb
fun:_ZN6TAlienC1EPKcS1_S1_S1_
fun:_ZL19G__G__Alien_238_0_5P8G__valuePKcP8G__parami
fun:_ZN4Cint11G__CallFunc7ExecuteEPv
fun:_ZNK5TCint16CallFunc_ExecIntEPvS0_
fun:_ZN11TMethodCall7ExecuteEPvRl
fun:_ZN14TPluginHandler10ExecPluginEiz
fun:_ZN16AliAnalysisAlien7ConnectEv
fun:_ZN16AliAnalysisAlien13StartAnalysisExx
}
{
alien_indirect_22
Memcheck:Leak
match-leak-kinds: indirect
fun:_Znwm
fun:_ZN8TStorage11ObjectAllocEm
fun:_ZN6TAlien7CommandEPKcbj
fun:_ZN6TAlienC1EPKcS1_S1_S1_
fun:_ZL19G__G__Alien_238_0_5P8G__valuePKcP8G__parami
fun:_ZN4Cint11G__CallFunc7ExecuteEPv
fun:_ZNK5TCint16CallFunc_ExecIntEPvS0_
fun:_ZN11TMethodCall7ExecuteEPvRl
fun:_ZN14TPluginHandler10ExecPluginEiz
fun:_ZN16AliAnalysisAlien7ConnectEv
fun:_ZN16AliAnalysisAlien13StartAnalysisExx
fun:_ZN18AliAnalysisManager13StartAnalysisEPKcP5TTreexx
}
{
alien_indirect_23
Memcheck:Leak
match-leak-kinds: indirect
fun:_Znwm
fun:_ZN8TStorage11ObjectAllocEm
fun:_ZN6TAlien7CommandEPKcbj
fun:_ZN6TAlienC1EPKcS1_S1_S1_
fun:_ZL19G__G__Alien_238_0_5P8G__valuePKcP8G__parami
fun:_ZN4Cint11G__CallFunc7ExecuteEPv
fun:_ZNK5TCint16CallFunc_ExecIntEPvS0_
fun:_ZN11TMethodCall7ExecuteEPvRl
fun:_ZN14TPluginHandler10ExecPluginEiz
fun:_ZN16AliAnalysisAlien7ConnectEv
fun:_ZN16AliAnalysisAlien13StartAnalysisExx
fun:_ZN18AliAnalysisManager13StartAnalysisEPKcP5TTreexx
}
{
alien_indirect_24
Memcheck:Leak
match-leak-kinds: indirect
fun:_Znwm
fun:_ZN8TStorage11ObjectAllocEm
fun:_ZN6TAlien7CommandEPKcbj
fun:_ZN6TAlien2RmEPKcS1_b
fun:_ZN16AliAnalysisAlien13CheckFileCopyEPKc
fun:_ZN16AliAnalysisAlien13StartAnalysisExx
fun:_ZN18AliAnalysisManager13StartAnalysisEPKcP5TTreexx
fun:_ZL23G__G__ANALYSIS_208_0_14P8G__valuePKcP8G__parami
fun:_ZN4Cint19G__ExceptionWrapperEPFiP8G__valuePKcP8G__paramiES1_PcS5_i
fun:G__execute_call
fun:G__call_cppfunc
fun:G__interpret_func
}
{
alien_indirect_25
Memcheck:Leak
match-leak-kinds: indirect
fun:_Znwm
fun:_ZN8TStorage11ObjectAllocEm
fun:_ZN6TAlien7CommandEPKcbj
fun:_ZN6TAlien2RmEPKcS1_b
fun:_ZN16AliAnalysisAlien13CheckFileCopyEPKc
fun:_ZN16AliAnalysisAlien13StartAnalysisExx
fun:_ZN18AliAnalysisManager13StartAnalysisEPKcP5TTreexx
fun:_ZL23G__G__ANALYSIS_208_0_14P8G__valuePKcP8G__parami
fun:_ZN4Cint19G__ExceptionWrapperEPFiP8G__valuePKcP8G__paramiES1_PcS5_i
fun:G__execute_call
fun:G__call_cppfunc
fun:G__interpret_func
}
{
alien_indirect_26
Memcheck:Leak
match-leak-kinds: indirect
fun:realloc
fun:_ZN12XrdOucString8bufallocEi
fun:_ZN12XrdOucString6assignEPKcii
fun:_ZN12XrdOucStringaSEPKc
fun:_ZN18XrdCryptoX509Chain7CheckCAEb
fun:_ZN17XrdSecProtocolgsi8VerifyCAEiP24XrdCryptosslgsiX509ChainP16XrdCryptoFactory
fun:_ZN17XrdSecProtocolgsi5GetCAEPKcP16XrdCryptoFactoryP9gsiHSVars
fun:_ZN17XrdSecProtocolgsi11ParseCAlistE12XrdOucString
fun:_ZN17XrdSecProtocolgsi12ClientDoInitEP12XrdSutBufferPS1_R12XrdOucString
fun:_ZN17XrdSecProtocolgsi16ParseClientInputEP12XrdSutBufferPS1_R12XrdOucString
fun:_ZN17XrdSecProtocolgsi14getCredentialsEP12XrdSecBufferP13XrdOucErrInfo
fun:_ZN13XrdClientConn16DoAuthenticationEPci
}
{
alien_indirect_27
Memcheck:Leak
match-leak-kinds: indirect
fun:_Znwm
fun:_ZN8TStorage11ObjectAllocEm
fun:_ZN6TAlien7CommandEPKcbj
fun:_ZN6TAlien2CdEPKcb
fun:_ZN6TAlienC1EPKcS1_S1_S1_
fun:_ZL19G__G__Alien_238_0_5P8G__valuePKcP8G__parami
fun:_ZN4Cint11G__CallFunc7ExecuteEPv
fun:_ZNK5TCint16CallFunc_ExecIntEPvS0_
fun:_ZN11TMethodCall7ExecuteEPvRl
fun:_ZN14TPluginHandler10ExecPluginEiz
fun:_ZN16AliAnalysisAlien7ConnectEv
fun:_ZN16AliAnalysisAlien13StartAnalysisExx
}
{
alien_indirect_28
Memcheck:Leak
match-leak-kinds: indirect
fun:_Znwm
fun:_ZN8TStorage11ObjectAllocEm
fun:_ZN6TAlien7CommandEPKcbj
fun:_ZN6TAlienC1EPKcS1_S1_S1_
fun:_ZL19G__G__Alien_238_0_5P8G__valuePKcP8G__parami
fun:_ZN4Cint11G__CallFunc7ExecuteEPv
fun:_ZNK5TCint16CallFunc_ExecIntEPvS0_
fun:_ZN11TMethodCall7ExecuteEPvRl
fun:_ZN14TPluginHandler10ExecPluginEiz
fun:_ZN16AliAnalysisAlien7ConnectEv
fun:_ZN16AliAnalysisAlien13StartAnalysisExx
fun:_ZN18AliAnalysisManager13StartAnalysisEPKcP5TTreexx
}
{
alien_indirect_29
Memcheck:Leak
match-leak-kinds: indirect
fun:_Znwm
fun:_ZN8TStorage11ObjectAllocEm
fun:_ZN6TAlien7CommandEPKcbj
fun:_ZN6TAlien2RmEPKcS1_b
fun:_ZN16AliAnalysisAlien13CheckFileCopyEPKc
fun:_ZN16AliAnalysisAlien13StartAnalysisExx
fun:_ZN18AliAnalysisManager13StartAnalysisEPKcP5TTreexx
fun:_ZL23G__G__ANALYSIS_208_0_14P8G__valuePKcP8G__parami
fun:_ZN4Cint19G__ExceptionWrapperEPFiP8G__valuePKcP8G__paramiES1_PcS5_i
fun:G__execute_call
fun:G__call_cppfunc
fun:G__interpret_func
}
{
alien_indirect_30
Memcheck:Leak
match-leak-kinds: indirect
fun:_Znwm
fun:_ZN8TStorage11ObjectAllocEm
fun:_ZN4TMapC1Eii
fun:_ZN6TAlien7CommandEPKcbj
fun:_ZN6TAlien2CdEPKcb
fun:_ZN6TAlienC1EPKcS1_S1_S1_
fun:_ZL19G__G__Alien_238_0_5P8G__valuePKcP8G__parami
fun:_ZN4Cint11G__CallFunc7ExecuteEPv
fun:_ZNK5TCint16CallFunc_ExecIntEPvS0_
fun:_ZN11TMethodCall7ExecuteEPvRl
fun:_ZN14TPluginHandler10ExecPluginEiz
fun:_ZN16AliAnalysisAlien7ConnectEv
}
{
alien_indirect_31
Memcheck:Leak
match-leak-kinds: indirect
fun:_Znwm
fun:_ZN8TStorage11ObjectAllocEm
fun:_ZN4TMapC1Eii
fun:_ZN6TAlien7CommandEPKcbj
fun:_ZN6TAlienC1EPKcS1_S1_S1_
fun:_ZL19G__G__Alien_238_0_5P8G__valuePKcP8G__parami
fun:_ZN4Cint11G__CallFunc7ExecuteEPv
fun:_ZNK5TCint16CallFunc_ExecIntEPvS0_
fun:_ZN11TMethodCall7ExecuteEPvRl
fun:_ZN14TPluginHandler10ExecPluginEiz
fun:_ZN16AliAnalysisAlien7ConnectEv
fun:_ZN16AliAnalysisAlien13StartAnalysisExx
}
{
alien_indirect_32
Memcheck:Leak
match-leak-kinds: indirect
fun:_Znwm
fun:_ZN8TStorage11ObjectAllocEm
fun:_ZN4TMapC1Eii
fun:_ZN6TAlien7CommandEPKcbj
fun:_ZN6TAlien2RmEPKcS1_b
fun:_ZN16AliAnalysisAlien13CheckFileCopyEPKc
fun:_ZN16AliAnalysisAlien13StartAnalysisExx
fun:_ZN18AliAnalysisManager13StartAnalysisEPKcP5TTreexx
fun:_ZL23G__G__ANALYSIS_208_0_14P8G__valuePKcP8G__parami
fun:_ZN4Cint19G__ExceptionWrapperEPFiP8G__valuePKcP8G__paramiES1_PcS5_i
fun:G__execute_call
fun:G__call_cppfunc
}
{
alien_indirect_33
Memcheck:Leak
match-leak-kinds: indirect
fun:_Znwm
fun:_ZN8TStorage11ObjectAllocEm
fun:_ZN10THashTable3AddEP7TObject
fun:_ZN4TMap3AddEP7TObjectS1_
fun:_ZN6TAlien7CommandEPKcbj
fun:_ZN6TAlien2CdEPKcb
fun:_ZN6TAlienC1EPKcS1_S1_S1_
fun:_ZL19G__G__Alien_238_0_5P8G__valuePKcP8G__parami
fun:_ZN4Cint11G__CallFunc7ExecuteEPv
fun:_ZNK5TCint16CallFunc_ExecIntEPvS0_
fun:_ZN11TMethodCall7ExecuteEPvRl
fun:_ZN14TPluginHandler10ExecPluginEiz
}
{
alien_indirect_34
Memcheck:Leak
match-leak-kinds: indirect
fun:_Znwm
fun:_ZN8TStorage11ObjectAllocEm
fun:_ZN10THashTable3AddEP7TObject
fun:_ZN4TMap3AddEP7TObjectS1_
fun:_ZN6TAlien7CommandEPKcbj
fun:_ZN6TAlienC1EPKcS1_S1_S1_
fun:_ZL19G__G__Alien_238_0_5P8G__valuePKcP8G__parami
fun:_ZN4Cint11G__CallFunc7ExecuteEPv
fun:_ZNK5TCint16CallFunc_ExecIntEPvS0_
fun:_ZN11TMethodCall7ExecuteEPvRl
fun:_ZN14TPluginHandler10ExecPluginEiz
fun:_ZN16AliAnalysisAlien7ConnectEv
}
{
alien_indirect_35
Memcheck:Leak
match-leak-kinds: indirect
fun:_Znwm
fun:_ZN8TStorage11ObjectAllocEm
fun:_ZN10THashTable3AddEP7TObject
fun:_ZN4TMap3AddEP7TObjectS1_
fun:_ZN6TAlien7CommandEPKcbj
fun:_ZN6TAlien2RmEPKcS1_b
fun:_ZN16AliAnalysisAlien13CheckFileCopyEPKc
fun:_ZN16AliAnalysisAlien13StartAnalysisExx
fun:_ZN18AliAnalysisManager13StartAnalysisEPKcP5TTreexx
fun:_ZL23G__G__ANALYSIS_208_0_14P8G__valuePKcP8G__parami
fun:_ZN4Cint19G__ExceptionWrapperEPFiP8G__valuePKcP8G__paramiES1_PcS5_i
fun:G__execute_call
}
{
alien_indirect_36
Memcheck:Leak
match-leak-kinds: indirect
fun:_Znam
fun:_ZN10THashTableC1Eii
fun:_ZN4TMapC1Eii
fun:_ZN6TAlien7CommandEPKcbj
fun:_ZN6TAlien2CdEPKcb
fun:_ZN6TAlienC1EPKcS1_S1_S1_
fun:_ZL19G__G__Alien_238_0_5P8G__valuePKcP8G__parami
fun:_ZN4Cint11G__CallFunc7ExecuteEPv
fun:_ZNK5TCint16CallFunc_ExecIntEPvS0_
fun:_ZN11TMethodCall7ExecuteEPvRl
fun:_ZN14TPluginHandler10ExecPluginEiz
fun:_ZN16AliAnalysisAlien7ConnectEv
}
{
alien_indirect_37
Memcheck:Leak
match-leak-kinds: indirect
fun:_Znam
fun:_ZN10THashTableC1Eii
fun:_ZN4TMapC1Eii
fun:_ZN6TAlien7CommandEPKcbj
fun:_ZN6TAlienC1EPKcS1_S1_S1_
fun:_ZL19G__G__Alien_238_0_5P8G__valuePKcP8G__parami
fun:_ZN4Cint11G__CallFunc7ExecuteEPv
fun:_ZNK5TCint16CallFunc_ExecIntEPvS0_
fun:_ZN11TMethodCall7ExecuteEPvRl
fun:_ZN14TPluginHandler10ExecPluginEiz
fun:_ZN16AliAnalysisAlien7ConnectEv
fun:_ZN16AliAnalysisAlien13StartAnalysisExx
}
{
alien_indirect_38
Memcheck:Leak
match-leak-kinds: indirect
fun:_Znam
fun:_ZN10THashTableC1Eii
fun:_ZN4TMapC1Eii
fun:_ZN6TAlien7CommandEPKcbj
fun:_ZN6TAlien2RmEPKcS1_b
fun:_ZN16AliAnalysisAlien13CheckFileCopyEPKc
fun:_ZN16AliAnalysisAlien13StartAnalysisExx
fun:_ZN18AliAnalysisManager13StartAnalysisEPKcP5TTreexx
fun:_ZL23G__G__ANALYSIS_208_0_14P8G__valuePKcP8G__parami
fun:_ZN4Cint19G__ExceptionWrapperEPFiP8G__valuePKcP8G__paramiES1_PcS5_i
fun:G__execute_call
fun:G__call_cppfunc
}
{
alien_indirect_39
Memcheck:Leak
match-leak-kinds: indirect
fun:_Znam
fun:_ZN7TString4InitEii
fun:_ZN7TStringC1EPKc
fun:_ZNK7TString8TokenizeERKS_
fun:_ZL20G__G__Base2_15_0_161P8G__valuePKcP8G__parami
fun:_ZN4Cint19G__ExceptionWrapperEPFiP8G__valuePKcP8G__paramiES1_PcS5_i
fun:G__execute_call
fun:G__call_cppfunc
fun:G__interpret_func
fun:G__getfunction
fun:_Z15G__getstructmemiR18G__FastAllocStringPciS1_PiP12G__var_arrayi
fun:G__getvariable
}
{
alien_indirect_40
Memcheck:Leak
match-leak-kinds: indirect
fun:_Znam
fun:_ZN8TStorage5AllocEm
fun:_ZN9TObjArray4InitEii
fun:_ZN9TObjArrayC1Eii
fun:_ZNK7TString8TokenizeERKS_
fun:_ZL20G__G__Base2_15_0_161P8G__valuePKcP8G__parami
fun:_ZN4Cint19G__ExceptionWrapperEPFiP8G__valuePKcP8G__paramiES1_PcS5_i
fun:G__execute_call
fun:G__call_cppfunc
fun:G__interpret_func
fun:G__getfunction
fun:_Z15G__getstructmemiR18G__FastAllocStringPciS1_PiP12G__var_arrayi
}
{
alien_indirect_41
Memcheck:Leak
match-leak-kinds: indirect
fun:_Znwm
fun:_ZN8TStorage11ObjectAllocEm
fun:_ZNK7TString8TokenizeERKS_
fun:_ZL20G__G__Base2_15_0_161P8G__valuePKcP8G__parami
fun:_ZN4Cint19G__ExceptionWrapperEPFiP8G__valuePKcP8G__paramiES1_PcS5_i
fun:G__execute_call
fun:G__call_cppfunc
fun:G__interpret_func
fun:G__getfunction
fun:_Z15G__getstructmemiR18G__FastAllocStringPciS1_PiP12G__var_arrayi
fun:G__getvariable
fun:G__getitem
}
{
alien_indirect_42
Memcheck:Leak
match-leak-kinds: indirect
fun:_Znam
fun:_ZN12XrdSutBucket6SetBufEPKci
fun:_Z27XrdCryptosslX509ExportChainP18XrdCryptoX509Chainb
fun:_ZN17XrdSecProtocolgsi10QueryProxyEbP11XrdSutCachePKcP16XrdCryptoFactorylP9ProxyIn_tP10ProxyOut_t
fun:_ZN17XrdSecProtocolgsi12ClientDoInitEP12XrdSutBufferPS1_R12XrdOucString
fun:_ZN17XrdSecProtocolgsi16ParseClientInputEP12XrdSutBufferPS1_R12XrdOucString
fun:_ZN17XrdSecProtocolgsi14getCredentialsEP12XrdSecBufferP13XrdOucErrInfo
fun:_ZN13XrdClientConn16DoAuthenticationEPci
fun:_ZN13XrdClientConn7DoLoginEv
fun:_ZN13XrdClientConn14GetAccessToSrvEv
fun:_ZN14XrdClientAdmin7ConnectEv
fun:_ZN7gclient11GSIgetTokenEv
}
{
alien_possible_1
Memcheck:Leak
match-leak-kinds: possible
fun:_Znwm
fun:_ZNSs4_Rep9_S_createEmmRKSaIcE
fun:_ZNSs12_S_constructIPcEES0_T_S1_RKSaIcESt20forward_iterator_tag
fun:_ZNSsC1ERKSsmm
fun:_ZNKSs6substrEmm
fun:_ZN7gclient7ConnectEPKciS1_S1_
fun:_ZN6TAlienC1EPKcS1_S1_S1_
fun:_ZL19G__G__Alien_238_0_5P8G__valuePKcP8G__parami
fun:_ZN4Cint11G__CallFunc7ExecuteEPv
fun:_ZNK5TCint16CallFunc_ExecIntEPvS0_
fun:_ZN11TMethodCall7ExecuteEPvRl
fun:_ZN14TPluginHandler10ExecPluginEiz
}
{
alien_possible_2
Memcheck:Leak
match-leak-kinds: possible
fun:_Znwm
fun:_ZNSs4_Rep9_S_createEmmRKSaIcE
fun:_ZNSs12_S_constructIPcEES0_T_S1_RKSaIcESt20forward_iterator_tag
fun:_ZNKSt18basic_stringstreamIcSt11char_traitsIcESaIcEE3strEv
fun:_ZN7gclient6SetURLEv
fun:_ZN7gclient7ConnectEPKciS1_S1_
fun:_ZN6TAlienC1EPKcS1_S1_S1_
fun:_ZL19G__G__Alien_238_0_5P8G__valuePKcP8G__parami
fun:_ZN4Cint11G__CallFunc7ExecuteEPv
fun:_ZNK5TCint16CallFunc_ExecIntEPvS0_
fun:_ZN11TMethodCall7ExecuteEPvRl
fun:_ZN14TPluginHandler10ExecPluginEiz
}
{
alien_possible_3
Memcheck:Leak
match-leak-kinds: possible
fun:calloc
fun:_dl_allocate_tls
fun:pthread_create@@GLIBC_2.2.5
fun:_ZN12XrdSysThread3RunEPmPFPvS1_ES1_iPKc
fun:_ZN22XrdClientConnectionMgr6BootUpEv
fun:_ZN22XrdClientConnectionMgrC1Ev
fun:_ZN13XrdClientConnC1Ev
fun:_ZN14XrdClientAdminC1EPKc
fun:_ZN7gclient11GSIgetTokenEv
fun:_ZN7gclient7ConnectEPKciS1_S1_
fun:_ZN6TAlienC1EPKcS1_S1_S1_
fun:_ZL19G__G__Alien_238_0_5P8G__valuePKcP8G__parami
}
{
alien_possible_4
Memcheck:Leak
match-leak-kinds: possible
fun:calloc
fun:_dl_allocate_tls
fun:pthread_create@@GLIBC_2.2.5
fun:_ZN12XrdSysThread3RunEPmPFPvS1_ES1_iPKc
fun:_ZN22XrdClientPhyConnection11StartReaderEv
fun:_ZN13XrdClientConn14GetAccessToSrvEv
fun:_ZN14XrdClientAdmin7ConnectEv
fun:_ZN7gclient11GSIgetTokenEv
fun:_ZN7gclient7ConnectEPKciS1_S1_
fun:_ZN6TAlienC1EPKcS1_S1_S1_
fun:_ZL19G__G__Alien_238_0_5P8G__valuePKcP8G__parami
fun:_ZN4Cint11G__CallFunc7ExecuteEPv
}
{
alien_possible_5
Memcheck:Leak
match-leak-kinds: possible
fun:calloc
fun:_dl_allocate_tls
fun:pthread_create@@GLIBC_2.2.5
fun:_ZN12XrdSysThread3RunEPmPFPvS1_ES1_iPKc
fun:_ZN9XrdClient7TryOpenEttb
fun:_ZN9XrdClient4OpenEttb
fun:_ZN7gclient15InternalCommandEPKc
fun:_ZN7gclient7CommandEPKc
fun:_ZN6TAlien7CommandEPKcbj
fun:_ZN6TAlien3PwdEb
fun:_ZN6TAlienC1EPKcS1_S1_S1_
fun:_ZL19G__G__Alien_238_0_5P8G__valuePKcP8G__parami
}
{
alien_possible_6
Memcheck:Leak
match-leak-kinds: possible
fun:calloc
fun:_dl_allocate_tls
fun:pthread_create@@GLIBC_2.2.5
fun:_ZN12XrdSysThread3RunEPmPFPvS1_ES1_iPKc
fun:_ZN22XrdClientPhyConnection11StartReaderEv
fun:_ZN13XrdClientConn14GetAccessToSrvEv
fun:_ZN13XrdClientConn17GoToAnotherServerER16XrdClientUrlInfo
fun:_ZN13XrdClientConn17HandleServerErrorER13XReqErrorTypeP16XrdClientMessageP13ClientRequest
fun:_ZN13XrdClientConn17ReadPartialAnswerER13XReqErrorTypeRmP13ClientRequestbPPvRNS_22EThreeStateReadHandlerE
fun:_ZN13XrdClientConn15ClientServerCmdEP13ClientRequestPKvPPvS4_bi
fun:_ZN13XrdClientConn14SendGenCommandEP13ClientRequestPKvPPvS4_bPci
fun:_ZN9XrdClient7LowOpenEPKcttPc
}
{
   alien_possible_7 
   Memcheck:Leak
   match-leak-kinds: possible
   fun:_Znwm
   fun:_ZN8TStorage11ObjectAllocEm
   fun:_ZNK7TString8TokenizeERKS_
   fun:_ZL20G__G__Base2_15_0_161P8G__valuePKcP8G__parami
   fun:_ZN4Cint19G__ExceptionWrapperEPFiP8G__valuePKcP8G__paramiES1_PcS5_i
   fun:G__execute_call
   fun:G__call_cppfunc
   fun:G__interpret_func
   fun:G__getfunction
   fun:_Z15G__getstructmemiR18G__FastAllocStringPciS1_PiP12G__var_arrayi
   fun:G__getvariable
   fun:G__getitem
}
{
   analysis_manager_indirect 
   Memcheck:Leak
   match-leak-kinds: indirect
   fun:_Znam
   fun:_ZN7TString4InitEii
   fun:_ZN7TStringC1EPKc
   fun:_ZN18AliAnalysisManager9TerminateEv
   fun:_ZN19AliAnalysisSelector9TerminateEv
   fun:_ZN11TTreePlayer7ProcessEP9TSelectorPKcxx
   fun:_ZN18AliAnalysisManager13StartAnalysisEPKcP5TTreexx
   fun:_ZL23G__G__ANALYSIS_208_0_14P8G__valuePKcP8G__parami
   fun:_ZN4Cint19G__ExceptionWrapperEPFiP8G__valuePKcP8G__paramiES1_PcS5_i
   fun:G__execute_call
   fun:G__call_cppfunc
   fun:G__interpret_func
}

